   1              		.cpu cortex-m7
   2              		.arch armv7e-m
   3              		.fpu fpv5-d16
   4              		.eabi_attribute 28, 1
   5              		.eabi_attribute 20, 1
   6              		.eabi_attribute 21, 1
   7              		.eabi_attribute 23, 3
   8              		.eabi_attribute 24, 1
   9              		.eabi_attribute 25, 1
  10              		.eabi_attribute 26, 1
  11              		.eabi_attribute 30, 6
  12              		.eabi_attribute 34, 1
  13              		.eabi_attribute 18, 4
  14              		.file	"can_dev.c"
  15              		.text
  16              	.Ltext0:
  17              		.cfi_sections	.debug_frame
  18              		.section	.bss.can_enabled,"aw",%nobits
  21              	can_enabled:
  22 0000 00       		.space	1
  23              		.section	.text.can_dev_get_reg_ptr,"ax",%progbits
  24              		.align	1
  25              		.p2align 4,,15
  26              		.global	can_dev_get_reg_ptr
  27              		.syntax unified
  28              		.thumb
  29              		.thumb_func
  31              	can_dev_get_reg_ptr:
  32              	.LFB416:
  33              		.file 1 "Modules/Drivers/Comms/CAN/src/sr5e1/can_dev.c"
   1:Modules/Drivers/Comms/CAN/src/sr5e1/can_dev.c **** /****************************************************************************
   2:Modules/Drivers/Comms/CAN/src/sr5e1/can_dev.c ****  *
   3:Modules/Drivers/Comms/CAN/src/sr5e1/can_dev.c ****  * Copyright (c) 2022 STMicroelectronics - All Rights Reserved
   4:Modules/Drivers/Comms/CAN/src/sr5e1/can_dev.c ****  *
   5:Modules/Drivers/Comms/CAN/src/sr5e1/can_dev.c ****  * License terms: STMicroelectronics Proprietary in accordance with licensing
   6:Modules/Drivers/Comms/CAN/src/sr5e1/can_dev.c ****  * terms SLA0098 at www.st.com.
   7:Modules/Drivers/Comms/CAN/src/sr5e1/can_dev.c ****  *
   8:Modules/Drivers/Comms/CAN/src/sr5e1/can_dev.c ****  * THIS SOFTWARE IS DISTRIBUTED "AS IS," AND ALL WARRANTIES ARE DISCLAIMED,
   9:Modules/Drivers/Comms/CAN/src/sr5e1/can_dev.c ****  * INCLUDING MERCHANTABILITY AND FITNESS FOR A PARTICULAR PURPOSE.
  10:Modules/Drivers/Comms/CAN/src/sr5e1/can_dev.c ****  *
  11:Modules/Drivers/Comms/CAN/src/sr5e1/can_dev.c ****  *****************************************************************************/
  12:Modules/Drivers/Comms/CAN/src/sr5e1/can_dev.c **** /**
  13:Modules/Drivers/Comms/CAN/src/sr5e1/can_dev.c ****  * @file    can_dev.c
  14:Modules/Drivers/Comms/CAN/src/sr5e1/can_dev.c ****  * @brief   CAN specific device source file.
  15:Modules/Drivers/Comms/CAN/src/sr5e1/can_dev.c ****  *
  16:Modules/Drivers/Comms/CAN/src/sr5e1/can_dev.c ****  * @addtogroup DRIVERS
  17:Modules/Drivers/Comms/CAN/src/sr5e1/can_dev.c ****  * @addtogroup COMMS
  18:Modules/Drivers/Comms/CAN/src/sr5e1/can_dev.c ****  * @ingroup DRIVERS
  19:Modules/Drivers/Comms/CAN/src/sr5e1/can_dev.c ****  * @addtogroup CAN
  20:Modules/Drivers/Comms/CAN/src/sr5e1/can_dev.c ****  * @ingroup COMMS
  21:Modules/Drivers/Comms/CAN/src/sr5e1/can_dev.c ****  * @{
  22:Modules/Drivers/Comms/CAN/src/sr5e1/can_dev.c ****  */
  23:Modules/Drivers/Comms/CAN/src/sr5e1/can_dev.c **** 
  24:Modules/Drivers/Comms/CAN/src/sr5e1/can_dev.c **** #include <can.h>
  25:Modules/Drivers/Comms/CAN/src/sr5e1/can_dev.c **** #include <can_private.h>
  26:Modules/Drivers/Comms/CAN/src/sr5e1/can_dev.c **** #include <clock.h>
  27:Modules/Drivers/Comms/CAN/src/sr5e1/can_dev.c **** #include <irq.h>
  28:Modules/Drivers/Comms/CAN/src/sr5e1/can_dev.c **** #include <platform.h>
  29:Modules/Drivers/Comms/CAN/src/sr5e1/can_dev.c **** 
  30:Modules/Drivers/Comms/CAN/src/sr5e1/can_dev.c **** /*===========================================================================*/
  31:Modules/Drivers/Comms/CAN/src/sr5e1/can_dev.c **** /* Module local definitions.                                                 */
  32:Modules/Drivers/Comms/CAN/src/sr5e1/can_dev.c **** /*===========================================================================*/
  33:Modules/Drivers/Comms/CAN/src/sr5e1/can_dev.c **** 
  34:Modules/Drivers/Comms/CAN/src/sr5e1/can_dev.c **** /*===========================================================================*/
  35:Modules/Drivers/Comms/CAN/src/sr5e1/can_dev.c **** /* Module exported variables.                                                */
  36:Modules/Drivers/Comms/CAN/src/sr5e1/can_dev.c **** /*===========================================================================*/
  37:Modules/Drivers/Comms/CAN/src/sr5e1/can_dev.c **** 
  38:Modules/Drivers/Comms/CAN/src/sr5e1/can_dev.c **** /*===========================================================================*/
  39:Modules/Drivers/Comms/CAN/src/sr5e1/can_dev.c **** /* Module local types.                                                       */
  40:Modules/Drivers/Comms/CAN/src/sr5e1/can_dev.c **** /*===========================================================================*/
  41:Modules/Drivers/Comms/CAN/src/sr5e1/can_dev.c **** 
  42:Modules/Drivers/Comms/CAN/src/sr5e1/can_dev.c **** /*===========================================================================*/
  43:Modules/Drivers/Comms/CAN/src/sr5e1/can_dev.c **** /* Module local variables.                                                   */
  44:Modules/Drivers/Comms/CAN/src/sr5e1/can_dev.c **** /*===========================================================================*/
  45:Modules/Drivers/Comms/CAN/src/sr5e1/can_dev.c **** 
  46:Modules/Drivers/Comms/CAN/src/sr5e1/can_dev.c **** static uint8_t can_enabled = 0U;
  47:Modules/Drivers/Comms/CAN/src/sr5e1/can_dev.c **** 
  48:Modules/Drivers/Comms/CAN/src/sr5e1/can_dev.c **** /*===========================================================================*/
  49:Modules/Drivers/Comms/CAN/src/sr5e1/can_dev.c **** /* Local function prototypes                                                 */
  50:Modules/Drivers/Comms/CAN/src/sr5e1/can_dev.c **** /*===========================================================================*/
  51:Modules/Drivers/Comms/CAN/src/sr5e1/can_dev.c **** 
  52:Modules/Drivers/Comms/CAN/src/sr5e1/can_dev.c **** /*===========================================================================*/
  53:Modules/Drivers/Comms/CAN/src/sr5e1/can_dev.c **** /* Module local functions.                                                   */
  54:Modules/Drivers/Comms/CAN/src/sr5e1/can_dev.c **** /*===========================================================================*/
  55:Modules/Drivers/Comms/CAN/src/sr5e1/can_dev.c **** 
  56:Modules/Drivers/Comms/CAN/src/sr5e1/can_dev.c **** /*===========================================================================*/
  57:Modules/Drivers/Comms/CAN/src/sr5e1/can_dev.c **** /* Module exported functions.                                                */
  58:Modules/Drivers/Comms/CAN/src/sr5e1/can_dev.c **** /*===========================================================================*/
  59:Modules/Drivers/Comms/CAN/src/sr5e1/can_dev.c **** 
  60:Modules/Drivers/Comms/CAN/src/sr5e1/can_dev.c **** /**
  61:Modules/Drivers/Comms/CAN/src/sr5e1/can_dev.c ****  * @brief   Returns pointer to the CAN register block.
  62:Modules/Drivers/Comms/CAN/src/sr5e1/can_dev.c ****  *
  63:Modules/Drivers/Comms/CAN/src/sr5e1/can_dev.c ****  * @param[in] cdp       pointer to a @p can_driver_t structure
  64:Modules/Drivers/Comms/CAN/src/sr5e1/can_dev.c ****  * @return              pointer to the CAN register block.
  65:Modules/Drivers/Comms/CAN/src/sr5e1/can_dev.c ****  *
  66:Modules/Drivers/Comms/CAN/src/sr5e1/can_dev.c ****  * @notapi
  67:Modules/Drivers/Comms/CAN/src/sr5e1/can_dev.c ****  */
  68:Modules/Drivers/Comms/CAN/src/sr5e1/can_dev.c **** FDCAN_TypeDef *can_dev_get_reg_ptr(can_driver_t *cdp) {
  34              		.loc 1 68 55
  35              		.cfi_startproc
  36              		@ args = 0, pretend = 0, frame = 16
  37              		@ frame_needed = 0, uses_anonymous_args = 0
  38              		@ link register save eliminated.
  39 0000 84B0     		sub	sp, sp, #16
  40              		.cfi_def_cfa_offset 16
  41 0002 0190     		str	r0, [sp, #4]
  69:Modules/Drivers/Comms/CAN/src/sr5e1/can_dev.c **** 
  70:Modules/Drivers/Comms/CAN/src/sr5e1/can_dev.c ****     FDCAN_TypeDef *can;
  71:Modules/Drivers/Comms/CAN/src/sr5e1/can_dev.c **** 
  72:Modules/Drivers/Comms/CAN/src/sr5e1/can_dev.c ****     if (cdp == &DRV_CAN1) {
  42              		.loc 1 72 8
  43 0004 019B     		ldr	r3, [sp, #4]
  44 0006 0D4A     		ldr	r2, .L7
  45 0008 9342     		cmp	r3, r2
  46 000a 02D1     		bne	.L2
  73:Modules/Drivers/Comms/CAN/src/sr5e1/can_dev.c ****         can = FDCAN1;
  47              		.loc 1 73 13
  48 000c 0C4B     		ldr	r3, .L7+4
  49 000e 0393     		str	r3, [sp, #12]
  50 0010 0FE0     		b	.L3
  51              	.L2:
  74:Modules/Drivers/Comms/CAN/src/sr5e1/can_dev.c ****     } else if (cdp == &DRV_CAN2) {
  52              		.loc 1 74 15
  53 0012 019B     		ldr	r3, [sp, #4]
  54 0014 0B4A     		ldr	r2, .L7+8
  55 0016 9342     		cmp	r3, r2
  56 0018 02D1     		bne	.L4
  75:Modules/Drivers/Comms/CAN/src/sr5e1/can_dev.c ****         can = FDCAN2;
  57              		.loc 1 75 13
  58 001a 0B4B     		ldr	r3, .L7+12
  59 001c 0393     		str	r3, [sp, #12]
  60 001e 08E0     		b	.L3
  61              	.L4:
  76:Modules/Drivers/Comms/CAN/src/sr5e1/can_dev.c ****     } else if (cdp == &DRV_CAN3) {
  62              		.loc 1 76 15
  63 0020 019B     		ldr	r3, [sp, #4]
  64 0022 0A4A     		ldr	r2, .L7+16
  65 0024 9342     		cmp	r3, r2
  66 0026 02D1     		bne	.L5
  77:Modules/Drivers/Comms/CAN/src/sr5e1/can_dev.c ****         can = FDCAN3;
  67              		.loc 1 77 13
  68 0028 094B     		ldr	r3, .L7+20
  69 002a 0393     		str	r3, [sp, #12]
  70 002c 01E0     		b	.L3
  71              	.L5:
  78:Modules/Drivers/Comms/CAN/src/sr5e1/can_dev.c ****     } else {
  79:Modules/Drivers/Comms/CAN/src/sr5e1/can_dev.c ****         can = FDCAN4;
  72              		.loc 1 79 13
  73 002e 094B     		ldr	r3, .L7+24
  74 0030 0393     		str	r3, [sp, #12]
  75              	.L3:
  80:Modules/Drivers/Comms/CAN/src/sr5e1/can_dev.c ****     }
  81:Modules/Drivers/Comms/CAN/src/sr5e1/can_dev.c **** 
  82:Modules/Drivers/Comms/CAN/src/sr5e1/can_dev.c ****     return can;
  76              		.loc 1 82 12
  77 0032 039B     		ldr	r3, [sp, #12]
  83:Modules/Drivers/Comms/CAN/src/sr5e1/can_dev.c **** }
  78              		.loc 1 83 1
  79 0034 1846     		mov	r0, r3
  80 0036 04B0     		add	sp, sp, #16
  81              		.cfi_def_cfa_offset 0
  82              		@ sp needed
  83 0038 7047     		bx	lr
  84              	.L8:
  85 003a 00BF     		.align	2
  86              	.L7:
  87 003c 00000000 		.word	DRV_CAN1
  88 0040 00A00042 		.word	1107337216
  89 0044 00000000 		.word	DRV_CAN2
  90 0048 00A80042 		.word	1107339264
  91 004c 00000000 		.word	DRV_CAN3
  92 0050 00B00042 		.word	1107341312
  93 0054 00B80042 		.word	1107343360
  94              		.cfi_endproc
  95              	.LFE416:
  97              		.section	.text.can_dev_get_clock,"ax",%progbits
  98              		.align	1
  99              		.p2align 4,,15
 100              		.global	can_dev_get_clock
 101              		.syntax unified
 102              		.thumb
 103              		.thumb_func
 105              	can_dev_get_clock:
 106              	.LFB417:
  84:Modules/Drivers/Comms/CAN/src/sr5e1/can_dev.c **** 
  85:Modules/Drivers/Comms/CAN/src/sr5e1/can_dev.c **** /**
  86:Modules/Drivers/Comms/CAN/src/sr5e1/can_dev.c ****  * @brief   Returns value of CAN clock.
  87:Modules/Drivers/Comms/CAN/src/sr5e1/can_dev.c ****  *
  88:Modules/Drivers/Comms/CAN/src/sr5e1/can_dev.c ****  * @param[in] cdp       pointer to a @p can_driver_t structure
  89:Modules/Drivers/Comms/CAN/src/sr5e1/can_dev.c ****  * @return              CAN clock.
  90:Modules/Drivers/Comms/CAN/src/sr5e1/can_dev.c ****  *
  91:Modules/Drivers/Comms/CAN/src/sr5e1/can_dev.c ****  * @notapi
  92:Modules/Drivers/Comms/CAN/src/sr5e1/can_dev.c ****  */
  93:Modules/Drivers/Comms/CAN/src/sr5e1/can_dev.c **** uint32_t can_dev_get_clock(can_driver_t *cdp) {
 107              		.loc 1 93 47
 108              		.cfi_startproc
 109              		@ args = 0, pretend = 0, frame = 8
 110              		@ frame_needed = 0, uses_anonymous_args = 0
 111              		@ link register save eliminated.
 112 0000 82B0     		sub	sp, sp, #8
 113              		.cfi_def_cfa_offset 8
 114 0002 0190     		str	r0, [sp, #4]
  94:Modules/Drivers/Comms/CAN/src/sr5e1/can_dev.c **** 
  95:Modules/Drivers/Comms/CAN/src/sr5e1/can_dev.c ****     (void)cdp;
  96:Modules/Drivers/Comms/CAN/src/sr5e1/can_dev.c **** 
  97:Modules/Drivers/Comms/CAN/src/sr5e1/can_dev.c ****     return CLOCK_FDCANCLK;
 115              		.loc 1 97 12
 116 0004 014B     		ldr	r3, .L11
  98:Modules/Drivers/Comms/CAN/src/sr5e1/can_dev.c **** }
 117              		.loc 1 98 1
 118 0006 1846     		mov	r0, r3
 119 0008 02B0     		add	sp, sp, #8
 120              		.cfi_def_cfa_offset 0
 121              		@ sp needed
 122 000a 7047     		bx	lr
 123              	.L12:
 124              		.align	2
 125              	.L11:
 126 000c 005A6202 		.word	40000000
 127              		.cfi_endproc
 128              	.LFE417:
 130              		.section	.text.can_dev_clock_enable,"ax",%progbits
 131              		.align	1
 132              		.p2align 4,,15
 133              		.global	can_dev_clock_enable
 134              		.syntax unified
 135              		.thumb
 136              		.thumb_func
 138              	can_dev_clock_enable:
 139              	.LFB418:
  99:Modules/Drivers/Comms/CAN/src/sr5e1/can_dev.c **** 
 100:Modules/Drivers/Comms/CAN/src/sr5e1/can_dev.c **** /**
 101:Modules/Drivers/Comms/CAN/src/sr5e1/can_dev.c ****  * @brief   Enables CAN clock.
 102:Modules/Drivers/Comms/CAN/src/sr5e1/can_dev.c ****  *
 103:Modules/Drivers/Comms/CAN/src/sr5e1/can_dev.c ****  * @param[in] cdp       pointer to a @p can_driver_t structure
 104:Modules/Drivers/Comms/CAN/src/sr5e1/can_dev.c ****  *
 105:Modules/Drivers/Comms/CAN/src/sr5e1/can_dev.c ****  * @notapi
 106:Modules/Drivers/Comms/CAN/src/sr5e1/can_dev.c ****  */
 107:Modules/Drivers/Comms/CAN/src/sr5e1/can_dev.c **** void can_dev_clock_enable(can_driver_t *cdp) {
 140              		.loc 1 107 46
 141              		.cfi_startproc
 142              		@ args = 0, pretend = 0, frame = 48
 143              		@ frame_needed = 0, uses_anonymous_args = 0
 144              		@ link register save eliminated.
 145 0000 8CB0     		sub	sp, sp, #48
 146              		.cfi_def_cfa_offset 48
 147 0002 0190     		str	r0, [sp, #4]
 108:Modules/Drivers/Comms/CAN/src/sr5e1/can_dev.c **** 
 109:Modules/Drivers/Comms/CAN/src/sr5e1/can_dev.c ****     /* In order to use the CAN module, all CAN instances must be enabled.*/
 110:Modules/Drivers/Comms/CAN/src/sr5e1/can_dev.c ****     /* Enable clocks of all CAN instances only if no other instance has been
 111:Modules/Drivers/Comms/CAN/src/sr5e1/can_dev.c ****        already enabled.*/
 112:Modules/Drivers/Comms/CAN/src/sr5e1/can_dev.c ****     if(can_enabled == 0U) {
 148              		.loc 1 112 20
 149 0004 CD4B     		ldr	r3, .L35
 150 0006 1B78     		ldrb	r3, [r3]	@ zero_extendqisi2
 151              		.loc 1 112 7
 152 0008 002B     		cmp	r3, #0
 153 000a 40F06881 		bne	.L14
 154 000e 0123     		movs	r3, #1
 155 0010 8DF80F30 		strb	r3, [sp, #15]
 156 0014 9DF80F30 		ldrb	r3, [sp, #15]
 157 0018 8DF80E30 		strb	r3, [sp, #14]
 158 001c 4FF48073 		mov	r3, #256
 159 0020 0293     		str	r3, [sp, #8]
 160              	.LBB62:
 161              	.LBB63:
 162              	.LBB64:
 163              	.LBB65:
 164              		.file 2 "d:\\project\\9388\\e1\\2023_7_27\\sr5e1_l9388_freeosek\\modules\\platform\\clock\\include
   1:d:\project\9388\e1\2023_7_27\sr5e1_l9388_freeosek\modules\platform\clock\include\sr5e1\clock.h **** /****************************************************************************
   2:d:\project\9388\e1\2023_7_27\sr5e1_l9388_freeosek\modules\platform\clock\include\sr5e1\clock.h ****  *
   3:d:\project\9388\e1\2023_7_27\sr5e1_l9388_freeosek\modules\platform\clock\include\sr5e1\clock.h ****  * Copyright (c) 2022 STMicroelectronics - All Rights Reserved
   4:d:\project\9388\e1\2023_7_27\sr5e1_l9388_freeosek\modules\platform\clock\include\sr5e1\clock.h ****  *
   5:d:\project\9388\e1\2023_7_27\sr5e1_l9388_freeosek\modules\platform\clock\include\sr5e1\clock.h ****  * License terms: STMicroelectronics Proprietary in accordance with licensing
   6:d:\project\9388\e1\2023_7_27\sr5e1_l9388_freeosek\modules\platform\clock\include\sr5e1\clock.h ****  * terms SLA0098 at www.st.com.
   7:d:\project\9388\e1\2023_7_27\sr5e1_l9388_freeosek\modules\platform\clock\include\sr5e1\clock.h ****  *
   8:d:\project\9388\e1\2023_7_27\sr5e1_l9388_freeosek\modules\platform\clock\include\sr5e1\clock.h ****  * THIS SOFTWARE IS DISTRIBUTED "AS IS," AND ALL WARRANTIES ARE DISCLAIMED,
   9:d:\project\9388\e1\2023_7_27\sr5e1_l9388_freeosek\modules\platform\clock\include\sr5e1\clock.h ****  * INCLUDING MERCHANTABILITY AND FITNESS FOR A PARTICULAR PURPOSE.
  10:d:\project\9388\e1\2023_7_27\sr5e1_l9388_freeosek\modules\platform\clock\include\sr5e1\clock.h ****  *
  11:d:\project\9388\e1\2023_7_27\sr5e1_l9388_freeosek\modules\platform\clock\include\sr5e1\clock.h ****  *****************************************************************************/
  12:d:\project\9388\e1\2023_7_27\sr5e1_l9388_freeosek\modules\platform\clock\include\sr5e1\clock.h **** /**
  13:d:\project\9388\e1\2023_7_27\sr5e1_l9388_freeosek\modules\platform\clock\include\sr5e1\clock.h ****  * @file    clock.h
  14:d:\project\9388\e1\2023_7_27\sr5e1_l9388_freeosek\modules\platform\clock\include\sr5e1\clock.h ****  * @brief   SR5E1 clock subsystem header file.
  15:d:\project\9388\e1\2023_7_27\sr5e1_l9388_freeosek\modules\platform\clock\include\sr5e1\clock.h ****  *
  16:d:\project\9388\e1\2023_7_27\sr5e1_l9388_freeosek\modules\platform\clock\include\sr5e1\clock.h ****  * @addtogroup PLATFORM
  17:d:\project\9388\e1\2023_7_27\sr5e1_l9388_freeosek\modules\platform\clock\include\sr5e1\clock.h ****  * @addtogroup CLOCK
  18:d:\project\9388\e1\2023_7_27\sr5e1_l9388_freeosek\modules\platform\clock\include\sr5e1\clock.h ****  * @ingroup PLATFORM
  19:d:\project\9388\e1\2023_7_27\sr5e1_l9388_freeosek\modules\platform\clock\include\sr5e1\clock.h ****  * @{
  20:d:\project\9388\e1\2023_7_27\sr5e1_l9388_freeosek\modules\platform\clock\include\sr5e1\clock.h ****  */
  21:d:\project\9388\e1\2023_7_27\sr5e1_l9388_freeosek\modules\platform\clock\include\sr5e1\clock.h **** 
  22:d:\project\9388\e1\2023_7_27\sr5e1_l9388_freeosek\modules\platform\clock\include\sr5e1\clock.h **** #ifndef _CLOCK_H_
  23:d:\project\9388\e1\2023_7_27\sr5e1_l9388_freeosek\modules\platform\clock\include\sr5e1\clock.h **** #define _CLOCK_H_
  24:d:\project\9388\e1\2023_7_27\sr5e1_l9388_freeosek\modules\platform\clock\include\sr5e1\clock.h **** 
  25:d:\project\9388\e1\2023_7_27\sr5e1_l9388_freeosek\modules\platform\clock\include\sr5e1\clock.h **** #include <clock_cfg.h>
  26:d:\project\9388\e1\2023_7_27\sr5e1_l9388_freeosek\modules\platform\clock\include\sr5e1\clock.h **** #include <platform.h>
  27:d:\project\9388\e1\2023_7_27\sr5e1_l9388_freeosek\modules\platform\clock\include\sr5e1\clock.h **** #include <typedefs.h>
  28:d:\project\9388\e1\2023_7_27\sr5e1_l9388_freeosek\modules\platform\clock\include\sr5e1\clock.h **** 
  29:d:\project\9388\e1\2023_7_27\sr5e1_l9388_freeosek\modules\platform\clock\include\sr5e1\clock.h **** /*===========================================================================*/
  30:d:\project\9388\e1\2023_7_27\sr5e1_l9388_freeosek\modules\platform\clock\include\sr5e1\clock.h **** /* Module constants.                                                         */
  31:d:\project\9388\e1\2023_7_27\sr5e1_l9388_freeosek\modules\platform\clock\include\sr5e1\clock.h **** /*===========================================================================*/
  32:d:\project\9388\e1\2023_7_27\sr5e1_l9388_freeosek\modules\platform\clock\include\sr5e1\clock.h **** 
  33:d:\project\9388\e1\2023_7_27\sr5e1_l9388_freeosek\modules\platform\clock\include\sr5e1\clock.h **** /**
  34:d:\project\9388\e1\2023_7_27\sr5e1_l9388_freeosek\modules\platform\clock\include\sr5e1\clock.h ****  * @name    RCC CFGR register
  35:d:\project\9388\e1\2023_7_27\sr5e1_l9388_freeosek\modules\platform\clock\include\sr5e1\clock.h ****  * @{
  36:d:\project\9388\e1\2023_7_27\sr5e1_l9388_freeosek\modules\platform\clock\include\sr5e1\clock.h ****  */
  37:d:\project\9388\e1\2023_7_27\sr5e1_l9388_freeosek\modules\platform\clock\include\sr5e1\clock.h **** #define CLOCK_SW_MASK               (3UL << 0U)
  38:d:\project\9388\e1\2023_7_27\sr5e1_l9388_freeosek\modules\platform\clock\include\sr5e1\clock.h **** #define CLOCK_SW_IRCOSC             (4UL << 0U) /* Internal 16 MHz   */
  39:d:\project\9388\e1\2023_7_27\sr5e1_l9388_freeosek\modules\platform\clock\include\sr5e1\clock.h **** #define CLOCK_SW_XOSC               (5UL << 0U) /* External 4-40 MHz */
  40:d:\project\9388\e1\2023_7_27\sr5e1_l9388_freeosek\modules\platform\clock\include\sr5e1\clock.h **** #define CLOCK_SW_PLL0PHI            (6UL << 0U)
  41:d:\project\9388\e1\2023_7_27\sr5e1_l9388_freeosek\modules\platform\clock\include\sr5e1\clock.h **** #define CLOCK_SW_PLL1PHI            (7UL << 0U)
  42:d:\project\9388\e1\2023_7_27\sr5e1_l9388_freeosek\modules\platform\clock\include\sr5e1\clock.h **** 
  43:d:\project\9388\e1\2023_7_27\sr5e1_l9388_freeosek\modules\platform\clock\include\sr5e1\clock.h **** #define CLOCK_SYSPRE_MASK           (511UL << 8U)
  44:d:\project\9388\e1\2023_7_27\sr5e1_l9388_freeosek\modules\platform\clock\include\sr5e1\clock.h **** #define CLOCK_SYSPRE_FIELD(n)       (((uint32_t)(n)) << 8U)
  45:d:\project\9388\e1\2023_7_27\sr5e1_l9388_freeosek\modules\platform\clock\include\sr5e1\clock.h **** 
  46:d:\project\9388\e1\2023_7_27\sr5e1_l9388_freeosek\modules\platform\clock\include\sr5e1\clock.h **** #define CLOCK_MCOSEL_MASK           (15UL << 20U)
  47:d:\project\9388\e1\2023_7_27\sr5e1_l9388_freeosek\modules\platform\clock\include\sr5e1\clock.h **** #define CLOCK_MCOSEL_NOCLOCK        (0UL << 20U)
  48:d:\project\9388\e1\2023_7_27\sr5e1_l9388_freeosek\modules\platform\clock\include\sr5e1\clock.h **** #define CLOCK_MCOSEL_LSI            (8UL << 20U)
  49:d:\project\9388\e1\2023_7_27\sr5e1_l9388_freeosek\modules\platform\clock\include\sr5e1\clock.h **** #define CLOCK_MCOSEL_IRCOSC         (9UL << 20U)
  50:d:\project\9388\e1\2023_7_27\sr5e1_l9388_freeosek\modules\platform\clock\include\sr5e1\clock.h **** #define CLOCK_MCOSEL_XOSC           (10UL << 20U)
  51:d:\project\9388\e1\2023_7_27\sr5e1_l9388_freeosek\modules\platform\clock\include\sr5e1\clock.h **** #define CLOCK_MCOSEL_PLL0PHI        (11UL << 20U)
  52:d:\project\9388\e1\2023_7_27\sr5e1_l9388_freeosek\modules\platform\clock\include\sr5e1\clock.h **** #define CLOCK_MCOSEL_PLL1PHI        (12UL << 20U)
  53:d:\project\9388\e1\2023_7_27\sr5e1_l9388_freeosek\modules\platform\clock\include\sr5e1\clock.h **** 
  54:d:\project\9388\e1\2023_7_27\sr5e1_l9388_freeosek\modules\platform\clock\include\sr5e1\clock.h **** #define CLOCK_MCOPRE_MASK           (63UL << 24U)
  55:d:\project\9388\e1\2023_7_27\sr5e1_l9388_freeosek\modules\platform\clock\include\sr5e1\clock.h **** #define CLOCK_MCOPRE_FIELD(n)       (((uint32_t)(n)) << 24U)
  56:d:\project\9388\e1\2023_7_27\sr5e1_l9388_freeosek\modules\platform\clock\include\sr5e1\clock.h **** /** @} */
  57:d:\project\9388\e1\2023_7_27\sr5e1_l9388_freeosek\modules\platform\clock\include\sr5e1\clock.h **** 
  58:d:\project\9388\e1\2023_7_27\sr5e1_l9388_freeosek\modules\platform\clock\include\sr5e1\clock.h **** /**
  59:d:\project\9388\e1\2023_7_27\sr5e1_l9388_freeosek\modules\platform\clock\include\sr5e1\clock.h ****  * @name    RCC PLLCFGR register
  60:d:\project\9388\e1\2023_7_27\sr5e1_l9388_freeosek\modules\platform\clock\include\sr5e1\clock.h ****  * @{
  61:d:\project\9388\e1\2023_7_27\sr5e1_l9388_freeosek\modules\platform\clock\include\sr5e1\clock.h ****  */
  62:d:\project\9388\e1\2023_7_27\sr5e1_l9388_freeosek\modules\platform\clock\include\sr5e1\clock.h **** #define CLOCK_PLL0SRC_MASK          (3UL << 0U)
  63:d:\project\9388\e1\2023_7_27\sr5e1_l9388_freeosek\modules\platform\clock\include\sr5e1\clock.h **** #define CLOCK_PLL0SRC_NOCLOCK       (0UL << 0U)
  64:d:\project\9388\e1\2023_7_27\sr5e1_l9388_freeosek\modules\platform\clock\include\sr5e1\clock.h **** #define CLOCK_PLL0SRC_IRCOSC        (2UL << 0U)
  65:d:\project\9388\e1\2023_7_27\sr5e1_l9388_freeosek\modules\platform\clock\include\sr5e1\clock.h **** #define CLOCK_PLL0SRC_XOSC          (3UL << 0U)
  66:d:\project\9388\e1\2023_7_27\sr5e1_l9388_freeosek\modules\platform\clock\include\sr5e1\clock.h **** 
  67:d:\project\9388\e1\2023_7_27\sr5e1_l9388_freeosek\modules\platform\clock\include\sr5e1\clock.h **** #define CLOCK_PLL1SRC_MASK          (3UL << 8U)
  68:d:\project\9388\e1\2023_7_27\sr5e1_l9388_freeosek\modules\platform\clock\include\sr5e1\clock.h **** #define CLOCK_PLL1SRC_NOCLOCK       (0UL << 8U)
  69:d:\project\9388\e1\2023_7_27\sr5e1_l9388_freeosek\modules\platform\clock\include\sr5e1\clock.h **** #define CLOCK_PLL1SRC_PLL0PHI1      (2UL << 8U)
  70:d:\project\9388\e1\2023_7_27\sr5e1_l9388_freeosek\modules\platform\clock\include\sr5e1\clock.h **** #define CLOCK_PLL1SRC_XOSC          (3UL << 8U)
  71:d:\project\9388\e1\2023_7_27\sr5e1_l9388_freeosek\modules\platform\clock\include\sr5e1\clock.h **** /** @} */
  72:d:\project\9388\e1\2023_7_27\sr5e1_l9388_freeosek\modules\platform\clock\include\sr5e1\clock.h **** 
  73:d:\project\9388\e1\2023_7_27\sr5e1_l9388_freeosek\modules\platform\clock\include\sr5e1\clock.h **** /**
  74:d:\project\9388\e1\2023_7_27\sr5e1_l9388_freeosek\modules\platform\clock\include\sr5e1\clock.h ****  * @name    RCC CCIPR1 register
  75:d:\project\9388\e1\2023_7_27\sr5e1_l9388_freeosek\modules\platform\clock\include\sr5e1\clock.h ****  * @{
  76:d:\project\9388\e1\2023_7_27\sr5e1_l9388_freeosek\modules\platform\clock\include\sr5e1\clock.h ****  */
  77:d:\project\9388\e1\2023_7_27\sr5e1_l9388_freeosek\modules\platform\clock\include\sr5e1\clock.h **** #define CLOCK_UARTSEL_MASK          (7UL << 0U)
  78:d:\project\9388\e1\2023_7_27\sr5e1_l9388_freeosek\modules\platform\clock\include\sr5e1\clock.h **** #define CLOCK_UARTSEL_NOCLOCK       (0UL << 0U)
  79:d:\project\9388\e1\2023_7_27\sr5e1_l9388_freeosek\modules\platform\clock\include\sr5e1\clock.h **** #define CLOCK_UARTSEL_IRCOSC        (4UL << 0U)
  80:d:\project\9388\e1\2023_7_27\sr5e1_l9388_freeosek\modules\platform\clock\include\sr5e1\clock.h **** #define CLOCK_UARTSEL_XOSC          (5UL << 0U)
  81:d:\project\9388\e1\2023_7_27\sr5e1_l9388_freeosek\modules\platform\clock\include\sr5e1\clock.h **** #define CLOCK_UARTSEL_PLL0PHI       (6UL << 0U)
  82:d:\project\9388\e1\2023_7_27\sr5e1_l9388_freeosek\modules\platform\clock\include\sr5e1\clock.h **** #define CLOCK_UARTSEL_LSI           (7UL << 0U)
  83:d:\project\9388\e1\2023_7_27\sr5e1_l9388_freeosek\modules\platform\clock\include\sr5e1\clock.h **** 
  84:d:\project\9388\e1\2023_7_27\sr5e1_l9388_freeosek\modules\platform\clock\include\sr5e1\clock.h **** #define CLOCK_I2CSEL_MASK           (7UL << 4U)
  85:d:\project\9388\e1\2023_7_27\sr5e1_l9388_freeosek\modules\platform\clock\include\sr5e1\clock.h **** #define CLOCK_I2CSEL_NOCLOCK        (0UL << 4U)
  86:d:\project\9388\e1\2023_7_27\sr5e1_l9388_freeosek\modules\platform\clock\include\sr5e1\clock.h **** #define CLOCK_I2CSEL_IRCOSC         (4UL << 4U)
  87:d:\project\9388\e1\2023_7_27\sr5e1_l9388_freeosek\modules\platform\clock\include\sr5e1\clock.h **** #define CLOCK_I2CSEL_XOSC           (5UL << 4U)
  88:d:\project\9388\e1\2023_7_27\sr5e1_l9388_freeosek\modules\platform\clock\include\sr5e1\clock.h **** #define CLOCK_I2CSEL_PLL0PHI        (6UL << 4U)
  89:d:\project\9388\e1\2023_7_27\sr5e1_l9388_freeosek\modules\platform\clock\include\sr5e1\clock.h **** 
  90:d:\project\9388\e1\2023_7_27\sr5e1_l9388_freeosek\modules\platform\clock\include\sr5e1\clock.h **** #define CLOCK_SPISEL_MASK           (7UL << 8U)
  91:d:\project\9388\e1\2023_7_27\sr5e1_l9388_freeosek\modules\platform\clock\include\sr5e1\clock.h **** #define CLOCK_SPISEL_NOCLOCK        (0UL << 8U)
  92:d:\project\9388\e1\2023_7_27\sr5e1_l9388_freeosek\modules\platform\clock\include\sr5e1\clock.h **** #define CLOCK_SPISEL_IRCOSC         (4UL << 8U)
  93:d:\project\9388\e1\2023_7_27\sr5e1_l9388_freeosek\modules\platform\clock\include\sr5e1\clock.h **** #define CLOCK_SPISEL_XOSC           (5UL << 8U)
  94:d:\project\9388\e1\2023_7_27\sr5e1_l9388_freeosek\modules\platform\clock\include\sr5e1\clock.h **** #define CLOCK_SPISEL_PLL0PHI        (6UL << 8U)
  95:d:\project\9388\e1\2023_7_27\sr5e1_l9388_freeosek\modules\platform\clock\include\sr5e1\clock.h **** #define CLOCK_SPISEL_I2S_CKIN       (7UL << 8U)
  96:d:\project\9388\e1\2023_7_27\sr5e1_l9388_freeosek\modules\platform\clock\include\sr5e1\clock.h **** 
  97:d:\project\9388\e1\2023_7_27\sr5e1_l9388_freeosek\modules\platform\clock\include\sr5e1\clock.h **** #define CLOCK_FDCANSEL_MASK         (7UL << 12U)
  98:d:\project\9388\e1\2023_7_27\sr5e1_l9388_freeosek\modules\platform\clock\include\sr5e1\clock.h **** #define CLOCK_FDCANSEL_NOCLOCK      (0UL << 12U)
  99:d:\project\9388\e1\2023_7_27\sr5e1_l9388_freeosek\modules\platform\clock\include\sr5e1\clock.h **** #define CLOCK_FDCANSEL_XOSC         (4UL << 12U)
 100:d:\project\9388\e1\2023_7_27\sr5e1_l9388_freeosek\modules\platform\clock\include\sr5e1\clock.h **** #define CLOCK_FDCANSEL_PLL0PHI      (5UL << 12U)
 101:d:\project\9388\e1\2023_7_27\sr5e1_l9388_freeosek\modules\platform\clock\include\sr5e1\clock.h **** 
 102:d:\project\9388\e1\2023_7_27\sr5e1_l9388_freeosek\modules\platform\clock\include\sr5e1\clock.h **** #define CLOCK_ADCSEL_MASK           (7UL << 16U)
 103:d:\project\9388\e1\2023_7_27\sr5e1_l9388_freeosek\modules\platform\clock\include\sr5e1\clock.h **** #define CLOCK_ADCSEL_NOCLOCK        (0UL << 16U)
 104:d:\project\9388\e1\2023_7_27\sr5e1_l9388_freeosek\modules\platform\clock\include\sr5e1\clock.h **** #define CLOCK_ADCSEL_XOSC           (4UL << 16U)
 105:d:\project\9388\e1\2023_7_27\sr5e1_l9388_freeosek\modules\platform\clock\include\sr5e1\clock.h **** #define CLOCK_ADCSEL_PLL0PHI        (5UL << 16U)
 106:d:\project\9388\e1\2023_7_27\sr5e1_l9388_freeosek\modules\platform\clock\include\sr5e1\clock.h **** #define CLOCK_ADCSEL_PLL1PHI        (6UL << 16U)
 107:d:\project\9388\e1\2023_7_27\sr5e1_l9388_freeosek\modules\platform\clock\include\sr5e1\clock.h **** 
 108:d:\project\9388\e1\2023_7_27\sr5e1_l9388_freeosek\modules\platform\clock\include\sr5e1\clock.h **** #define CLOCK_SDADCSEL_MASK         (7UL << 20U)
 109:d:\project\9388\e1\2023_7_27\sr5e1_l9388_freeosek\modules\platform\clock\include\sr5e1\clock.h **** #define CLOCK_SDADCSEL_NOCLOCK      (0UL << 20U)
 110:d:\project\9388\e1\2023_7_27\sr5e1_l9388_freeosek\modules\platform\clock\include\sr5e1\clock.h **** #define CLOCK_SDADCSEL_XOSC         (4UL << 20U)
 111:d:\project\9388\e1\2023_7_27\sr5e1_l9388_freeosek\modules\platform\clock\include\sr5e1\clock.h **** #define CLOCK_SDADCSEL_PLL0PHI      (5UL << 20U)
 112:d:\project\9388\e1\2023_7_27\sr5e1_l9388_freeosek\modules\platform\clock\include\sr5e1\clock.h **** #define CLOCK_SDADCSEL_PLL1PHI      (6UL << 20U)
 113:d:\project\9388\e1\2023_7_27\sr5e1_l9388_freeosek\modules\platform\clock\include\sr5e1\clock.h **** /** @} */
 114:d:\project\9388\e1\2023_7_27\sr5e1_l9388_freeosek\modules\platform\clock\include\sr5e1\clock.h **** 
 115:d:\project\9388\e1\2023_7_27\sr5e1_l9388_freeosek\modules\platform\clock\include\sr5e1\clock.h **** /**
 116:d:\project\9388\e1\2023_7_27\sr5e1_l9388_freeosek\modules\platform\clock\include\sr5e1\clock.h ****  * @name    RCC CCIPR2 register
 117:d:\project\9388\e1\2023_7_27\sr5e1_l9388_freeosek\modules\platform\clock\include\sr5e1\clock.h ****  * @{
 118:d:\project\9388\e1\2023_7_27\sr5e1_l9388_freeosek\modules\platform\clock\include\sr5e1\clock.h ****  */
 119:d:\project\9388\e1\2023_7_27\sr5e1_l9388_freeosek\modules\platform\clock\include\sr5e1\clock.h **** #define CLOCK_UARTPRE_MASK          (31U << 0U)
 120:d:\project\9388\e1\2023_7_27\sr5e1_l9388_freeosek\modules\platform\clock\include\sr5e1\clock.h **** #define CLOCK_UARTPRE_FIELD(n)      (((uint32_t)(n)) << 0U)
 121:d:\project\9388\e1\2023_7_27\sr5e1_l9388_freeosek\modules\platform\clock\include\sr5e1\clock.h **** 
 122:d:\project\9388\e1\2023_7_27\sr5e1_l9388_freeosek\modules\platform\clock\include\sr5e1\clock.h **** #define CLOCK_I2CPRE_MASK           (31U << 5U)
 123:d:\project\9388\e1\2023_7_27\sr5e1_l9388_freeosek\modules\platform\clock\include\sr5e1\clock.h **** #define CLOCK_I2CPRE_FIELD(n)       (((uint32_t)(n)) << 5U)
 124:d:\project\9388\e1\2023_7_27\sr5e1_l9388_freeosek\modules\platform\clock\include\sr5e1\clock.h **** 
 125:d:\project\9388\e1\2023_7_27\sr5e1_l9388_freeosek\modules\platform\clock\include\sr5e1\clock.h **** #define CLOCK_SPIPRE_MASK           (31U << 10U)
 126:d:\project\9388\e1\2023_7_27\sr5e1_l9388_freeosek\modules\platform\clock\include\sr5e1\clock.h **** #define CLOCK_SPIPRE_FIELD(n)       (((uint32_t)(n)) << 10U)
 127:d:\project\9388\e1\2023_7_27\sr5e1_l9388_freeosek\modules\platform\clock\include\sr5e1\clock.h **** 
 128:d:\project\9388\e1\2023_7_27\sr5e1_l9388_freeosek\modules\platform\clock\include\sr5e1\clock.h **** #define CLOCK_FDCANPRE_MASK         (31U << 15U)
 129:d:\project\9388\e1\2023_7_27\sr5e1_l9388_freeosek\modules\platform\clock\include\sr5e1\clock.h **** #define CLOCK_FDCANPRE_FIELD(n)     (((uint32_t)(n)) << 15U)
 130:d:\project\9388\e1\2023_7_27\sr5e1_l9388_freeosek\modules\platform\clock\include\sr5e1\clock.h **** 
 131:d:\project\9388\e1\2023_7_27\sr5e1_l9388_freeosek\modules\platform\clock\include\sr5e1\clock.h **** #define CLOCK_ADCPRE_MASK           (63U << 20U)
 132:d:\project\9388\e1\2023_7_27\sr5e1_l9388_freeosek\modules\platform\clock\include\sr5e1\clock.h **** #define CLOCK_ADCPRE_FIELD(n)       (((uint32_t)(n)) << 20U)
 133:d:\project\9388\e1\2023_7_27\sr5e1_l9388_freeosek\modules\platform\clock\include\sr5e1\clock.h **** 
 134:d:\project\9388\e1\2023_7_27\sr5e1_l9388_freeosek\modules\platform\clock\include\sr5e1\clock.h **** #define CLOCK_SDADCPRE_MASK         (63U << 26U)
 135:d:\project\9388\e1\2023_7_27\sr5e1_l9388_freeosek\modules\platform\clock\include\sr5e1\clock.h **** #define CLOCK_SDADCPRE_FIELD(n)     (((uint32_t)(n)) << 26U)
 136:d:\project\9388\e1\2023_7_27\sr5e1_l9388_freeosek\modules\platform\clock\include\sr5e1\clock.h **** /** @} */
 137:d:\project\9388\e1\2023_7_27\sr5e1_l9388_freeosek\modules\platform\clock\include\sr5e1\clock.h **** 
 138:d:\project\9388\e1\2023_7_27\sr5e1_l9388_freeosek\modules\platform\clock\include\sr5e1\clock.h **** /**
 139:d:\project\9388\e1\2023_7_27\sr5e1_l9388_freeosek\modules\platform\clock\include\sr5e1\clock.h ****  * @name    RCC LSCFGR register
 140:d:\project\9388\e1\2023_7_27\sr5e1_l9388_freeosek\modules\platform\clock\include\sr5e1\clock.h ****  * @{
 141:d:\project\9388\e1\2023_7_27\sr5e1_l9388_freeosek\modules\platform\clock\include\sr5e1\clock.h ****  */
 142:d:\project\9388\e1\2023_7_27\sr5e1_l9388_freeosek\modules\platform\clock\include\sr5e1\clock.h **** #define CLOCK_RTCSEL_MASK           (3UL << 9U)
 143:d:\project\9388\e1\2023_7_27\sr5e1_l9388_freeosek\modules\platform\clock\include\sr5e1\clock.h **** #define CLOCK_RTCSEL_NOCLOCK        (0UL << 9U)
 144:d:\project\9388\e1\2023_7_27\sr5e1_l9388_freeosek\modules\platform\clock\include\sr5e1\clock.h **** #define CLOCK_RTCSEL_LSI            (2UL << 9U)  /* LSI after LSIPRE prescaler division */
 145:d:\project\9388\e1\2023_7_27\sr5e1_l9388_freeosek\modules\platform\clock\include\sr5e1\clock.h **** #define CLOCK_RTCSEL_XOSC           (3UL << 9U)  /* XOSC divided by 32 */
 146:d:\project\9388\e1\2023_7_27\sr5e1_l9388_freeosek\modules\platform\clock\include\sr5e1\clock.h **** 
 147:d:\project\9388\e1\2023_7_27\sr5e1_l9388_freeosek\modules\platform\clock\include\sr5e1\clock.h **** #define CLOCK_LSIPRE_MASK           (31UL << 0U)
 148:d:\project\9388\e1\2023_7_27\sr5e1_l9388_freeosek\modules\platform\clock\include\sr5e1\clock.h **** #define CLOCK_LSIPRE_FIELD(n)       (((uint32_t)(n)) << 0U)
 149:d:\project\9388\e1\2023_7_27\sr5e1_l9388_freeosek\modules\platform\clock\include\sr5e1\clock.h **** /** @} */
 150:d:\project\9388\e1\2023_7_27\sr5e1_l9388_freeosek\modules\platform\clock\include\sr5e1\clock.h **** 
 151:d:\project\9388\e1\2023_7_27\sr5e1_l9388_freeosek\modules\platform\clock\include\sr5e1\clock.h **** /**
 152:d:\project\9388\e1\2023_7_27\sr5e1_l9388_freeosek\modules\platform\clock\include\sr5e1\clock.h ****  * @name    PLLDIG PLL0DV register
 153:d:\project\9388\e1\2023_7_27\sr5e1_l9388_freeosek\modules\platform\clock\include\sr5e1\clock.h ****  * @{
 154:d:\project\9388\e1\2023_7_27\sr5e1_l9388_freeosek\modules\platform\clock\include\sr5e1\clock.h ****  */
 155:d:\project\9388\e1\2023_7_27\sr5e1_l9388_freeosek\modules\platform\clock\include\sr5e1\clock.h **** #define CLOCK_PLL0MFD_MASK          (127UL << 0U)
 156:d:\project\9388\e1\2023_7_27\sr5e1_l9388_freeosek\modules\platform\clock\include\sr5e1\clock.h **** #define CLOCK_PLL0MFD_FIELD(n)      (((uint32_t)(n)) << 0U)
 157:d:\project\9388\e1\2023_7_27\sr5e1_l9388_freeosek\modules\platform\clock\include\sr5e1\clock.h **** 
 158:d:\project\9388\e1\2023_7_27\sr5e1_l9388_freeosek\modules\platform\clock\include\sr5e1\clock.h **** #define CLOCK_PLL0PREDIV_MASK       (7UL << 12U)
 159:d:\project\9388\e1\2023_7_27\sr5e1_l9388_freeosek\modules\platform\clock\include\sr5e1\clock.h **** #define CLOCK_PLL0PREDIV_FIELD(n)   (((uint32_t)(n)) << 12U)
 160:d:\project\9388\e1\2023_7_27\sr5e1_l9388_freeosek\modules\platform\clock\include\sr5e1\clock.h **** 
 161:d:\project\9388\e1\2023_7_27\sr5e1_l9388_freeosek\modules\platform\clock\include\sr5e1\clock.h **** #define CLOCK_PLL0RFDPHI_MASK       (63UL << 16U)
 162:d:\project\9388\e1\2023_7_27\sr5e1_l9388_freeosek\modules\platform\clock\include\sr5e1\clock.h **** #define CLOCK_PLL0RFDPHI_FIELD(n)   (((uint32_t)(n)) << 16U)
 163:d:\project\9388\e1\2023_7_27\sr5e1_l9388_freeosek\modules\platform\clock\include\sr5e1\clock.h **** 
 164:d:\project\9388\e1\2023_7_27\sr5e1_l9388_freeosek\modules\platform\clock\include\sr5e1\clock.h **** #define CLOCK_PLL0RFDPHI1_MASK      (15UL << 27U)
 165:d:\project\9388\e1\2023_7_27\sr5e1_l9388_freeosek\modules\platform\clock\include\sr5e1\clock.h **** #define CLOCK_PLL0RFDPHI1_FIELD(n)  (((uint32_t)(n)) << 27U)
 166:d:\project\9388\e1\2023_7_27\sr5e1_l9388_freeosek\modules\platform\clock\include\sr5e1\clock.h **** /** @} */
 167:d:\project\9388\e1\2023_7_27\sr5e1_l9388_freeosek\modules\platform\clock\include\sr5e1\clock.h **** 
 168:d:\project\9388\e1\2023_7_27\sr5e1_l9388_freeosek\modules\platform\clock\include\sr5e1\clock.h **** /**
 169:d:\project\9388\e1\2023_7_27\sr5e1_l9388_freeosek\modules\platform\clock\include\sr5e1\clock.h ****  * @name    PLLDIG PLL1DV register
 170:d:\project\9388\e1\2023_7_27\sr5e1_l9388_freeosek\modules\platform\clock\include\sr5e1\clock.h ****  * @{
 171:d:\project\9388\e1\2023_7_27\sr5e1_l9388_freeosek\modules\platform\clock\include\sr5e1\clock.h ****  */
 172:d:\project\9388\e1\2023_7_27\sr5e1_l9388_freeosek\modules\platform\clock\include\sr5e1\clock.h **** #define CLOCK_PLL1MFD_MASK          (127UL << 0U)
 173:d:\project\9388\e1\2023_7_27\sr5e1_l9388_freeosek\modules\platform\clock\include\sr5e1\clock.h **** #define CLOCK_PLL1MFD_FIELD(n)      (((uint32_t)(n)) << 0U)
 174:d:\project\9388\e1\2023_7_27\sr5e1_l9388_freeosek\modules\platform\clock\include\sr5e1\clock.h **** 
 175:d:\project\9388\e1\2023_7_27\sr5e1_l9388_freeosek\modules\platform\clock\include\sr5e1\clock.h **** #define CLOCK_PLL1RFDPHI_MASK       (63U << 16U)
 176:d:\project\9388\e1\2023_7_27\sr5e1_l9388_freeosek\modules\platform\clock\include\sr5e1\clock.h **** #define CLOCK_PLL1RFDPHI_FIELD(n)   (((uint32_t)(n)) << 16U)
 177:d:\project\9388\e1\2023_7_27\sr5e1_l9388_freeosek\modules\platform\clock\include\sr5e1\clock.h **** /** @} */
 178:d:\project\9388\e1\2023_7_27\sr5e1_l9388_freeosek\modules\platform\clock\include\sr5e1\clock.h **** 
 179:d:\project\9388\e1\2023_7_27\sr5e1_l9388_freeosek\modules\platform\clock\include\sr5e1\clock.h **** /**
 180:d:\project\9388\e1\2023_7_27\sr5e1_l9388_freeosek\modules\platform\clock\include\sr5e1\clock.h ****  * @name    NVMPC PFCR1 register
 181:d:\project\9388\e1\2023_7_27\sr5e1_l9388_freeosek\modules\platform\clock\include\sr5e1\clock.h ****  * @{
 182:d:\project\9388\e1\2023_7_27\sr5e1_l9388_freeosek\modules\platform\clock\include\sr5e1\clock.h ****  */
 183:d:\project\9388\e1\2023_7_27\sr5e1_l9388_freeosek\modules\platform\clock\include\sr5e1\clock.h **** 
 184:d:\project\9388\e1\2023_7_27\sr5e1_l9388_freeosek\modules\platform\clock\include\sr5e1\clock.h **** #define CLOCK_NVMCCBFEN_MASK        (1UL << 0U)
 185:d:\project\9388\e1\2023_7_27\sr5e1_l9388_freeosek\modules\platform\clock\include\sr5e1\clock.h **** #define CLOCK_NVMCCBFEN_FIELD(n)    (((uint32_t)(n)) << 0U)
 186:d:\project\9388\e1\2023_7_27\sr5e1_l9388_freeosek\modules\platform\clock\include\sr5e1\clock.h **** 
 187:d:\project\9388\e1\2023_7_27\sr5e1_l9388_freeosek\modules\platform\clock\include\sr5e1\clock.h **** #define CLOCK_NVMDCBFEN_MASK        (1UL << 1U)
 188:d:\project\9388\e1\2023_7_27\sr5e1_l9388_freeosek\modules\platform\clock\include\sr5e1\clock.h **** #define CLOCK_NVMDCBFEN_FIELD(n)    ((n) << 1U)
 189:d:\project\9388\e1\2023_7_27\sr5e1_l9388_freeosek\modules\platform\clock\include\sr5e1\clock.h **** 
 190:d:\project\9388\e1\2023_7_27\sr5e1_l9388_freeosek\modules\platform\clock\include\sr5e1\clock.h **** #define CLOCK_NVMRWSC_MASK          (1FUL << 8U)
 191:d:\project\9388\e1\2023_7_27\sr5e1_l9388_freeosek\modules\platform\clock\include\sr5e1\clock.h **** #define CLOCK_NVMRWSC_FIELD(n)      (((uint32_t)(n)) << 8U)
 192:d:\project\9388\e1\2023_7_27\sr5e1_l9388_freeosek\modules\platform\clock\include\sr5e1\clock.h **** 
 193:d:\project\9388\e1\2023_7_27\sr5e1_l9388_freeosek\modules\platform\clock\include\sr5e1\clock.h **** #define CLOCK_NVMAPC_MASK           (7UL << 13U)
 194:d:\project\9388\e1\2023_7_27\sr5e1_l9388_freeosek\modules\platform\clock\include\sr5e1\clock.h **** #define CLOCK_NVMAPC_FIELD(n)       (((uint32_t)(n)) << 13U)
 195:d:\project\9388\e1\2023_7_27\sr5e1_l9388_freeosek\modules\platform\clock\include\sr5e1\clock.h **** /** @} */
 196:d:\project\9388\e1\2023_7_27\sr5e1_l9388_freeosek\modules\platform\clock\include\sr5e1\clock.h **** 
 197:d:\project\9388\e1\2023_7_27\sr5e1_l9388_freeosek\modules\platform\clock\include\sr5e1\clock.h **** /**
 198:d:\project\9388\e1\2023_7_27\sr5e1_l9388_freeosek\modules\platform\clock\include\sr5e1\clock.h ****  * @name    Internal oscillators
 199:d:\project\9388\e1\2023_7_27\sr5e1_l9388_freeosek\modules\platform\clock\include\sr5e1\clock.h ****  * @{
 200:d:\project\9388\e1\2023_7_27\sr5e1_l9388_freeosek\modules\platform\clock\include\sr5e1\clock.h ****  */
 201:d:\project\9388\e1\2023_7_27\sr5e1_l9388_freeosek\modules\platform\clock\include\sr5e1\clock.h **** #define CLOCK_IRCOSCCLK             16000000UL
 202:d:\project\9388\e1\2023_7_27\sr5e1_l9388_freeosek\modules\platform\clock\include\sr5e1\clock.h **** #define CLOCK_LSICLK                1000000UL
 203:d:\project\9388\e1\2023_7_27\sr5e1_l9388_freeosek\modules\platform\clock\include\sr5e1\clock.h **** /** @} */
 204:d:\project\9388\e1\2023_7_27\sr5e1_l9388_freeosek\modules\platform\clock\include\sr5e1\clock.h **** 
 205:d:\project\9388\e1\2023_7_27\sr5e1_l9388_freeosek\modules\platform\clock\include\sr5e1\clock.h **** /*===========================================================================*/
 206:d:\project\9388\e1\2023_7_27\sr5e1_l9388_freeosek\modules\platform\clock\include\sr5e1\clock.h **** /* Module pre-compile time settings.                                         */
 207:d:\project\9388\e1\2023_7_27\sr5e1_l9388_freeosek\modules\platform\clock\include\sr5e1\clock.h **** /*===========================================================================*/
 208:d:\project\9388\e1\2023_7_27\sr5e1_l9388_freeosek\modules\platform\clock\include\sr5e1\clock.h **** 
 209:d:\project\9388\e1\2023_7_27\sr5e1_l9388_freeosek\modules\platform\clock\include\sr5e1\clock.h **** /*===========================================================================*/
 210:d:\project\9388\e1\2023_7_27\sr5e1_l9388_freeosek\modules\platform\clock\include\sr5e1\clock.h **** /* Derived constants and error checks.                                       */
 211:d:\project\9388\e1\2023_7_27\sr5e1_l9388_freeosek\modules\platform\clock\include\sr5e1\clock.h **** /*===========================================================================*/
 212:d:\project\9388\e1\2023_7_27\sr5e1_l9388_freeosek\modules\platform\clock\include\sr5e1\clock.h **** 
 213:d:\project\9388\e1\2023_7_27\sr5e1_l9388_freeosek\modules\platform\clock\include\sr5e1\clock.h **** /* Configuration file checks.*/
 214:d:\project\9388\e1\2023_7_27\sr5e1_l9388_freeosek\modules\platform\clock\include\sr5e1\clock.h **** #if !defined(SR5E1xxx_CLOCKCONF)
 215:d:\project\9388\e1\2023_7_27\sr5e1_l9388_freeosek\modules\platform\clock\include\sr5e1\clock.h **** #error "SR5E1xxx_CLOCKCONF not defined in clock_cfg.h"
 216:d:\project\9388\e1\2023_7_27\sr5e1_l9388_freeosek\modules\platform\clock\include\sr5e1\clock.h **** #endif
 217:d:\project\9388\e1\2023_7_27\sr5e1_l9388_freeosek\modules\platform\clock\include\sr5e1\clock.h **** 
 218:d:\project\9388\e1\2023_7_27\sr5e1_l9388_freeosek\modules\platform\clock\include\sr5e1\clock.h **** #if !defined(CLOCK_CFG_SMP_MODE) || defined(__DOXYGEN__)
 219:d:\project\9388\e1\2023_7_27\sr5e1_l9388_freeosek\modules\platform\clock\include\sr5e1\clock.h **** #error "CLOCK_CFG_SMP_MODE not defined in clock_cfg.h"
 220:d:\project\9388\e1\2023_7_27\sr5e1_l9388_freeosek\modules\platform\clock\include\sr5e1\clock.h **** #endif
 221:d:\project\9388\e1\2023_7_27\sr5e1_l9388_freeosek\modules\platform\clock\include\sr5e1\clock.h **** 
 222:d:\project\9388\e1\2023_7_27\sr5e1_l9388_freeosek\modules\platform\clock\include\sr5e1\clock.h **** #if !defined(CLOCK_CFG_XOSC_ENABLED) || defined(__DOXYGEN__)
 223:d:\project\9388\e1\2023_7_27\sr5e1_l9388_freeosek\modules\platform\clock\include\sr5e1\clock.h **** #error "CLOCK_CFG_XOSC_ENABLED not defined in clock_cfg.h"
 224:d:\project\9388\e1\2023_7_27\sr5e1_l9388_freeosek\modules\platform\clock\include\sr5e1\clock.h **** #endif
 225:d:\project\9388\e1\2023_7_27\sr5e1_l9388_freeosek\modules\platform\clock\include\sr5e1\clock.h **** 
 226:d:\project\9388\e1\2023_7_27\sr5e1_l9388_freeosek\modules\platform\clock\include\sr5e1\clock.h **** #if !defined(CLOCK_CFG_LSI_ENABLED) || defined(__DOXYGEN__)
 227:d:\project\9388\e1\2023_7_27\sr5e1_l9388_freeosek\modules\platform\clock\include\sr5e1\clock.h **** #error "CLOCK_CFG_LSI_ENABLED not defined in clock_cfg.h"
 228:d:\project\9388\e1\2023_7_27\sr5e1_l9388_freeosek\modules\platform\clock\include\sr5e1\clock.h **** #endif
 229:d:\project\9388\e1\2023_7_27\sr5e1_l9388_freeosek\modules\platform\clock\include\sr5e1\clock.h **** 
 230:d:\project\9388\e1\2023_7_27\sr5e1_l9388_freeosek\modules\platform\clock\include\sr5e1\clock.h **** #if !defined(CLOCK_CFG_XOSCCLK)
 231:d:\project\9388\e1\2023_7_27\sr5e1_l9388_freeosek\modules\platform\clock\include\sr5e1\clock.h **** #error "CLOCK_CFG_XOSCCLK not defined in clock_cfg.h"
 232:d:\project\9388\e1\2023_7_27\sr5e1_l9388_freeosek\modules\platform\clock\include\sr5e1\clock.h **** #endif
 233:d:\project\9388\e1\2023_7_27\sr5e1_l9388_freeosek\modules\platform\clock\include\sr5e1\clock.h **** 
 234:d:\project\9388\e1\2023_7_27\sr5e1_l9388_freeosek\modules\platform\clock\include\sr5e1\clock.h **** #if !defined(CLOCK_CFG_XOSC_BYPASS)
 235:d:\project\9388\e1\2023_7_27\sr5e1_l9388_freeosek\modules\platform\clock\include\sr5e1\clock.h **** #error "CLOCK_CFG_XOSC_BYPASS not defined in clock_cfg.h"
 236:d:\project\9388\e1\2023_7_27\sr5e1_l9388_freeosek\modules\platform\clock\include\sr5e1\clock.h **** #endif
 237:d:\project\9388\e1\2023_7_27\sr5e1_l9388_freeosek\modules\platform\clock\include\sr5e1\clock.h **** 
 238:d:\project\9388\e1\2023_7_27\sr5e1_l9388_freeosek\modules\platform\clock\include\sr5e1\clock.h **** #if !defined(CLOCK_CFG_PLL0SRC) || defined(__DOXYGEN__)
 239:d:\project\9388\e1\2023_7_27\sr5e1_l9388_freeosek\modules\platform\clock\include\sr5e1\clock.h **** #error "CLOCK_CFG_PLL0SRC not defined in clock_cfg.h"
 240:d:\project\9388\e1\2023_7_27\sr5e1_l9388_freeosek\modules\platform\clock\include\sr5e1\clock.h **** #endif
 241:d:\project\9388\e1\2023_7_27\sr5e1_l9388_freeosek\modules\platform\clock\include\sr5e1\clock.h **** 
 242:d:\project\9388\e1\2023_7_27\sr5e1_l9388_freeosek\modules\platform\clock\include\sr5e1\clock.h **** #if !defined(CLOCK_CFG_PLL0MFD_VALUE) || defined(__DOXYGEN__)
 243:d:\project\9388\e1\2023_7_27\sr5e1_l9388_freeosek\modules\platform\clock\include\sr5e1\clock.h **** #error "CLOCK_CFG_PLL0MFD_VALUE not defined in clock_cfg.h"
 244:d:\project\9388\e1\2023_7_27\sr5e1_l9388_freeosek\modules\platform\clock\include\sr5e1\clock.h **** #endif
 245:d:\project\9388\e1\2023_7_27\sr5e1_l9388_freeosek\modules\platform\clock\include\sr5e1\clock.h **** 
 246:d:\project\9388\e1\2023_7_27\sr5e1_l9388_freeosek\modules\platform\clock\include\sr5e1\clock.h **** #if !defined(CLOCK_CFG_PLL0PREDIV_VALUE) || defined(__DOXYGEN__)
 247:d:\project\9388\e1\2023_7_27\sr5e1_l9388_freeosek\modules\platform\clock\include\sr5e1\clock.h **** #error "CLOCK_CFG_PLL0PREDIV_VALUE not defined in clock_cfg.h"
 248:d:\project\9388\e1\2023_7_27\sr5e1_l9388_freeosek\modules\platform\clock\include\sr5e1\clock.h **** #endif
 249:d:\project\9388\e1\2023_7_27\sr5e1_l9388_freeosek\modules\platform\clock\include\sr5e1\clock.h **** 
 250:d:\project\9388\e1\2023_7_27\sr5e1_l9388_freeosek\modules\platform\clock\include\sr5e1\clock.h **** #if !defined(CLOCK_CFG_PLL0RFDPHI_VALUE) || defined(__DOXYGEN__)
 251:d:\project\9388\e1\2023_7_27\sr5e1_l9388_freeosek\modules\platform\clock\include\sr5e1\clock.h **** #error "CLOCK_CFG_PLL0RFDPHI_VALUE not defined in clock_cfg.h"
 252:d:\project\9388\e1\2023_7_27\sr5e1_l9388_freeosek\modules\platform\clock\include\sr5e1\clock.h **** #endif
 253:d:\project\9388\e1\2023_7_27\sr5e1_l9388_freeosek\modules\platform\clock\include\sr5e1\clock.h **** 
 254:d:\project\9388\e1\2023_7_27\sr5e1_l9388_freeosek\modules\platform\clock\include\sr5e1\clock.h **** #if !defined(CLOCK_CFG_PLL0RFDPHI1_VALUE) || defined(__DOXYGEN__)
 255:d:\project\9388\e1\2023_7_27\sr5e1_l9388_freeosek\modules\platform\clock\include\sr5e1\clock.h **** #error "CLOCK_CFG_PLL0RFDPHI1_VALUE not defined in clock_cfg.h"
 256:d:\project\9388\e1\2023_7_27\sr5e1_l9388_freeosek\modules\platform\clock\include\sr5e1\clock.h **** #endif
 257:d:\project\9388\e1\2023_7_27\sr5e1_l9388_freeosek\modules\platform\clock\include\sr5e1\clock.h **** 
 258:d:\project\9388\e1\2023_7_27\sr5e1_l9388_freeosek\modules\platform\clock\include\sr5e1\clock.h **** #if !defined(CLOCK_CFG_PLL1SRC) || defined(__DOXYGEN__)
 259:d:\project\9388\e1\2023_7_27\sr5e1_l9388_freeosek\modules\platform\clock\include\sr5e1\clock.h **** #error "CLOCK_CFG_PLL1SRC not defined in clock_cfg.h"
 260:d:\project\9388\e1\2023_7_27\sr5e1_l9388_freeosek\modules\platform\clock\include\sr5e1\clock.h **** #endif
 261:d:\project\9388\e1\2023_7_27\sr5e1_l9388_freeosek\modules\platform\clock\include\sr5e1\clock.h **** 
 262:d:\project\9388\e1\2023_7_27\sr5e1_l9388_freeosek\modules\platform\clock\include\sr5e1\clock.h **** #if !defined(CLOCK_CFG_PLL1MFD_VALUE) || defined(__DOXYGEN__)
 263:d:\project\9388\e1\2023_7_27\sr5e1_l9388_freeosek\modules\platform\clock\include\sr5e1\clock.h **** #error "CLOCK_CFG_PLL1MFD_VALUE not defined in clock_cfg.h"
 264:d:\project\9388\e1\2023_7_27\sr5e1_l9388_freeosek\modules\platform\clock\include\sr5e1\clock.h **** #endif
 265:d:\project\9388\e1\2023_7_27\sr5e1_l9388_freeosek\modules\platform\clock\include\sr5e1\clock.h **** 
 266:d:\project\9388\e1\2023_7_27\sr5e1_l9388_freeosek\modules\platform\clock\include\sr5e1\clock.h **** #if !defined(CLOCK_CFG_PLL1RFDPHI_VALUE) || defined(__DOXYGEN__)
 267:d:\project\9388\e1\2023_7_27\sr5e1_l9388_freeosek\modules\platform\clock\include\sr5e1\clock.h **** #error "CLOCK_CFG_PLL1RFDPHI_VALUE not defined in clock_cfg.h"
 268:d:\project\9388\e1\2023_7_27\sr5e1_l9388_freeosek\modules\platform\clock\include\sr5e1\clock.h **** #endif
 269:d:\project\9388\e1\2023_7_27\sr5e1_l9388_freeosek\modules\platform\clock\include\sr5e1\clock.h **** 
 270:d:\project\9388\e1\2023_7_27\sr5e1_l9388_freeosek\modules\platform\clock\include\sr5e1\clock.h **** #if !defined(CLOCK_CFG_SW) || defined(__DOXYGEN__)
 271:d:\project\9388\e1\2023_7_27\sr5e1_l9388_freeosek\modules\platform\clock\include\sr5e1\clock.h **** #error "CLOCK_CFG_SW not defined in clock_cfg.h"
 272:d:\project\9388\e1\2023_7_27\sr5e1_l9388_freeosek\modules\platform\clock\include\sr5e1\clock.h **** #endif
 273:d:\project\9388\e1\2023_7_27\sr5e1_l9388_freeosek\modules\platform\clock\include\sr5e1\clock.h **** 
 274:d:\project\9388\e1\2023_7_27\sr5e1_l9388_freeosek\modules\platform\clock\include\sr5e1\clock.h **** #if !defined(CLOCK_CFG_SYSPRE_VALUE) || defined(__DOXYGEN__)
 275:d:\project\9388\e1\2023_7_27\sr5e1_l9388_freeosek\modules\platform\clock\include\sr5e1\clock.h **** #error "CLOCK_CFG_SYSPRE_VALUE not defined in clock_cfg.h"
 276:d:\project\9388\e1\2023_7_27\sr5e1_l9388_freeosek\modules\platform\clock\include\sr5e1\clock.h **** #endif
 277:d:\project\9388\e1\2023_7_27\sr5e1_l9388_freeosek\modules\platform\clock\include\sr5e1\clock.h **** 
 278:d:\project\9388\e1\2023_7_27\sr5e1_l9388_freeosek\modules\platform\clock\include\sr5e1\clock.h **** #if !defined(CLOCK_CFG_UARTSEL) || defined(__DOXYGEN__)
 279:d:\project\9388\e1\2023_7_27\sr5e1_l9388_freeosek\modules\platform\clock\include\sr5e1\clock.h **** #error "CLOCK_CFG_UARTSEL not defined in clock_cfg.h"
 280:d:\project\9388\e1\2023_7_27\sr5e1_l9388_freeosek\modules\platform\clock\include\sr5e1\clock.h **** #endif
 281:d:\project\9388\e1\2023_7_27\sr5e1_l9388_freeosek\modules\platform\clock\include\sr5e1\clock.h **** 
 282:d:\project\9388\e1\2023_7_27\sr5e1_l9388_freeosek\modules\platform\clock\include\sr5e1\clock.h **** #if !defined(CLOCK_CFG_I2CSEL) || defined(__DOXYGEN__)
 283:d:\project\9388\e1\2023_7_27\sr5e1_l9388_freeosek\modules\platform\clock\include\sr5e1\clock.h **** #error "CLOCK_CFG_I2CSEL not defined in clock_cfg.h"
 284:d:\project\9388\e1\2023_7_27\sr5e1_l9388_freeosek\modules\platform\clock\include\sr5e1\clock.h **** #endif
 285:d:\project\9388\e1\2023_7_27\sr5e1_l9388_freeosek\modules\platform\clock\include\sr5e1\clock.h **** 
 286:d:\project\9388\e1\2023_7_27\sr5e1_l9388_freeosek\modules\platform\clock\include\sr5e1\clock.h **** #if !defined(CLOCK_CFG_SPISEL) || defined(__DOXYGEN__)
 287:d:\project\9388\e1\2023_7_27\sr5e1_l9388_freeosek\modules\platform\clock\include\sr5e1\clock.h **** #error "CLOCK_CFG_SPISEL not defined in clock_cfg.h"
 288:d:\project\9388\e1\2023_7_27\sr5e1_l9388_freeosek\modules\platform\clock\include\sr5e1\clock.h **** #endif
 289:d:\project\9388\e1\2023_7_27\sr5e1_l9388_freeosek\modules\platform\clock\include\sr5e1\clock.h **** 
 290:d:\project\9388\e1\2023_7_27\sr5e1_l9388_freeosek\modules\platform\clock\include\sr5e1\clock.h **** #if !defined(CLOCK_CFG_FDCANSEL) || defined(__DOXYGEN__)
 291:d:\project\9388\e1\2023_7_27\sr5e1_l9388_freeosek\modules\platform\clock\include\sr5e1\clock.h **** #error "CLOCK_CFG_FDCANSEL not defined in clock_cfg.h"
 292:d:\project\9388\e1\2023_7_27\sr5e1_l9388_freeosek\modules\platform\clock\include\sr5e1\clock.h **** #endif
 293:d:\project\9388\e1\2023_7_27\sr5e1_l9388_freeosek\modules\platform\clock\include\sr5e1\clock.h **** 
 294:d:\project\9388\e1\2023_7_27\sr5e1_l9388_freeosek\modules\platform\clock\include\sr5e1\clock.h **** #if !defined(CLOCK_CFG_ADCSEL) || defined(__DOXYGEN__)
 295:d:\project\9388\e1\2023_7_27\sr5e1_l9388_freeosek\modules\platform\clock\include\sr5e1\clock.h **** #error "CLOCK_CFG_ADCSEL not defined in clock_cfg.h"
 296:d:\project\9388\e1\2023_7_27\sr5e1_l9388_freeosek\modules\platform\clock\include\sr5e1\clock.h **** #endif
 297:d:\project\9388\e1\2023_7_27\sr5e1_l9388_freeosek\modules\platform\clock\include\sr5e1\clock.h **** 
 298:d:\project\9388\e1\2023_7_27\sr5e1_l9388_freeosek\modules\platform\clock\include\sr5e1\clock.h **** #if !defined(CLOCK_CFG_SDADCSEL) || defined(__DOXYGEN__)
 299:d:\project\9388\e1\2023_7_27\sr5e1_l9388_freeosek\modules\platform\clock\include\sr5e1\clock.h **** #error "CLOCK_CFG_SDADCSEL not defined in clock_cfg.h"
 300:d:\project\9388\e1\2023_7_27\sr5e1_l9388_freeosek\modules\platform\clock\include\sr5e1\clock.h **** #endif
 301:d:\project\9388\e1\2023_7_27\sr5e1_l9388_freeosek\modules\platform\clock\include\sr5e1\clock.h **** 
 302:d:\project\9388\e1\2023_7_27\sr5e1_l9388_freeosek\modules\platform\clock\include\sr5e1\clock.h **** #if !defined(CLOCK_CFG_MCOSEL) || defined(__DOXYGEN__)
 303:d:\project\9388\e1\2023_7_27\sr5e1_l9388_freeosek\modules\platform\clock\include\sr5e1\clock.h **** #error "CLOCK_CFG_MCOSEL not defined in clock_cfg.h"
 304:d:\project\9388\e1\2023_7_27\sr5e1_l9388_freeosek\modules\platform\clock\include\sr5e1\clock.h **** #endif
 305:d:\project\9388\e1\2023_7_27\sr5e1_l9388_freeosek\modules\platform\clock\include\sr5e1\clock.h **** 
 306:d:\project\9388\e1\2023_7_27\sr5e1_l9388_freeosek\modules\platform\clock\include\sr5e1\clock.h **** #if !defined(CLOCK_CFG_RTCSEL) || defined(__DOXYGEN__)
 307:d:\project\9388\e1\2023_7_27\sr5e1_l9388_freeosek\modules\platform\clock\include\sr5e1\clock.h **** #error "CLOCK_CFG_RTCSEL not defined in clock_cfg.h"
 308:d:\project\9388\e1\2023_7_27\sr5e1_l9388_freeosek\modules\platform\clock\include\sr5e1\clock.h **** #endif
 309:d:\project\9388\e1\2023_7_27\sr5e1_l9388_freeosek\modules\platform\clock\include\sr5e1\clock.h **** 
 310:d:\project\9388\e1\2023_7_27\sr5e1_l9388_freeosek\modules\platform\clock\include\sr5e1\clock.h **** #if !defined(CLOCK_CFG_UARTPRE_VALUE) || defined(__DOXYGEN__)
 311:d:\project\9388\e1\2023_7_27\sr5e1_l9388_freeosek\modules\platform\clock\include\sr5e1\clock.h **** #error "CLOCK_CFG_UARTPRE_VALUE not defined in clock_cfg.h"
 312:d:\project\9388\e1\2023_7_27\sr5e1_l9388_freeosek\modules\platform\clock\include\sr5e1\clock.h **** #endif
 313:d:\project\9388\e1\2023_7_27\sr5e1_l9388_freeosek\modules\platform\clock\include\sr5e1\clock.h **** 
 314:d:\project\9388\e1\2023_7_27\sr5e1_l9388_freeosek\modules\platform\clock\include\sr5e1\clock.h **** #if !defined(CLOCK_CFG_I2CPRE_VALUE) || defined(__DOXYGEN__)
 315:d:\project\9388\e1\2023_7_27\sr5e1_l9388_freeosek\modules\platform\clock\include\sr5e1\clock.h **** #error "CLOCK_CFG_I2CPRE_VALUE not defined in clock_cfg.h"
 316:d:\project\9388\e1\2023_7_27\sr5e1_l9388_freeosek\modules\platform\clock\include\sr5e1\clock.h **** #endif
 317:d:\project\9388\e1\2023_7_27\sr5e1_l9388_freeosek\modules\platform\clock\include\sr5e1\clock.h **** 
 318:d:\project\9388\e1\2023_7_27\sr5e1_l9388_freeosek\modules\platform\clock\include\sr5e1\clock.h **** #if !defined(CLOCK_CFG_SPIPRE_VALUE) || defined(__DOXYGEN__)
 319:d:\project\9388\e1\2023_7_27\sr5e1_l9388_freeosek\modules\platform\clock\include\sr5e1\clock.h **** #error "CLOCK_CFG_SPIPRE_VALUE not defined in clock_cfg.h"
 320:d:\project\9388\e1\2023_7_27\sr5e1_l9388_freeosek\modules\platform\clock\include\sr5e1\clock.h **** #endif
 321:d:\project\9388\e1\2023_7_27\sr5e1_l9388_freeosek\modules\platform\clock\include\sr5e1\clock.h **** 
 322:d:\project\9388\e1\2023_7_27\sr5e1_l9388_freeosek\modules\platform\clock\include\sr5e1\clock.h **** #if !defined(CLOCK_CFG_FDCANPRE_VALUE) || defined(__DOXYGEN__)
 323:d:\project\9388\e1\2023_7_27\sr5e1_l9388_freeosek\modules\platform\clock\include\sr5e1\clock.h **** #error "CLOCK_CFG_FDCANPRE_VALUE not defined in clock_cfg.h"
 324:d:\project\9388\e1\2023_7_27\sr5e1_l9388_freeosek\modules\platform\clock\include\sr5e1\clock.h **** #endif
 325:d:\project\9388\e1\2023_7_27\sr5e1_l9388_freeosek\modules\platform\clock\include\sr5e1\clock.h **** 
 326:d:\project\9388\e1\2023_7_27\sr5e1_l9388_freeosek\modules\platform\clock\include\sr5e1\clock.h **** #if !defined(CLOCK_CFG_ADCPRE_VALUE) || defined(__DOXYGEN__)
 327:d:\project\9388\e1\2023_7_27\sr5e1_l9388_freeosek\modules\platform\clock\include\sr5e1\clock.h **** #error "CLOCK_CFG_ADCPRE_VALUE not defined in clock_cfg.h"
 328:d:\project\9388\e1\2023_7_27\sr5e1_l9388_freeosek\modules\platform\clock\include\sr5e1\clock.h **** #endif
 329:d:\project\9388\e1\2023_7_27\sr5e1_l9388_freeosek\modules\platform\clock\include\sr5e1\clock.h **** 
 330:d:\project\9388\e1\2023_7_27\sr5e1_l9388_freeosek\modules\platform\clock\include\sr5e1\clock.h **** #if !defined(CLOCK_CFG_SDADCPRE_VALUE) || defined(__DOXYGEN__)
 331:d:\project\9388\e1\2023_7_27\sr5e1_l9388_freeosek\modules\platform\clock\include\sr5e1\clock.h **** #error "CLOCK_CFG_SDADCPRE_VALUE not defined in clock_cfg.h"
 332:d:\project\9388\e1\2023_7_27\sr5e1_l9388_freeosek\modules\platform\clock\include\sr5e1\clock.h **** #endif
 333:d:\project\9388\e1\2023_7_27\sr5e1_l9388_freeosek\modules\platform\clock\include\sr5e1\clock.h **** 
 334:d:\project\9388\e1\2023_7_27\sr5e1_l9388_freeosek\modules\platform\clock\include\sr5e1\clock.h **** #if !defined(CLOCK_CFG_MCOPRE_VALUE) || defined(__DOXYGEN__)
 335:d:\project\9388\e1\2023_7_27\sr5e1_l9388_freeosek\modules\platform\clock\include\sr5e1\clock.h **** #error "CLOCK_CFG_MCOPRE_VALUE not defined in clock_cfg.h"
 336:d:\project\9388\e1\2023_7_27\sr5e1_l9388_freeosek\modules\platform\clock\include\sr5e1\clock.h **** #endif
 337:d:\project\9388\e1\2023_7_27\sr5e1_l9388_freeosek\modules\platform\clock\include\sr5e1\clock.h **** 
 338:d:\project\9388\e1\2023_7_27\sr5e1_l9388_freeosek\modules\platform\clock\include\sr5e1\clock.h **** #if !defined(CLOCK_CFG_LSIPRE_VALUE) || defined(__DOXYGEN__)
 339:d:\project\9388\e1\2023_7_27\sr5e1_l9388_freeosek\modules\platform\clock\include\sr5e1\clock.h **** #error "CLOCK_CFG_LSIPRE_VALUE not defined in clock_cfg.h"
 340:d:\project\9388\e1\2023_7_27\sr5e1_l9388_freeosek\modules\platform\clock\include\sr5e1\clock.h **** #endif
 341:d:\project\9388\e1\2023_7_27\sr5e1_l9388_freeosek\modules\platform\clock\include\sr5e1\clock.h **** 
 342:d:\project\9388\e1\2023_7_27\sr5e1_l9388_freeosek\modules\platform\clock\include\sr5e1\clock.h **** /* If SPISEL = I2S_CKIN, the value of I2S clock on the CKIN pin must be
 343:d:\project\9388\e1\2023_7_27\sr5e1_l9388_freeosek\modules\platform\clock\include\sr5e1\clock.h ****    specified in the clock configuration file.*/
 344:d:\project\9388\e1\2023_7_27\sr5e1_l9388_freeosek\modules\platform\clock\include\sr5e1\clock.h **** #if (CLOCK_CFG_SPISEL == CLOCK_SPISEL_I2S_CKIN)
 345:d:\project\9388\e1\2023_7_27\sr5e1_l9388_freeosek\modules\platform\clock\include\sr5e1\clock.h **** #if !defined(CLOCK_CFG_I2S_CKIN) || defined(__DOXYGEN__)
 346:d:\project\9388\e1\2023_7_27\sr5e1_l9388_freeosek\modules\platform\clock\include\sr5e1\clock.h **** #error "CLOCK_CFG_I2S_CKIN not defined in clock_cfg.h"
 347:d:\project\9388\e1\2023_7_27\sr5e1_l9388_freeosek\modules\platform\clock\include\sr5e1\clock.h **** #endif
 348:d:\project\9388\e1\2023_7_27\sr5e1_l9388_freeosek\modules\platform\clock\include\sr5e1\clock.h **** #endif
 349:d:\project\9388\e1\2023_7_27\sr5e1_l9388_freeosek\modules\platform\clock\include\sr5e1\clock.h **** 
 350:d:\project\9388\e1\2023_7_27\sr5e1_l9388_freeosek\modules\platform\clock\include\sr5e1\clock.h **** /* Clock Limits */
 351:d:\project\9388\e1\2023_7_27\sr5e1_l9388_freeosek\modules\platform\clock\include\sr5e1\clock.h **** #define CLOCK_SYSCLK_MAX            300000000UL
 352:d:\project\9388\e1\2023_7_27\sr5e1_l9388_freeosek\modules\platform\clock\include\sr5e1\clock.h **** 
 353:d:\project\9388\e1\2023_7_27\sr5e1_l9388_freeosek\modules\platform\clock\include\sr5e1\clock.h **** #define CLOCK_XOSCCLK_MAX           40000000UL
 354:d:\project\9388\e1\2023_7_27\sr5e1_l9388_freeosek\modules\platform\clock\include\sr5e1\clock.h **** #define CLOCK_XOSCCLK_BYP_MAX       100000000UL
 355:d:\project\9388\e1\2023_7_27\sr5e1_l9388_freeosek\modules\platform\clock\include\sr5e1\clock.h **** #define CLOCK_XOSCCLK_MIN           4000000UL
 356:d:\project\9388\e1\2023_7_27\sr5e1_l9388_freeosek\modules\platform\clock\include\sr5e1\clock.h **** #define CLOCK_XOSCCLK_BYP_MIN       4000000UL
 357:d:\project\9388\e1\2023_7_27\sr5e1_l9388_freeosek\modules\platform\clock\include\sr5e1\clock.h **** 
 358:d:\project\9388\e1\2023_7_27\sr5e1_l9388_freeosek\modules\platform\clock\include\sr5e1\clock.h **** #define CLOCK_PLL0IN_MAX            56000000UL
 359:d:\project\9388\e1\2023_7_27\sr5e1_l9388_freeosek\modules\platform\clock\include\sr5e1\clock.h **** #define CLOCK_PLL0IN_MIN            8000000UL
 360:d:\project\9388\e1\2023_7_27\sr5e1_l9388_freeosek\modules\platform\clock\include\sr5e1\clock.h **** #define CLOCK_PLL0VCO_MAX           1400000000UL
 361:d:\project\9388\e1\2023_7_27\sr5e1_l9388_freeosek\modules\platform\clock\include\sr5e1\clock.h **** #define CLOCK_PLL0VCO_MIN           600000000UL
 362:d:\project\9388\e1\2023_7_27\sr5e1_l9388_freeosek\modules\platform\clock\include\sr5e1\clock.h **** #define CLOCK_PLL0PHI_MAX           700000000UL
 363:d:\project\9388\e1\2023_7_27\sr5e1_l9388_freeosek\modules\platform\clock\include\sr5e1\clock.h **** #define CLOCK_PLL0PHI_MIN           4762000UL
 364:d:\project\9388\e1\2023_7_27\sr5e1_l9388_freeosek\modules\platform\clock\include\sr5e1\clock.h **** #define CLOCK_PLL0PHI1_MAX          175000000UL
 365:d:\project\9388\e1\2023_7_27\sr5e1_l9388_freeosek\modules\platform\clock\include\sr5e1\clock.h **** #define CLOCK_PLL0PHI1_MIN          20000000UL
 366:d:\project\9388\e1\2023_7_27\sr5e1_l9388_freeosek\modules\platform\clock\include\sr5e1\clock.h **** #define CLOCK_PLL1IN_MAX            87500000UL
 367:d:\project\9388\e1\2023_7_27\sr5e1_l9388_freeosek\modules\platform\clock\include\sr5e1\clock.h **** #define CLOCK_PLL1IN_MIN            37500000UL
 368:d:\project\9388\e1\2023_7_27\sr5e1_l9388_freeosek\modules\platform\clock\include\sr5e1\clock.h **** #define CLOCK_PLL1VCO_MAX           1400000000UL
 369:d:\project\9388\e1\2023_7_27\sr5e1_l9388_freeosek\modules\platform\clock\include\sr5e1\clock.h **** #define CLOCK_PLL1VCO_MIN           600000000UL
 370:d:\project\9388\e1\2023_7_27\sr5e1_l9388_freeosek\modules\platform\clock\include\sr5e1\clock.h **** #define CLOCK_PLL1PHI_MAX           700000000UL
 371:d:\project\9388\e1\2023_7_27\sr5e1_l9388_freeosek\modules\platform\clock\include\sr5e1\clock.h **** #define CLOCK_PLL1PHI_MIN           4762000UL
 372:d:\project\9388\e1\2023_7_27\sr5e1_l9388_freeosek\modules\platform\clock\include\sr5e1\clock.h **** 
 373:d:\project\9388\e1\2023_7_27\sr5e1_l9388_freeosek\modules\platform\clock\include\sr5e1\clock.h **** #define CLOCK_UARTCLK_MAX           100000000UL
 374:d:\project\9388\e1\2023_7_27\sr5e1_l9388_freeosek\modules\platform\clock\include\sr5e1\clock.h **** #define CLOCK_I2CCLK_MAX            100000000UL
 375:d:\project\9388\e1\2023_7_27\sr5e1_l9388_freeosek\modules\platform\clock\include\sr5e1\clock.h **** #define CLOCK_SPICLK_MS_SPI1_4_MAX  50000000UL
 376:d:\project\9388\e1\2023_7_27\sr5e1_l9388_freeosek\modules\platform\clock\include\sr5e1\clock.h **** #define CLOCK_SPICLK_MS_SPI2_3_MAX  37500000UL
 377:d:\project\9388\e1\2023_7_27\sr5e1_l9388_freeosek\modules\platform\clock\include\sr5e1\clock.h **** #define CLOCK_SPICLK_SL_MAX         50000000UL
 378:d:\project\9388\e1\2023_7_27\sr5e1_l9388_freeosek\modules\platform\clock\include\sr5e1\clock.h **** #define CLOCK_I2SCLK_MAX            100000000UL
 379:d:\project\9388\e1\2023_7_27\sr5e1_l9388_freeosek\modules\platform\clock\include\sr5e1\clock.h **** #define CLOCK_FDCANCLK_MAX          80000000UL
 380:d:\project\9388\e1\2023_7_27\sr5e1_l9388_freeosek\modules\platform\clock\include\sr5e1\clock.h **** #define CLOCK_ADCCLK_MAX            37500000UL
 381:d:\project\9388\e1\2023_7_27\sr5e1_l9388_freeosek\modules\platform\clock\include\sr5e1\clock.h **** #define CLOCK_SDADCCLK_MAX          16000000UL
 382:d:\project\9388\e1\2023_7_27\sr5e1_l9388_freeosek\modules\platform\clock\include\sr5e1\clock.h **** 
 383:d:\project\9388\e1\2023_7_27\sr5e1_l9388_freeosek\modules\platform\clock\include\sr5e1\clock.h **** /*Checks on XOSC.*/
 384:d:\project\9388\e1\2023_7_27\sr5e1_l9388_freeosek\modules\platform\clock\include\sr5e1\clock.h **** #if CLOCK_CFG_XOSC_ENABLED
 385:d:\project\9388\e1\2023_7_27\sr5e1_l9388_freeosek\modules\platform\clock\include\sr5e1\clock.h **** 
 386:d:\project\9388\e1\2023_7_27\sr5e1_l9388_freeosek\modules\platform\clock\include\sr5e1\clock.h **** #if CLOCK_CFG_XOSCCLK == 0U
 387:d:\project\9388\e1\2023_7_27\sr5e1_l9388_freeosek\modules\platform\clock\include\sr5e1\clock.h **** #error "CLOCK_CFG_XOSCCLK is zero in clock_cfg.h"
 388:d:\project\9388\e1\2023_7_27\sr5e1_l9388_freeosek\modules\platform\clock\include\sr5e1\clock.h **** #else /* CLOCK_CFG_XOSCCLK != 0 */
 389:d:\project\9388\e1\2023_7_27\sr5e1_l9388_freeosek\modules\platform\clock\include\sr5e1\clock.h **** #if CLOCK_CFG_XOSC_BYPASS
 390:d:\project\9388\e1\2023_7_27\sr5e1_l9388_freeosek\modules\platform\clock\include\sr5e1\clock.h **** 
 391:d:\project\9388\e1\2023_7_27\sr5e1_l9388_freeosek\modules\platform\clock\include\sr5e1\clock.h **** #if (CLOCK_CFG_XOSCCLK < CLOCK_XOSCCLK_BYP_MIN) ||                          \
 392:d:\project\9388\e1\2023_7_27\sr5e1_l9388_freeosek\modules\platform\clock\include\sr5e1\clock.h ****     (CLOCK_CFG_XOSCCLK > CLOCK_XOSCCLK_BYP_MAX)
 393:d:\project\9388\e1\2023_7_27\sr5e1_l9388_freeosek\modules\platform\clock\include\sr5e1\clock.h **** #error "out of limits  CLOCK_XOSCCLK value"
 394:d:\project\9388\e1\2023_7_27\sr5e1_l9388_freeosek\modules\platform\clock\include\sr5e1\clock.h **** #endif
 395:d:\project\9388\e1\2023_7_27\sr5e1_l9388_freeosek\modules\platform\clock\include\sr5e1\clock.h **** 
 396:d:\project\9388\e1\2023_7_27\sr5e1_l9388_freeosek\modules\platform\clock\include\sr5e1\clock.h **** #else /* !CLOCK_CFG_XOSC_BYPASS */
 397:d:\project\9388\e1\2023_7_27\sr5e1_l9388_freeosek\modules\platform\clock\include\sr5e1\clock.h **** 
 398:d:\project\9388\e1\2023_7_27\sr5e1_l9388_freeosek\modules\platform\clock\include\sr5e1\clock.h **** #if (CLOCK_CFG_XOSCCLK < CLOCK_XOSCCLK_MIN) ||                              \
 399:d:\project\9388\e1\2023_7_27\sr5e1_l9388_freeosek\modules\platform\clock\include\sr5e1\clock.h ****     (CLOCK_CFG_XOSCCLK > CLOCK_XOSCCLK_MAX)
 400:d:\project\9388\e1\2023_7_27\sr5e1_l9388_freeosek\modules\platform\clock\include\sr5e1\clock.h **** #error "out of limits  CLOCK_XOSCCLK value"
 401:d:\project\9388\e1\2023_7_27\sr5e1_l9388_freeosek\modules\platform\clock\include\sr5e1\clock.h **** #endif
 402:d:\project\9388\e1\2023_7_27\sr5e1_l9388_freeosek\modules\platform\clock\include\sr5e1\clock.h **** 
 403:d:\project\9388\e1\2023_7_27\sr5e1_l9388_freeosek\modules\platform\clock\include\sr5e1\clock.h **** #endif /* !CLOCK_CFG_XOSC_BYPASS */
 404:d:\project\9388\e1\2023_7_27\sr5e1_l9388_freeosek\modules\platform\clock\include\sr5e1\clock.h **** #endif /* CLOCK_CFG_XOSCCLK != 0 */
 405:d:\project\9388\e1\2023_7_27\sr5e1_l9388_freeosek\modules\platform\clock\include\sr5e1\clock.h **** 
 406:d:\project\9388\e1\2023_7_27\sr5e1_l9388_freeosek\modules\platform\clock\include\sr5e1\clock.h **** #else /* !CLOCK_CFG_XOSC_ENABLED */
 407:d:\project\9388\e1\2023_7_27\sr5e1_l9388_freeosek\modules\platform\clock\include\sr5e1\clock.h **** 
 408:d:\project\9388\e1\2023_7_27\sr5e1_l9388_freeosek\modules\platform\clock\include\sr5e1\clock.h **** #if CLOCK_CFG_SW == CLOCK_SW_XOSC
 409:d:\project\9388\e1\2023_7_27\sr5e1_l9388_freeosek\modules\platform\clock\include\sr5e1\clock.h **** #error "CLOCK_SW requires XOSC"
 410:d:\project\9388\e1\2023_7_27\sr5e1_l9388_freeosek\modules\platform\clock\include\sr5e1\clock.h **** #endif
 411:d:\project\9388\e1\2023_7_27\sr5e1_l9388_freeosek\modules\platform\clock\include\sr5e1\clock.h **** 
 412:d:\project\9388\e1\2023_7_27\sr5e1_l9388_freeosek\modules\platform\clock\include\sr5e1\clock.h **** #if (CLOCK_CFG_SW == CLOCK_SW_PLL0PHI) &&                                   \
 413:d:\project\9388\e1\2023_7_27\sr5e1_l9388_freeosek\modules\platform\clock\include\sr5e1\clock.h ****     (CLOCK_CFG_PLL0SRC == CLOCK_PLL0SRC_XOSC)
 414:d:\project\9388\e1\2023_7_27\sr5e1_l9388_freeosek\modules\platform\clock\include\sr5e1\clock.h **** #error "CLOCK_CFG_SW or CLOCK_CFG_PLL0SRC require XOSC"
 415:d:\project\9388\e1\2023_7_27\sr5e1_l9388_freeosek\modules\platform\clock\include\sr5e1\clock.h **** #endif
 416:d:\project\9388\e1\2023_7_27\sr5e1_l9388_freeosek\modules\platform\clock\include\sr5e1\clock.h **** 
 417:d:\project\9388\e1\2023_7_27\sr5e1_l9388_freeosek\modules\platform\clock\include\sr5e1\clock.h **** #if (CLOCK_CFG_SW == CLOCK_SW_PLL1PHI) &&                                   \
 418:d:\project\9388\e1\2023_7_27\sr5e1_l9388_freeosek\modules\platform\clock\include\sr5e1\clock.h ****     (CLOCK_CFG_PLL1SRC == CLOCK_PLL1SRC_XOSC)
 419:d:\project\9388\e1\2023_7_27\sr5e1_l9388_freeosek\modules\platform\clock\include\sr5e1\clock.h **** #error "CLOCK_CFG_SW or CLOCK_CFG_PLL1SRC require XOSC"
 420:d:\project\9388\e1\2023_7_27\sr5e1_l9388_freeosek\modules\platform\clock\include\sr5e1\clock.h **** #endif
 421:d:\project\9388\e1\2023_7_27\sr5e1_l9388_freeosek\modules\platform\clock\include\sr5e1\clock.h **** 
 422:d:\project\9388\e1\2023_7_27\sr5e1_l9388_freeosek\modules\platform\clock\include\sr5e1\clock.h **** #if (CLOCK_CFG_SW == CLOCK_SW_PLL1PHI) &&                                   \
 423:d:\project\9388\e1\2023_7_27\sr5e1_l9388_freeosek\modules\platform\clock\include\sr5e1\clock.h ****     (CLOCK_CFG_PLL1SRC == CLOCK_PLL1SRC_PLL0PHI1) &&                        \
 424:d:\project\9388\e1\2023_7_27\sr5e1_l9388_freeosek\modules\platform\clock\include\sr5e1\clock.h ****     (CLOCK_CFG_PLL0SRC == CLOCK_PLL0SRC_XOSC)
 425:d:\project\9388\e1\2023_7_27\sr5e1_l9388_freeosek\modules\platform\clock\include\sr5e1\clock.h **** #error "CLOCK_CFG_SW or CLOCK_CFG_PLL1SRC require XOSC"
 426:d:\project\9388\e1\2023_7_27\sr5e1_l9388_freeosek\modules\platform\clock\include\sr5e1\clock.h **** #endif
 427:d:\project\9388\e1\2023_7_27\sr5e1_l9388_freeosek\modules\platform\clock\include\sr5e1\clock.h **** 
 428:d:\project\9388\e1\2023_7_27\sr5e1_l9388_freeosek\modules\platform\clock\include\sr5e1\clock.h **** #if (CLOCK_CFG_MCOSEL == CLOCK_MCOSEL_XOSC) ||                              \
 429:d:\project\9388\e1\2023_7_27\sr5e1_l9388_freeosek\modules\platform\clock\include\sr5e1\clock.h ****     ((CLOCK_CFG_MCOSEL == CLOCK_MCOSEL_PLL0PHI) &&                          \
 430:d:\project\9388\e1\2023_7_27\sr5e1_l9388_freeosek\modules\platform\clock\include\sr5e1\clock.h ****      (CLOCK_CFG_PLL0SRC == CLOCK_PLL0SRC_XOSC)) ||                          \
 431:d:\project\9388\e1\2023_7_27\sr5e1_l9388_freeosek\modules\platform\clock\include\sr5e1\clock.h ****     ((CLOCK_CFG_MCOSEL == CLOCK_MCOSEL_PLL1PHI) &&                          \
 432:d:\project\9388\e1\2023_7_27\sr5e1_l9388_freeosek\modules\platform\clock\include\sr5e1\clock.h ****      (CLOCK_CFG_PLL1SRC == CLOCK_PLL1SRC_XOSC)) 
 433:d:\project\9388\e1\2023_7_27\sr5e1_l9388_freeosek\modules\platform\clock\include\sr5e1\clock.h **** #error "CLOCK_CFG_MCOSEL requires XOSC"
 434:d:\project\9388\e1\2023_7_27\sr5e1_l9388_freeosek\modules\platform\clock\include\sr5e1\clock.h **** #endif
 435:d:\project\9388\e1\2023_7_27\sr5e1_l9388_freeosek\modules\platform\clock\include\sr5e1\clock.h **** 
 436:d:\project\9388\e1\2023_7_27\sr5e1_l9388_freeosek\modules\platform\clock\include\sr5e1\clock.h **** #if (CLOCK_CFG_UARTSEL == CLOCK_UARTSEL_XOSC) ||                            \
 437:d:\project\9388\e1\2023_7_27\sr5e1_l9388_freeosek\modules\platform\clock\include\sr5e1\clock.h ****     ((CLOCK_CFG_UARTSEL == CLOCK_UARTSEL_PLL0PHI) &&                        \
 438:d:\project\9388\e1\2023_7_27\sr5e1_l9388_freeosek\modules\platform\clock\include\sr5e1\clock.h ****      (CLOCK_CFG_PLL0SRC == CLOCK_PLL0SRC_XOSC))
 439:d:\project\9388\e1\2023_7_27\sr5e1_l9388_freeosek\modules\platform\clock\include\sr5e1\clock.h **** #error "CLOCK_CFG_UARTSEL requires XOSC"
 440:d:\project\9388\e1\2023_7_27\sr5e1_l9388_freeosek\modules\platform\clock\include\sr5e1\clock.h **** #endif
 441:d:\project\9388\e1\2023_7_27\sr5e1_l9388_freeosek\modules\platform\clock\include\sr5e1\clock.h **** 
 442:d:\project\9388\e1\2023_7_27\sr5e1_l9388_freeosek\modules\platform\clock\include\sr5e1\clock.h **** #if (CLOCK_CFG_I2CSEL == CLOCK_I2CSEL_XOSC) ||                              \
 443:d:\project\9388\e1\2023_7_27\sr5e1_l9388_freeosek\modules\platform\clock\include\sr5e1\clock.h ****     ((CLOCK_CFG_I2CSEL == CLOCK_I2CSEL_PLL0PHI) &&                          \
 444:d:\project\9388\e1\2023_7_27\sr5e1_l9388_freeosek\modules\platform\clock\include\sr5e1\clock.h ****      (CLOCK_CFG_PLL0SRC == CLOCK_PLL0SRC_XOSC))
 445:d:\project\9388\e1\2023_7_27\sr5e1_l9388_freeosek\modules\platform\clock\include\sr5e1\clock.h **** #error "CLOCK_CFG_I2CSEL requires XOSC"
 446:d:\project\9388\e1\2023_7_27\sr5e1_l9388_freeosek\modules\platform\clock\include\sr5e1\clock.h **** #endif
 447:d:\project\9388\e1\2023_7_27\sr5e1_l9388_freeosek\modules\platform\clock\include\sr5e1\clock.h **** 
 448:d:\project\9388\e1\2023_7_27\sr5e1_l9388_freeosek\modules\platform\clock\include\sr5e1\clock.h **** #if (CLOCK_CFG_SPISEL == CLOCK_SPISEL_XOSC) ||                              \
 449:d:\project\9388\e1\2023_7_27\sr5e1_l9388_freeosek\modules\platform\clock\include\sr5e1\clock.h ****     ((CLOCK_CFG_SPISEL == CLOCK_SPISEL_PLL0PHI) &&                          \
 450:d:\project\9388\e1\2023_7_27\sr5e1_l9388_freeosek\modules\platform\clock\include\sr5e1\clock.h ****      (CLOCK_CFG_PLL0SRC == CLOCK_PLL0SRC_XOSC))
 451:d:\project\9388\e1\2023_7_27\sr5e1_l9388_freeosek\modules\platform\clock\include\sr5e1\clock.h **** #error "CLOCK_CFG_SPISEL requires XOSC"
 452:d:\project\9388\e1\2023_7_27\sr5e1_l9388_freeosek\modules\platform\clock\include\sr5e1\clock.h **** #endif
 453:d:\project\9388\e1\2023_7_27\sr5e1_l9388_freeosek\modules\platform\clock\include\sr5e1\clock.h **** 
 454:d:\project\9388\e1\2023_7_27\sr5e1_l9388_freeosek\modules\platform\clock\include\sr5e1\clock.h **** #if (CLOCK_CFG_FDCANSEL == CLOCK_FDCANSEL_XOSC) ||                          \
 455:d:\project\9388\e1\2023_7_27\sr5e1_l9388_freeosek\modules\platform\clock\include\sr5e1\clock.h ****     ((CLOCK_CFG_FDCANSEL == CLOCK_FDCANSEL_PLL0PHI) &&                      \
 456:d:\project\9388\e1\2023_7_27\sr5e1_l9388_freeosek\modules\platform\clock\include\sr5e1\clock.h ****      (CLOCK_CFG_PLL0SRC == CLOCK_PLL0SRC_XOSC))
 457:d:\project\9388\e1\2023_7_27\sr5e1_l9388_freeosek\modules\platform\clock\include\sr5e1\clock.h **** #error "CLOCK_CFG_FDCANSEL requires XOSC"
 458:d:\project\9388\e1\2023_7_27\sr5e1_l9388_freeosek\modules\platform\clock\include\sr5e1\clock.h **** #endif
 459:d:\project\9388\e1\2023_7_27\sr5e1_l9388_freeosek\modules\platform\clock\include\sr5e1\clock.h **** 
 460:d:\project\9388\e1\2023_7_27\sr5e1_l9388_freeosek\modules\platform\clock\include\sr5e1\clock.h **** #if (CLOCK_CFG_ADCSEL == CLOCK_ADCSEL_XOSC) ||                              \
 461:d:\project\9388\e1\2023_7_27\sr5e1_l9388_freeosek\modules\platform\clock\include\sr5e1\clock.h ****     ((CLOCK_CFG_ADCSEL == CLOCK_ADCSEL_PLL0PHI) &&                          \
 462:d:\project\9388\e1\2023_7_27\sr5e1_l9388_freeosek\modules\platform\clock\include\sr5e1\clock.h ****      (CLOCK_CFG_PLL0SRC == CLOCK_PLL0SRC_XOSC)) ||                          \
 463:d:\project\9388\e1\2023_7_27\sr5e1_l9388_freeosek\modules\platform\clock\include\sr5e1\clock.h ****     ((CLOCK_CFG_ADCSEL == CLOCK_ADCSEL_PLL1PHI) &&                          \
 464:d:\project\9388\e1\2023_7_27\sr5e1_l9388_freeosek\modules\platform\clock\include\sr5e1\clock.h ****      (CLOCK_CFG_PLL1SRC == CLOCK_PLL1SRC_XOSC)) 
 465:d:\project\9388\e1\2023_7_27\sr5e1_l9388_freeosek\modules\platform\clock\include\sr5e1\clock.h **** #error "CLOCK_CFG_ADCSEL requires XOSC"
 466:d:\project\9388\e1\2023_7_27\sr5e1_l9388_freeosek\modules\platform\clock\include\sr5e1\clock.h **** #endif
 467:d:\project\9388\e1\2023_7_27\sr5e1_l9388_freeosek\modules\platform\clock\include\sr5e1\clock.h **** 
 468:d:\project\9388\e1\2023_7_27\sr5e1_l9388_freeosek\modules\platform\clock\include\sr5e1\clock.h **** #if (CLOCK_CFG_SDADCSEL == CLOCK_SDADCSEL_XOSC) ||                          \
 469:d:\project\9388\e1\2023_7_27\sr5e1_l9388_freeosek\modules\platform\clock\include\sr5e1\clock.h ****     ((CLOCK_CFG_SDADCSEL == CLOCK_SDADCSEL_PLL0PHI) &&                      \
 470:d:\project\9388\e1\2023_7_27\sr5e1_l9388_freeosek\modules\platform\clock\include\sr5e1\clock.h ****      (CLOCK_CFG_PLL0SRC == CLOCK_PLL0SRC_XOSC)) ||                          \
 471:d:\project\9388\e1\2023_7_27\sr5e1_l9388_freeosek\modules\platform\clock\include\sr5e1\clock.h ****     ((CLOCK_CFG_SDADCSEL == CLOCK_SDADCSEL_PLL1PHI) &&                      \
 472:d:\project\9388\e1\2023_7_27\sr5e1_l9388_freeosek\modules\platform\clock\include\sr5e1\clock.h ****      (CLOCK_CFG_PLL1SRC == CLOCK_PLL1SRC_XOSC)) 
 473:d:\project\9388\e1\2023_7_27\sr5e1_l9388_freeosek\modules\platform\clock\include\sr5e1\clock.h **** #error "CLOCK_CFG_SDADCSEL requires XOSC"
 474:d:\project\9388\e1\2023_7_27\sr5e1_l9388_freeosek\modules\platform\clock\include\sr5e1\clock.h **** #endif
 475:d:\project\9388\e1\2023_7_27\sr5e1_l9388_freeosek\modules\platform\clock\include\sr5e1\clock.h **** 
 476:d:\project\9388\e1\2023_7_27\sr5e1_l9388_freeosek\modules\platform\clock\include\sr5e1\clock.h **** #if CLOCK_CFG_RTCSEL == CLOCK_RTCSEL_XOSCDIV
 477:d:\project\9388\e1\2023_7_27\sr5e1_l9388_freeosek\modules\platform\clock\include\sr5e1\clock.h **** #error "CLOCK_CFG_RTCSEL requires XOSC"
 478:d:\project\9388\e1\2023_7_27\sr5e1_l9388_freeosek\modules\platform\clock\include\sr5e1\clock.h **** #endif
 479:d:\project\9388\e1\2023_7_27\sr5e1_l9388_freeosek\modules\platform\clock\include\sr5e1\clock.h **** 
 480:d:\project\9388\e1\2023_7_27\sr5e1_l9388_freeosek\modules\platform\clock\include\sr5e1\clock.h **** #endif /* CLOCK_CFG_XOSC_ENABLED */
 481:d:\project\9388\e1\2023_7_27\sr5e1_l9388_freeosek\modules\platform\clock\include\sr5e1\clock.h **** 
 482:d:\project\9388\e1\2023_7_27\sr5e1_l9388_freeosek\modules\platform\clock\include\sr5e1\clock.h **** /*
 483:d:\project\9388\e1\2023_7_27\sr5e1_l9388_freeosek\modules\platform\clock\include\sr5e1\clock.h ****  * LSI related checks.
 484:d:\project\9388\e1\2023_7_27\sr5e1_l9388_freeosek\modules\platform\clock\include\sr5e1\clock.h ****  */
 485:d:\project\9388\e1\2023_7_27\sr5e1_l9388_freeosek\modules\platform\clock\include\sr5e1\clock.h **** #if !CLOCK_CFG_LSI_ENABLED
 486:d:\project\9388\e1\2023_7_27\sr5e1_l9388_freeosek\modules\platform\clock\include\sr5e1\clock.h **** 
 487:d:\project\9388\e1\2023_7_27\sr5e1_l9388_freeosek\modules\platform\clock\include\sr5e1\clock.h **** #if CLOCK_CFG_UARTSEL == CLOCK_UARTSEL_LSI
 488:d:\project\9388\e1\2023_7_27\sr5e1_l9388_freeosek\modules\platform\clock\include\sr5e1\clock.h **** #error "CLOCK_CFG_UARTSEL requires LSI"
 489:d:\project\9388\e1\2023_7_27\sr5e1_l9388_freeosek\modules\platform\clock\include\sr5e1\clock.h **** #endif
 490:d:\project\9388\e1\2023_7_27\sr5e1_l9388_freeosek\modules\platform\clock\include\sr5e1\clock.h **** 
 491:d:\project\9388\e1\2023_7_27\sr5e1_l9388_freeosek\modules\platform\clock\include\sr5e1\clock.h **** #if CLOCK_CFG_MCOSEL == CLOCK_MCOSEL_LSI
 492:d:\project\9388\e1\2023_7_27\sr5e1_l9388_freeosek\modules\platform\clock\include\sr5e1\clock.h **** #error "CLOCK_CFG_MCOSEL requires LSI"
 493:d:\project\9388\e1\2023_7_27\sr5e1_l9388_freeosek\modules\platform\clock\include\sr5e1\clock.h **** #endif
 494:d:\project\9388\e1\2023_7_27\sr5e1_l9388_freeosek\modules\platform\clock\include\sr5e1\clock.h **** 
 495:d:\project\9388\e1\2023_7_27\sr5e1_l9388_freeosek\modules\platform\clock\include\sr5e1\clock.h **** #if CLOCK_CFG_RTCSEL == CLOCK_RTCSEL_LSI
 496:d:\project\9388\e1\2023_7_27\sr5e1_l9388_freeosek\modules\platform\clock\include\sr5e1\clock.h **** #error "CLOCK_CFG_RTCSEL requires LSI"
 497:d:\project\9388\e1\2023_7_27\sr5e1_l9388_freeosek\modules\platform\clock\include\sr5e1\clock.h **** #endif
 498:d:\project\9388\e1\2023_7_27\sr5e1_l9388_freeosek\modules\platform\clock\include\sr5e1\clock.h **** 
 499:d:\project\9388\e1\2023_7_27\sr5e1_l9388_freeosek\modules\platform\clock\include\sr5e1\clock.h **** #endif /* !CLOCK_CFG_LSI_ENABLED */
 500:d:\project\9388\e1\2023_7_27\sr5e1_l9388_freeosek\modules\platform\clock\include\sr5e1\clock.h **** 
 501:d:\project\9388\e1\2023_7_27\sr5e1_l9388_freeosek\modules\platform\clock\include\sr5e1\clock.h **** /* PLL0 enable check.*/
 502:d:\project\9388\e1\2023_7_27\sr5e1_l9388_freeosek\modules\platform\clock\include\sr5e1\clock.h **** #if (CLOCK_CFG_SW == CLOCK_SW_PLL0PHI) ||                                   \
 503:d:\project\9388\e1\2023_7_27\sr5e1_l9388_freeosek\modules\platform\clock\include\sr5e1\clock.h ****     (CLOCK_CFG_PLL1SRC == CLOCK_PLL1SRC_PLL0PHI1) ||                        \
 504:d:\project\9388\e1\2023_7_27\sr5e1_l9388_freeosek\modules\platform\clock\include\sr5e1\clock.h ****     (CLOCK_CFG_MCOSEL == CLOCK_MCOSEL_PLL0PHI) ||                           \
 505:d:\project\9388\e1\2023_7_27\sr5e1_l9388_freeosek\modules\platform\clock\include\sr5e1\clock.h ****     (CLOCK_CFG_UARTSEL == CLOCK_UARTSEL_PLL0PHI) ||                         \
 506:d:\project\9388\e1\2023_7_27\sr5e1_l9388_freeosek\modules\platform\clock\include\sr5e1\clock.h ****     (CLOCK_CFG_I2CSEL == CLOCK_I2CSEL_PLL0PHI) ||                           \
 507:d:\project\9388\e1\2023_7_27\sr5e1_l9388_freeosek\modules\platform\clock\include\sr5e1\clock.h ****     (CLOCK_CFG_SPISEL == CLOCK_SPISEL_PLL0PHI) ||                           \
 508:d:\project\9388\e1\2023_7_27\sr5e1_l9388_freeosek\modules\platform\clock\include\sr5e1\clock.h ****     (CLOCK_CFG_FDCANSEL == CLOCK_FDCANSEL_PLL0PHI) ||                       \
 509:d:\project\9388\e1\2023_7_27\sr5e1_l9388_freeosek\modules\platform\clock\include\sr5e1\clock.h ****     (CLOCK_CFG_ADCSEL == CLOCK_ADCSEL_PLL0PHI) ||                           \
 510:d:\project\9388\e1\2023_7_27\sr5e1_l9388_freeosek\modules\platform\clock\include\sr5e1\clock.h ****     (CLOCK_CFG_SDADCSEL == CLOCK_SDADCSEL_PLL0PHI)
 511:d:\project\9388\e1\2023_7_27\sr5e1_l9388_freeosek\modules\platform\clock\include\sr5e1\clock.h **** #define CLOCK_ACTIVATE_PLL0         TRUE
 512:d:\project\9388\e1\2023_7_27\sr5e1_l9388_freeosek\modules\platform\clock\include\sr5e1\clock.h **** #else
 513:d:\project\9388\e1\2023_7_27\sr5e1_l9388_freeosek\modules\platform\clock\include\sr5e1\clock.h **** #define CLOCK_ACTIVATE_PLL0         FALSE
 514:d:\project\9388\e1\2023_7_27\sr5e1_l9388_freeosek\modules\platform\clock\include\sr5e1\clock.h **** #endif
 515:d:\project\9388\e1\2023_7_27\sr5e1_l9388_freeosek\modules\platform\clock\include\sr5e1\clock.h **** 
 516:d:\project\9388\e1\2023_7_27\sr5e1_l9388_freeosek\modules\platform\clock\include\sr5e1\clock.h **** /* PLL0 fields.*/
 517:d:\project\9388\e1\2023_7_27\sr5e1_l9388_freeosek\modules\platform\clock\include\sr5e1\clock.h **** #if !((CLOCK_CFG_PLL0MFD_VALUE >= 8U) && (CLOCK_CFG_PLL0MFD_VALUE <= 127U))
 518:d:\project\9388\e1\2023_7_27\sr5e1_l9388_freeosek\modules\platform\clock\include\sr5e1\clock.h **** #error "invalid CLOCK_CFG_PLL0MFD_VALUE value in clock_cfg.h"
 519:d:\project\9388\e1\2023_7_27\sr5e1_l9388_freeosek\modules\platform\clock\include\sr5e1\clock.h **** #endif
 520:d:\project\9388\e1\2023_7_27\sr5e1_l9388_freeosek\modules\platform\clock\include\sr5e1\clock.h **** 
 521:d:\project\9388\e1\2023_7_27\sr5e1_l9388_freeosek\modules\platform\clock\include\sr5e1\clock.h **** #if !((CLOCK_CFG_PLL0PREDIV_VALUE >= 0U) && (CLOCK_CFG_PLL0PREDIV_VALUE <= 7U))
 522:d:\project\9388\e1\2023_7_27\sr5e1_l9388_freeosek\modules\platform\clock\include\sr5e1\clock.h **** #error "invalid CLOCK_CFG_PLL0PREDIV_VALUE value in clock_cfg.h"
 523:d:\project\9388\e1\2023_7_27\sr5e1_l9388_freeosek\modules\platform\clock\include\sr5e1\clock.h **** #endif
 524:d:\project\9388\e1\2023_7_27\sr5e1_l9388_freeosek\modules\platform\clock\include\sr5e1\clock.h **** 
 525:d:\project\9388\e1\2023_7_27\sr5e1_l9388_freeosek\modules\platform\clock\include\sr5e1\clock.h **** #if !((CLOCK_CFG_PLL0RFDPHI_VALUE >= 1U) && (CLOCK_CFG_PLL0RFDPHI_VALUE <= 63U))
 526:d:\project\9388\e1\2023_7_27\sr5e1_l9388_freeosek\modules\platform\clock\include\sr5e1\clock.h **** #error "invalid CLOCK_CFG_PLL0RFDPHI_VALUE value in clock_cfg.h"
 527:d:\project\9388\e1\2023_7_27\sr5e1_l9388_freeosek\modules\platform\clock\include\sr5e1\clock.h **** #endif
 528:d:\project\9388\e1\2023_7_27\sr5e1_l9388_freeosek\modules\platform\clock\include\sr5e1\clock.h **** 
 529:d:\project\9388\e1\2023_7_27\sr5e1_l9388_freeosek\modules\platform\clock\include\sr5e1\clock.h **** #if !((CLOCK_CFG_PLL0RFDPHI1_VALUE >= 4U) && (CLOCK_CFG_PLL0RFDPHI1_VALUE <= 15U))
 530:d:\project\9388\e1\2023_7_27\sr5e1_l9388_freeosek\modules\platform\clock\include\sr5e1\clock.h **** #error "invalid CLOCK_CFG_PLL0RFDPHI1_VALUE value in clock_cfg.h"
 531:d:\project\9388\e1\2023_7_27\sr5e1_l9388_freeosek\modules\platform\clock\include\sr5e1\clock.h **** #endif
 532:d:\project\9388\e1\2023_7_27\sr5e1_l9388_freeosek\modules\platform\clock\include\sr5e1\clock.h **** 
 533:d:\project\9388\e1\2023_7_27\sr5e1_l9388_freeosek\modules\platform\clock\include\sr5e1\clock.h **** /* PLL0 input clock.*/
 534:d:\project\9388\e1\2023_7_27\sr5e1_l9388_freeosek\modules\platform\clock\include\sr5e1\clock.h **** #if (CLOCK_CFG_PLL0SRC == CLOCK_PLL0SRC_XOSC) || defined(__DOXYGEN__)
 535:d:\project\9388\e1\2023_7_27\sr5e1_l9388_freeosek\modules\platform\clock\include\sr5e1\clock.h **** #define CLOCK_PLL0IN                CLOCK_CFG_XOSCCLK
 536:d:\project\9388\e1\2023_7_27\sr5e1_l9388_freeosek\modules\platform\clock\include\sr5e1\clock.h **** 
 537:d:\project\9388\e1\2023_7_27\sr5e1_l9388_freeosek\modules\platform\clock\include\sr5e1\clock.h **** #elif CLOCK_CFG_PLL0SRC == CLOCK_PLL0SRC_IRCOSC
 538:d:\project\9388\e1\2023_7_27\sr5e1_l9388_freeosek\modules\platform\clock\include\sr5e1\clock.h **** #define CLOCK_PLL0IN                CLOCK_IRCOSCCLK
 539:d:\project\9388\e1\2023_7_27\sr5e1_l9388_freeosek\modules\platform\clock\include\sr5e1\clock.h **** 
 540:d:\project\9388\e1\2023_7_27\sr5e1_l9388_freeosek\modules\platform\clock\include\sr5e1\clock.h **** #elif CLOCK_CFG_PLL0SRC == CLOCK_PLL0SRC_NOCLOCK
 541:d:\project\9388\e1\2023_7_27\sr5e1_l9388_freeosek\modules\platform\clock\include\sr5e1\clock.h **** #define CLOCK_PLL0IN                0U
 542:d:\project\9388\e1\2023_7_27\sr5e1_l9388_freeosek\modules\platform\clock\include\sr5e1\clock.h **** 
 543:d:\project\9388\e1\2023_7_27\sr5e1_l9388_freeosek\modules\platform\clock\include\sr5e1\clock.h **** #else
 544:d:\project\9388\e1\2023_7_27\sr5e1_l9388_freeosek\modules\platform\clock\include\sr5e1\clock.h **** #error "invalid CLOCK_CFG_PLL0SRC value in clock_cfg.h"
 545:d:\project\9388\e1\2023_7_27\sr5e1_l9388_freeosek\modules\platform\clock\include\sr5e1\clock.h **** #endif
 546:d:\project\9388\e1\2023_7_27\sr5e1_l9388_freeosek\modules\platform\clock\include\sr5e1\clock.h **** 
 547:d:\project\9388\e1\2023_7_27\sr5e1_l9388_freeosek\modules\platform\clock\include\sr5e1\clock.h **** #if (CLOCK_PLL0IN == 0U) && (CLOCK_ACTIVATE_PLL0 == TRUE)
 548:d:\project\9388\e1\2023_7_27\sr5e1_l9388_freeosek\modules\platform\clock\include\sr5e1\clock.h **** #error "no PLL input clock"
 549:d:\project\9388\e1\2023_7_27\sr5e1_l9388_freeosek\modules\platform\clock\include\sr5e1\clock.h **** #endif
 550:d:\project\9388\e1\2023_7_27\sr5e1_l9388_freeosek\modules\platform\clock\include\sr5e1\clock.h **** 
 551:d:\project\9388\e1\2023_7_27\sr5e1_l9388_freeosek\modules\platform\clock\include\sr5e1\clock.h **** #if ((CLOCK_PLL0IN != 0U) && (CLOCK_ACTIVATE_PLL0 == TRUE)) &&              \
 552:d:\project\9388\e1\2023_7_27\sr5e1_l9388_freeosek\modules\platform\clock\include\sr5e1\clock.h ****     ((CLOCK_PLL0IN < CLOCK_PLL0IN_MIN) || (CLOCK_PLL0IN > CLOCK_PLL0IN_MAX))
 553:d:\project\9388\e1\2023_7_27\sr5e1_l9388_freeosek\modules\platform\clock\include\sr5e1\clock.h **** #error "out of limits CLOCK_PLL0IN value"
 554:d:\project\9388\e1\2023_7_27\sr5e1_l9388_freeosek\modules\platform\clock\include\sr5e1\clock.h **** #endif
 555:d:\project\9388\e1\2023_7_27\sr5e1_l9388_freeosek\modules\platform\clock\include\sr5e1\clock.h **** 
 556:d:\project\9388\e1\2023_7_27\sr5e1_l9388_freeosek\modules\platform\clock\include\sr5e1\clock.h **** /* PLL0 VCO clock.*/
 557:d:\project\9388\e1\2023_7_27\sr5e1_l9388_freeosek\modules\platform\clock\include\sr5e1\clock.h **** #if (CLOCK_CFG_PLL0PREDIV_VALUE == 0U)
 558:d:\project\9388\e1\2023_7_27\sr5e1_l9388_freeosek\modules\platform\clock\include\sr5e1\clock.h **** #define CLOCK_PLL0VCO               0U
 559:d:\project\9388\e1\2023_7_27\sr5e1_l9388_freeosek\modules\platform\clock\include\sr5e1\clock.h **** #else
 560:d:\project\9388\e1\2023_7_27\sr5e1_l9388_freeosek\modules\platform\clock\include\sr5e1\clock.h **** #define CLOCK_PLL0VCO                                                       \
 561:d:\project\9388\e1\2023_7_27\sr5e1_l9388_freeosek\modules\platform\clock\include\sr5e1\clock.h ****   ((2U * CLOCK_CFG_PLL0MFD_VALUE * CLOCK_PLL0IN) / CLOCK_CFG_PLL0PREDIV_VALUE)
 562:d:\project\9388\e1\2023_7_27\sr5e1_l9388_freeosek\modules\platform\clock\include\sr5e1\clock.h **** #endif
 563:d:\project\9388\e1\2023_7_27\sr5e1_l9388_freeosek\modules\platform\clock\include\sr5e1\clock.h **** 
 564:d:\project\9388\e1\2023_7_27\sr5e1_l9388_freeosek\modules\platform\clock\include\sr5e1\clock.h **** #if (CLOCK_PLL0VCO != 0U) && (CLOCK_ACTIVATE_PLL0 == TRUE) &&               \
 565:d:\project\9388\e1\2023_7_27\sr5e1_l9388_freeosek\modules\platform\clock\include\sr5e1\clock.h ****     ((CLOCK_PLL0VCO < CLOCK_PLL0VCO_MIN) || (CLOCK_PLL0VCO > CLOCK_PLL0VCO_MAX))
 566:d:\project\9388\e1\2023_7_27\sr5e1_l9388_freeosek\modules\platform\clock\include\sr5e1\clock.h **** #error "out of limits CLOCK_PLL0VCO value"
 567:d:\project\9388\e1\2023_7_27\sr5e1_l9388_freeosek\modules\platform\clock\include\sr5e1\clock.h **** #endif
 568:d:\project\9388\e1\2023_7_27\sr5e1_l9388_freeosek\modules\platform\clock\include\sr5e1\clock.h **** 
 569:d:\project\9388\e1\2023_7_27\sr5e1_l9388_freeosek\modules\platform\clock\include\sr5e1\clock.h **** /* PLL0 output clocks.*/
 570:d:\project\9388\e1\2023_7_27\sr5e1_l9388_freeosek\modules\platform\clock\include\sr5e1\clock.h **** #define CLOCK_PLL0PHI                                                       \
 571:d:\project\9388\e1\2023_7_27\sr5e1_l9388_freeosek\modules\platform\clock\include\sr5e1\clock.h ****   ((CLOCK_PLL0VCO / CLOCK_CFG_PLL0RFDPHI_VALUE) / 2U)
 572:d:\project\9388\e1\2023_7_27\sr5e1_l9388_freeosek\modules\platform\clock\include\sr5e1\clock.h **** 
 573:d:\project\9388\e1\2023_7_27\sr5e1_l9388_freeosek\modules\platform\clock\include\sr5e1\clock.h **** #if (CLOCK_ACTIVATE_PLL0 == TRUE) &&                                        \
 574:d:\project\9388\e1\2023_7_27\sr5e1_l9388_freeosek\modules\platform\clock\include\sr5e1\clock.h ****     ((CLOCK_PLL0PHI < CLOCK_PLL0PHI_MIN) || (CLOCK_PLL0PHI > CLOCK_PLL0PHI_MAX))
 575:d:\project\9388\e1\2023_7_27\sr5e1_l9388_freeosek\modules\platform\clock\include\sr5e1\clock.h **** #error "out of limits CLOCK_PLL0PHI value"
 576:d:\project\9388\e1\2023_7_27\sr5e1_l9388_freeosek\modules\platform\clock\include\sr5e1\clock.h **** #endif
 577:d:\project\9388\e1\2023_7_27\sr5e1_l9388_freeosek\modules\platform\clock\include\sr5e1\clock.h **** 
 578:d:\project\9388\e1\2023_7_27\sr5e1_l9388_freeosek\modules\platform\clock\include\sr5e1\clock.h **** #define CLOCK_PLL0PHI1                                                      \
 579:d:\project\9388\e1\2023_7_27\sr5e1_l9388_freeosek\modules\platform\clock\include\sr5e1\clock.h ****   ((CLOCK_PLL0VCO / CLOCK_CFG_PLL0RFDPHI1_VALUE) / 2U)
 580:d:\project\9388\e1\2023_7_27\sr5e1_l9388_freeosek\modules\platform\clock\include\sr5e1\clock.h **** 
 581:d:\project\9388\e1\2023_7_27\sr5e1_l9388_freeosek\modules\platform\clock\include\sr5e1\clock.h **** #if (CLOCK_ACTIVATE_PLL0 == TRUE) &&                                        \
 582:d:\project\9388\e1\2023_7_27\sr5e1_l9388_freeosek\modules\platform\clock\include\sr5e1\clock.h ****     ((CLOCK_PLL0PHI1 < CLOCK_PLL0PHI1_MIN) || (CLOCK_PLL0PHI1 > CLOCK_PLL0PHI1_MAX))
 583:d:\project\9388\e1\2023_7_27\sr5e1_l9388_freeosek\modules\platform\clock\include\sr5e1\clock.h **** #error "out of limits CLOCK_PLL0PHI1 value"
 584:d:\project\9388\e1\2023_7_27\sr5e1_l9388_freeosek\modules\platform\clock\include\sr5e1\clock.h **** #endif
 585:d:\project\9388\e1\2023_7_27\sr5e1_l9388_freeosek\modules\platform\clock\include\sr5e1\clock.h **** 
 586:d:\project\9388\e1\2023_7_27\sr5e1_l9388_freeosek\modules\platform\clock\include\sr5e1\clock.h **** /* PLL1 enable check.*/
 587:d:\project\9388\e1\2023_7_27\sr5e1_l9388_freeosek\modules\platform\clock\include\sr5e1\clock.h **** #if (CLOCK_CFG_SW == CLOCK_SW_PLL1PHI) ||                                   \
 588:d:\project\9388\e1\2023_7_27\sr5e1_l9388_freeosek\modules\platform\clock\include\sr5e1\clock.h ****     (CLOCK_CFG_MCOSEL == CLOCK_MCOSEL_PLL1PHI) ||                           \
 589:d:\project\9388\e1\2023_7_27\sr5e1_l9388_freeosek\modules\platform\clock\include\sr5e1\clock.h ****     (CLOCK_CFG_ADCSEL == CLOCK_ADCSEL_PLL1PHI) ||                           \
 590:d:\project\9388\e1\2023_7_27\sr5e1_l9388_freeosek\modules\platform\clock\include\sr5e1\clock.h ****     (CLOCK_CFG_SDADCSEL == CLOCK_SDADCSEL_PLL1PHI)
 591:d:\project\9388\e1\2023_7_27\sr5e1_l9388_freeosek\modules\platform\clock\include\sr5e1\clock.h **** #define CLOCK_ACTIVATE_PLL1         TRUE
 592:d:\project\9388\e1\2023_7_27\sr5e1_l9388_freeosek\modules\platform\clock\include\sr5e1\clock.h **** #else
 593:d:\project\9388\e1\2023_7_27\sr5e1_l9388_freeosek\modules\platform\clock\include\sr5e1\clock.h **** #define CLOCK_ACTIVATE_PLL1         FALSE
 594:d:\project\9388\e1\2023_7_27\sr5e1_l9388_freeosek\modules\platform\clock\include\sr5e1\clock.h **** #endif
 595:d:\project\9388\e1\2023_7_27\sr5e1_l9388_freeosek\modules\platform\clock\include\sr5e1\clock.h **** 
 596:d:\project\9388\e1\2023_7_27\sr5e1_l9388_freeosek\modules\platform\clock\include\sr5e1\clock.h **** /* PLL1 fields.*/
 597:d:\project\9388\e1\2023_7_27\sr5e1_l9388_freeosek\modules\platform\clock\include\sr5e1\clock.h **** #if !((CLOCK_CFG_PLL1MFD_VALUE >= 16U) && (CLOCK_CFG_PLL1MFD_VALUE <= 34U))
 598:d:\project\9388\e1\2023_7_27\sr5e1_l9388_freeosek\modules\platform\clock\include\sr5e1\clock.h **** #error "invalid CLOCK_CFG_PLL1MFD_VALUE value in clock_cfg.h"
 599:d:\project\9388\e1\2023_7_27\sr5e1_l9388_freeosek\modules\platform\clock\include\sr5e1\clock.h **** #endif
 600:d:\project\9388\e1\2023_7_27\sr5e1_l9388_freeosek\modules\platform\clock\include\sr5e1\clock.h **** 
 601:d:\project\9388\e1\2023_7_27\sr5e1_l9388_freeosek\modules\platform\clock\include\sr5e1\clock.h **** #if !((CLOCK_CFG_PLL1RFDPHI_VALUE >= 1U) && (CLOCK_CFG_PLL1RFDPHI_VALUE <= 63U))
 602:d:\project\9388\e1\2023_7_27\sr5e1_l9388_freeosek\modules\platform\clock\include\sr5e1\clock.h **** #error "invalid CLOCK_CFG_PLL1RFDPHI_VALUE value in clock_cfg.h"
 603:d:\project\9388\e1\2023_7_27\sr5e1_l9388_freeosek\modules\platform\clock\include\sr5e1\clock.h **** #endif
 604:d:\project\9388\e1\2023_7_27\sr5e1_l9388_freeosek\modules\platform\clock\include\sr5e1\clock.h **** 
 605:d:\project\9388\e1\2023_7_27\sr5e1_l9388_freeosek\modules\platform\clock\include\sr5e1\clock.h **** /* PLL1 input clock.*/
 606:d:\project\9388\e1\2023_7_27\sr5e1_l9388_freeosek\modules\platform\clock\include\sr5e1\clock.h **** #if (CLOCK_CFG_PLL1SRC == CLOCK_PLL1SRC_PLL0PHI1) || defined(__DOXYGEN__)
 607:d:\project\9388\e1\2023_7_27\sr5e1_l9388_freeosek\modules\platform\clock\include\sr5e1\clock.h **** #define CLOCK_PLL1IN                CLOCK_PLL0PHI1
 608:d:\project\9388\e1\2023_7_27\sr5e1_l9388_freeosek\modules\platform\clock\include\sr5e1\clock.h **** 
 609:d:\project\9388\e1\2023_7_27\sr5e1_l9388_freeosek\modules\platform\clock\include\sr5e1\clock.h **** #elif CLOCK_CFG_PLL1SRC == CLOCK_PLL1SRC_XOSC
 610:d:\project\9388\e1\2023_7_27\sr5e1_l9388_freeosek\modules\platform\clock\include\sr5e1\clock.h **** #define CLOCK_PLL1IN                CLOCK_CFG_XOSCCLK
 611:d:\project\9388\e1\2023_7_27\sr5e1_l9388_freeosek\modules\platform\clock\include\sr5e1\clock.h **** 
 612:d:\project\9388\e1\2023_7_27\sr5e1_l9388_freeosek\modules\platform\clock\include\sr5e1\clock.h **** #elif CLOCK_CFG_PLL1SRC == CLOCK_PLL1SRC_NOCLOCK
 613:d:\project\9388\e1\2023_7_27\sr5e1_l9388_freeosek\modules\platform\clock\include\sr5e1\clock.h **** #define CLOCK_PLL1IN                0U
 614:d:\project\9388\e1\2023_7_27\sr5e1_l9388_freeosek\modules\platform\clock\include\sr5e1\clock.h **** 
 615:d:\project\9388\e1\2023_7_27\sr5e1_l9388_freeosek\modules\platform\clock\include\sr5e1\clock.h **** #else
 616:d:\project\9388\e1\2023_7_27\sr5e1_l9388_freeosek\modules\platform\clock\include\sr5e1\clock.h **** #error "invalid CLOCK_CFG_PLL1SRC value in clock_cfg.h"
 617:d:\project\9388\e1\2023_7_27\sr5e1_l9388_freeosek\modules\platform\clock\include\sr5e1\clock.h **** #endif
 618:d:\project\9388\e1\2023_7_27\sr5e1_l9388_freeosek\modules\platform\clock\include\sr5e1\clock.h **** 
 619:d:\project\9388\e1\2023_7_27\sr5e1_l9388_freeosek\modules\platform\clock\include\sr5e1\clock.h **** #if (CLOCK_PLL1IN == 0U && CLOCK_ACTIVATE_PLL1 == TRUE)
 620:d:\project\9388\e1\2023_7_27\sr5e1_l9388_freeosek\modules\platform\clock\include\sr5e1\clock.h **** #error "no PLL input clock"
 621:d:\project\9388\e1\2023_7_27\sr5e1_l9388_freeosek\modules\platform\clock\include\sr5e1\clock.h **** #endif
 622:d:\project\9388\e1\2023_7_27\sr5e1_l9388_freeosek\modules\platform\clock\include\sr5e1\clock.h **** 
 623:d:\project\9388\e1\2023_7_27\sr5e1_l9388_freeosek\modules\platform\clock\include\sr5e1\clock.h **** #if ((CLOCK_PLL1IN != 0U) && (CLOCK_ACTIVATE_PLL1 == TRUE)) &&              \
 624:d:\project\9388\e1\2023_7_27\sr5e1_l9388_freeosek\modules\platform\clock\include\sr5e1\clock.h ****     ((CLOCK_PLL1IN < CLOCK_PLL1IN_MIN) || (CLOCK_PLL1IN > CLOCK_PLL1IN_MAX))
 625:d:\project\9388\e1\2023_7_27\sr5e1_l9388_freeosek\modules\platform\clock\include\sr5e1\clock.h **** #error "out of limits CLOCK_PLL1IN value"
 626:d:\project\9388\e1\2023_7_27\sr5e1_l9388_freeosek\modules\platform\clock\include\sr5e1\clock.h **** #endif
 627:d:\project\9388\e1\2023_7_27\sr5e1_l9388_freeosek\modules\platform\clock\include\sr5e1\clock.h **** 
 628:d:\project\9388\e1\2023_7_27\sr5e1_l9388_freeosek\modules\platform\clock\include\sr5e1\clock.h **** /* PLL1 VCO clock.*/
 629:d:\project\9388\e1\2023_7_27\sr5e1_l9388_freeosek\modules\platform\clock\include\sr5e1\clock.h **** #define CLOCK_PLL1VCO                                                       \
 630:d:\project\9388\e1\2023_7_27\sr5e1_l9388_freeosek\modules\platform\clock\include\sr5e1\clock.h ****   (CLOCK_PLL1IN * CLOCK_CFG_PLL1MFD_VALUE)
 631:d:\project\9388\e1\2023_7_27\sr5e1_l9388_freeosek\modules\platform\clock\include\sr5e1\clock.h **** 
 632:d:\project\9388\e1\2023_7_27\sr5e1_l9388_freeosek\modules\platform\clock\include\sr5e1\clock.h **** #if (CLOCK_ACTIVATE_PLL1 == TRUE) &&                                        \
 633:d:\project\9388\e1\2023_7_27\sr5e1_l9388_freeosek\modules\platform\clock\include\sr5e1\clock.h ****     ((CLOCK_PLL1VCO < CLOCK_PLL1VCO_MIN) || (CLOCK_PLL1VCO > CLOCK_PLL1VCO_MAX))
 634:d:\project\9388\e1\2023_7_27\sr5e1_l9388_freeosek\modules\platform\clock\include\sr5e1\clock.h **** #error "out of limits CLOCK_PLL1VCO value"
 635:d:\project\9388\e1\2023_7_27\sr5e1_l9388_freeosek\modules\platform\clock\include\sr5e1\clock.h **** #endif
 636:d:\project\9388\e1\2023_7_27\sr5e1_l9388_freeosek\modules\platform\clock\include\sr5e1\clock.h **** 
 637:d:\project\9388\e1\2023_7_27\sr5e1_l9388_freeosek\modules\platform\clock\include\sr5e1\clock.h **** /* PLL1 output clock.*/
 638:d:\project\9388\e1\2023_7_27\sr5e1_l9388_freeosek\modules\platform\clock\include\sr5e1\clock.h **** #define CLOCK_PLL1PHI                                                       \
 639:d:\project\9388\e1\2023_7_27\sr5e1_l9388_freeosek\modules\platform\clock\include\sr5e1\clock.h ****   ((CLOCK_PLL1VCO / CLOCK_CFG_PLL1RFDPHI_VALUE) / 2U)
 640:d:\project\9388\e1\2023_7_27\sr5e1_l9388_freeosek\modules\platform\clock\include\sr5e1\clock.h **** 
 641:d:\project\9388\e1\2023_7_27\sr5e1_l9388_freeosek\modules\platform\clock\include\sr5e1\clock.h **** #if (CLOCK_ACTIVATE_PLL1 == TRUE) &&                                        \
 642:d:\project\9388\e1\2023_7_27\sr5e1_l9388_freeosek\modules\platform\clock\include\sr5e1\clock.h ****     ((CLOCK_PLL1PHI < CLOCK_PLL1PHI_MIN) || (CLOCK_PLL1PHI > CLOCK_PLL1PHI_MAX))
 643:d:\project\9388\e1\2023_7_27\sr5e1_l9388_freeosek\modules\platform\clock\include\sr5e1\clock.h **** #error "out of limits CLOCK_PLL1PHI value"
 644:d:\project\9388\e1\2023_7_27\sr5e1_l9388_freeosek\modules\platform\clock\include\sr5e1\clock.h **** #endif
 645:d:\project\9388\e1\2023_7_27\sr5e1_l9388_freeosek\modules\platform\clock\include\sr5e1\clock.h **** 
 646:d:\project\9388\e1\2023_7_27\sr5e1_l9388_freeosek\modules\platform\clock\include\sr5e1\clock.h **** /* SYSCLK source.*/
 647:d:\project\9388\e1\2023_7_27\sr5e1_l9388_freeosek\modules\platform\clock\include\sr5e1\clock.h **** #if (CLOCK_CFG_SW == CLOCK_SW_IRCOSC) || defined(__DOXYGEN__)
 648:d:\project\9388\e1\2023_7_27\sr5e1_l9388_freeosek\modules\platform\clock\include\sr5e1\clock.h **** #define CLOCK_SYSCLK                CLOCK_IRCOSCCLK
 649:d:\project\9388\e1\2023_7_27\sr5e1_l9388_freeosek\modules\platform\clock\include\sr5e1\clock.h **** 
 650:d:\project\9388\e1\2023_7_27\sr5e1_l9388_freeosek\modules\platform\clock\include\sr5e1\clock.h **** #elif (CLOCK_CFG_SW == CLOCK_SW_XOSC)
 651:d:\project\9388\e1\2023_7_27\sr5e1_l9388_freeosek\modules\platform\clock\include\sr5e1\clock.h **** #define CLOCK_SYSCLK                CLOCK_CFG_XOSCCLK
 652:d:\project\9388\e1\2023_7_27\sr5e1_l9388_freeosek\modules\platform\clock\include\sr5e1\clock.h **** 
 653:d:\project\9388\e1\2023_7_27\sr5e1_l9388_freeosek\modules\platform\clock\include\sr5e1\clock.h **** #elif (CLOCK_CFG_SW == CLOCK_SW_PLL0PHI)
 654:d:\project\9388\e1\2023_7_27\sr5e1_l9388_freeosek\modules\platform\clock\include\sr5e1\clock.h **** #define CLOCK_SYSCLK                CLOCK_PLL0PHI
 655:d:\project\9388\e1\2023_7_27\sr5e1_l9388_freeosek\modules\platform\clock\include\sr5e1\clock.h **** 
 656:d:\project\9388\e1\2023_7_27\sr5e1_l9388_freeosek\modules\platform\clock\include\sr5e1\clock.h **** #elif (CLOCK_CFG_SW == CLOCK_SW_PLL1PHI)
 657:d:\project\9388\e1\2023_7_27\sr5e1_l9388_freeosek\modules\platform\clock\include\sr5e1\clock.h **** #define CLOCK_SYSCLK                CLOCK_PLL1PHI
 658:d:\project\9388\e1\2023_7_27\sr5e1_l9388_freeosek\modules\platform\clock\include\sr5e1\clock.h **** 
 659:d:\project\9388\e1\2023_7_27\sr5e1_l9388_freeosek\modules\platform\clock\include\sr5e1\clock.h **** #else
 660:d:\project\9388\e1\2023_7_27\sr5e1_l9388_freeosek\modules\platform\clock\include\sr5e1\clock.h **** #error "invalid CLOCK_CFG_SW value in clock_cfg.h"
 661:d:\project\9388\e1\2023_7_27\sr5e1_l9388_freeosek\modules\platform\clock\include\sr5e1\clock.h **** #endif
 662:d:\project\9388\e1\2023_7_27\sr5e1_l9388_freeosek\modules\platform\clock\include\sr5e1\clock.h **** 
 663:d:\project\9388\e1\2023_7_27\sr5e1_l9388_freeosek\modules\platform\clock\include\sr5e1\clock.h **** /* SYSCLK check.*/
 664:d:\project\9388\e1\2023_7_27\sr5e1_l9388_freeosek\modules\platform\clock\include\sr5e1\clock.h **** #if CLOCK_SYSCLK > CLOCK_SYSCLK_MAX
 665:d:\project\9388\e1\2023_7_27\sr5e1_l9388_freeosek\modules\platform\clock\include\sr5e1\clock.h **** #error "out of limits CLOCK_SYSCLK value"
 666:d:\project\9388\e1\2023_7_27\sr5e1_l9388_freeosek\modules\platform\clock\include\sr5e1\clock.h **** #endif
 667:d:\project\9388\e1\2023_7_27\sr5e1_l9388_freeosek\modules\platform\clock\include\sr5e1\clock.h **** 
 668:d:\project\9388\e1\2023_7_27\sr5e1_l9388_freeosek\modules\platform\clock\include\sr5e1\clock.h **** /* SYSCLKDIV source.*/
 669:d:\project\9388\e1\2023_7_27\sr5e1_l9388_freeosek\modules\platform\clock\include\sr5e1\clock.h **** #if ((CLOCK_CFG_SYSPRE_VALUE >= 0U) && (CLOCK_CFG_SYSPRE_VALUE <= 511U))
 670:d:\project\9388\e1\2023_7_27\sr5e1_l9388_freeosek\modules\platform\clock\include\sr5e1\clock.h **** #define  CLOCK_SYSCLKDIV             (CLOCK_SYSCLK / (CLOCK_CFG_SYSPRE_VALUE + 1U))
 671:d:\project\9388\e1\2023_7_27\sr5e1_l9388_freeosek\modules\platform\clock\include\sr5e1\clock.h **** #else
 672:d:\project\9388\e1\2023_7_27\sr5e1_l9388_freeosek\modules\platform\clock\include\sr5e1\clock.h **** #error "invalid CLOCK_CFG_SYSPRE_VALUE value in clock_cfg.h"
 673:d:\project\9388\e1\2023_7_27\sr5e1_l9388_freeosek\modules\platform\clock\include\sr5e1\clock.h **** #endif
 674:d:\project\9388\e1\2023_7_27\sr5e1_l9388_freeosek\modules\platform\clock\include\sr5e1\clock.h **** 
 675:d:\project\9388\e1\2023_7_27\sr5e1_l9388_freeosek\modules\platform\clock\include\sr5e1\clock.h **** /* APB1 frequency.*/
 676:d:\project\9388\e1\2023_7_27\sr5e1_l9388_freeosek\modules\platform\clock\include\sr5e1\clock.h **** #define CLOCK_PCLK1                 (CLOCK_SYSCLKDIV / 4U)
 677:d:\project\9388\e1\2023_7_27\sr5e1_l9388_freeosek\modules\platform\clock\include\sr5e1\clock.h **** 
 678:d:\project\9388\e1\2023_7_27\sr5e1_l9388_freeosek\modules\platform\clock\include\sr5e1\clock.h **** /* APB2 frequency.*/
 679:d:\project\9388\e1\2023_7_27\sr5e1_l9388_freeosek\modules\platform\clock\include\sr5e1\clock.h **** #define CLOCK_PCLK2                 (CLOCK_SYSCLKDIV / 2U)
 680:d:\project\9388\e1\2023_7_27\sr5e1_l9388_freeosek\modules\platform\clock\include\sr5e1\clock.h **** 
 681:d:\project\9388\e1\2023_7_27\sr5e1_l9388_freeosek\modules\platform\clock\include\sr5e1\clock.h **** /**
 682:d:\project\9388\e1\2023_7_27\sr5e1_l9388_freeosek\modules\platform\clock\include\sr5e1\clock.h ****  * @brief   TIM clock.
 683:d:\project\9388\e1\2023_7_27\sr5e1_l9388_freeosek\modules\platform\clock\include\sr5e1\clock.h ****  */
 684:d:\project\9388\e1\2023_7_27\sr5e1_l9388_freeosek\modules\platform\clock\include\sr5e1\clock.h **** #define CLOCK_TIMCLK1               (CLOCK_PCLK2 * 2U)
 685:d:\project\9388\e1\2023_7_27\sr5e1_l9388_freeosek\modules\platform\clock\include\sr5e1\clock.h **** #define CLOCK_TIMCLK2               (CLOCK_PCLK1 * 2U)
 686:d:\project\9388\e1\2023_7_27\sr5e1_l9388_freeosek\modules\platform\clock\include\sr5e1\clock.h **** #define CLOCK_TIMCLK3               (CLOCK_PCLK1 * 2U)
 687:d:\project\9388\e1\2023_7_27\sr5e1_l9388_freeosek\modules\platform\clock\include\sr5e1\clock.h **** #define CLOCK_TIMCLK4               (CLOCK_PCLK2 * 2U)
 688:d:\project\9388\e1\2023_7_27\sr5e1_l9388_freeosek\modules\platform\clock\include\sr5e1\clock.h **** #define CLOCK_TIMCLK5               (CLOCK_PCLK2 * 2U)
 689:d:\project\9388\e1\2023_7_27\sr5e1_l9388_freeosek\modules\platform\clock\include\sr5e1\clock.h **** #define CLOCK_TIMCLK6               (CLOCK_PCLK1 * 2U)
 690:d:\project\9388\e1\2023_7_27\sr5e1_l9388_freeosek\modules\platform\clock\include\sr5e1\clock.h **** #define CLOCK_TIMCLK7               (CLOCK_PCLK1 * 2U)
 691:d:\project\9388\e1\2023_7_27\sr5e1_l9388_freeosek\modules\platform\clock\include\sr5e1\clock.h **** #define CLOCK_TIMCLK8               (CLOCK_PCLK2 * 2U)
 692:d:\project\9388\e1\2023_7_27\sr5e1_l9388_freeosek\modules\platform\clock\include\sr5e1\clock.h **** #define CLOCK_TIMCLK15              (CLOCK_PCLK2 * 2U)
 693:d:\project\9388\e1\2023_7_27\sr5e1_l9388_freeosek\modules\platform\clock\include\sr5e1\clock.h **** #define CLOCK_TIMCLK16              (CLOCK_PCLK2 * 2U)
 694:d:\project\9388\e1\2023_7_27\sr5e1_l9388_freeosek\modules\platform\clock\include\sr5e1\clock.h **** #define CLOCK_TIMTSCLK              (CLOCK_PCLK1 * 2U)
 695:d:\project\9388\e1\2023_7_27\sr5e1_l9388_freeosek\modules\platform\clock\include\sr5e1\clock.h **** 
 696:d:\project\9388\e1\2023_7_27\sr5e1_l9388_freeosek\modules\platform\clock\include\sr5e1\clock.h **** /**
 697:d:\project\9388\e1\2023_7_27\sr5e1_l9388_freeosek\modules\platform\clock\include\sr5e1\clock.h ****  * @brief   MCO divider clock frequency.
 698:d:\project\9388\e1\2023_7_27\sr5e1_l9388_freeosek\modules\platform\clock\include\sr5e1\clock.h ****  */
 699:d:\project\9388\e1\2023_7_27\sr5e1_l9388_freeosek\modules\platform\clock\include\sr5e1\clock.h **** #if (CLOCK_CFG_MCOSEL == CLOCK_MCOSEL_NOCLOCK) || defined(__DOXYGEN__)
 700:d:\project\9388\e1\2023_7_27\sr5e1_l9388_freeosek\modules\platform\clock\include\sr5e1\clock.h **** #define CLOCK_MCODIVCLK             0U
 701:d:\project\9388\e1\2023_7_27\sr5e1_l9388_freeosek\modules\platform\clock\include\sr5e1\clock.h **** 
 702:d:\project\9388\e1\2023_7_27\sr5e1_l9388_freeosek\modules\platform\clock\include\sr5e1\clock.h **** #elif CLOCK_CFG_MCOSEL == CLOCK_MCOSEL_LSI
 703:d:\project\9388\e1\2023_7_27\sr5e1_l9388_freeosek\modules\platform\clock\include\sr5e1\clock.h **** #define CLOCK_MCODIVCLK             CLOCK_LSICLK
 704:d:\project\9388\e1\2023_7_27\sr5e1_l9388_freeosek\modules\platform\clock\include\sr5e1\clock.h **** 
 705:d:\project\9388\e1\2023_7_27\sr5e1_l9388_freeosek\modules\platform\clock\include\sr5e1\clock.h **** #elif CLOCK_CFG_MCOSEL == CLOCK_MCOSEL_IRCOSC
 706:d:\project\9388\e1\2023_7_27\sr5e1_l9388_freeosek\modules\platform\clock\include\sr5e1\clock.h **** #define CLOCK_MCODIVCLK             CLOCK_IRCOSCCLK
 707:d:\project\9388\e1\2023_7_27\sr5e1_l9388_freeosek\modules\platform\clock\include\sr5e1\clock.h **** 
 708:d:\project\9388\e1\2023_7_27\sr5e1_l9388_freeosek\modules\platform\clock\include\sr5e1\clock.h **** #elif CLOCK_CFG_MCOSEL == CLOCK_MCOSEL_XOSC
 709:d:\project\9388\e1\2023_7_27\sr5e1_l9388_freeosek\modules\platform\clock\include\sr5e1\clock.h **** #define CLOCK_MCODIVCLK             CLOCK_CFG_XOSCCLK
 710:d:\project\9388\e1\2023_7_27\sr5e1_l9388_freeosek\modules\platform\clock\include\sr5e1\clock.h **** 
 711:d:\project\9388\e1\2023_7_27\sr5e1_l9388_freeosek\modules\platform\clock\include\sr5e1\clock.h **** #elif CLOCK_CFG_MCOSEL == CLOCK_MCOSEL_PLL0PHI
 712:d:\project\9388\e1\2023_7_27\sr5e1_l9388_freeosek\modules\platform\clock\include\sr5e1\clock.h **** #define CLOCK_MCODIVCLK             CLOCK_PLL0PHI
 713:d:\project\9388\e1\2023_7_27\sr5e1_l9388_freeosek\modules\platform\clock\include\sr5e1\clock.h **** 
 714:d:\project\9388\e1\2023_7_27\sr5e1_l9388_freeosek\modules\platform\clock\include\sr5e1\clock.h **** #elif CLOCK_CFG_MCOSEL == CLOCK_MCOSEL_PLL1PHI
 715:d:\project\9388\e1\2023_7_27\sr5e1_l9388_freeosek\modules\platform\clock\include\sr5e1\clock.h **** #define CLOCK_MCODIVCLK             CLOCK_PLL1PHI
 716:d:\project\9388\e1\2023_7_27\sr5e1_l9388_freeosek\modules\platform\clock\include\sr5e1\clock.h **** 
 717:d:\project\9388\e1\2023_7_27\sr5e1_l9388_freeosek\modules\platform\clock\include\sr5e1\clock.h **** #else
 718:d:\project\9388\e1\2023_7_27\sr5e1_l9388_freeosek\modules\platform\clock\include\sr5e1\clock.h **** #error "invalid CLOCK_CFG_MCOSEL value in clock_cfg.h"
 719:d:\project\9388\e1\2023_7_27\sr5e1_l9388_freeosek\modules\platform\clock\include\sr5e1\clock.h **** #endif
 720:d:\project\9388\e1\2023_7_27\sr5e1_l9388_freeosek\modules\platform\clock\include\sr5e1\clock.h **** 
 721:d:\project\9388\e1\2023_7_27\sr5e1_l9388_freeosek\modules\platform\clock\include\sr5e1\clock.h **** /**
 722:d:\project\9388\e1\2023_7_27\sr5e1_l9388_freeosek\modules\platform\clock\include\sr5e1\clock.h ****  * @brief   MCO output pin clock frequency.
 723:d:\project\9388\e1\2023_7_27\sr5e1_l9388_freeosek\modules\platform\clock\include\sr5e1\clock.h ****  */
 724:d:\project\9388\e1\2023_7_27\sr5e1_l9388_freeosek\modules\platform\clock\include\sr5e1\clock.h **** #if (CLOCK_CFG_MCOPRE_VALUE == 0U)
 725:d:\project\9388\e1\2023_7_27\sr5e1_l9388_freeosek\modules\platform\clock\include\sr5e1\clock.h **** #define CLOCK_MCOCLK                CLOCK_MCODIVCLK
 726:d:\project\9388\e1\2023_7_27\sr5e1_l9388_freeosek\modules\platform\clock\include\sr5e1\clock.h **** #elif ((CLOCK_CFG_MCOPRE_VALUE > 0U) && (CLOCK_CFG_MCOPRE_VALUE <= 63U))
 727:d:\project\9388\e1\2023_7_27\sr5e1_l9388_freeosek\modules\platform\clock\include\sr5e1\clock.h **** #define CLOCK_MCOCLK                (CLOCK_MCODIVCLK / (2U * CLOCK_CFG_MCOPRE_VALUE))
 728:d:\project\9388\e1\2023_7_27\sr5e1_l9388_freeosek\modules\platform\clock\include\sr5e1\clock.h **** #else
 729:d:\project\9388\e1\2023_7_27\sr5e1_l9388_freeosek\modules\platform\clock\include\sr5e1\clock.h **** #error "invalid CLOCK_CFG_MCOPRE_VALUE value in clock_cfg.h"
 730:d:\project\9388\e1\2023_7_27\sr5e1_l9388_freeosek\modules\platform\clock\include\sr5e1\clock.h **** #endif
 731:d:\project\9388\e1\2023_7_27\sr5e1_l9388_freeosek\modules\platform\clock\include\sr5e1\clock.h **** 
 732:d:\project\9388\e1\2023_7_27\sr5e1_l9388_freeosek\modules\platform\clock\include\sr5e1\clock.h **** /**
 733:d:\project\9388\e1\2023_7_27\sr5e1_l9388_freeosek\modules\platform\clock\include\sr5e1\clock.h ****  * @brief   RTC clock.
 734:d:\project\9388\e1\2023_7_27\sr5e1_l9388_freeosek\modules\platform\clock\include\sr5e1\clock.h ****  */
 735:d:\project\9388\e1\2023_7_27\sr5e1_l9388_freeosek\modules\platform\clock\include\sr5e1\clock.h **** #if (CLOCK_CFG_LSIPRE_VALUE == 0U)
 736:d:\project\9388\e1\2023_7_27\sr5e1_l9388_freeosek\modules\platform\clock\include\sr5e1\clock.h **** #define CLOCK_LSIDIVCLK             CLOCK_LSICLK
 737:d:\project\9388\e1\2023_7_27\sr5e1_l9388_freeosek\modules\platform\clock\include\sr5e1\clock.h **** #elif ((CLOCK_CFG_LSIPRE_VALUE > 0U) && (CLOCK_CFG_LSIPRE_VALUE <= 31U))
 738:d:\project\9388\e1\2023_7_27\sr5e1_l9388_freeosek\modules\platform\clock\include\sr5e1\clock.h **** #define CLOCK_LSIDIVCLK             (CLOCK_LSICLK / (2U * CLOCK_CFG_LSIPRE_VALUE))
 739:d:\project\9388\e1\2023_7_27\sr5e1_l9388_freeosek\modules\platform\clock\include\sr5e1\clock.h **** #else
 740:d:\project\9388\e1\2023_7_27\sr5e1_l9388_freeosek\modules\platform\clock\include\sr5e1\clock.h **** #error "invalid CLOCK_CFG_LSIPRE_VALUE value in clock_cfg.h"
 741:d:\project\9388\e1\2023_7_27\sr5e1_l9388_freeosek\modules\platform\clock\include\sr5e1\clock.h **** #endif
 742:d:\project\9388\e1\2023_7_27\sr5e1_l9388_freeosek\modules\platform\clock\include\sr5e1\clock.h **** 
 743:d:\project\9388\e1\2023_7_27\sr5e1_l9388_freeosek\modules\platform\clock\include\sr5e1\clock.h **** #if (CLOCK_CFG_RTCSEL == CLOCK_RTCSEL_NOCLOCK) || defined(__DOXYGEN__)
 744:d:\project\9388\e1\2023_7_27\sr5e1_l9388_freeosek\modules\platform\clock\include\sr5e1\clock.h **** #define CLOCK_RTCSELCLK             0U
 745:d:\project\9388\e1\2023_7_27\sr5e1_l9388_freeosek\modules\platform\clock\include\sr5e1\clock.h **** 
 746:d:\project\9388\e1\2023_7_27\sr5e1_l9388_freeosek\modules\platform\clock\include\sr5e1\clock.h **** #elif CLOCK_CFG_RTCSEL == CLOCK_RTCSEL_LSI
 747:d:\project\9388\e1\2023_7_27\sr5e1_l9388_freeosek\modules\platform\clock\include\sr5e1\clock.h **** #define CLOCK_RTCSELCLK             CLOCK_LSIDIVCLK
 748:d:\project\9388\e1\2023_7_27\sr5e1_l9388_freeosek\modules\platform\clock\include\sr5e1\clock.h **** 
 749:d:\project\9388\e1\2023_7_27\sr5e1_l9388_freeosek\modules\platform\clock\include\sr5e1\clock.h **** #elif CLOCK_CFG_RTCSEL == CLOCK_RTCSEL_XOSC
 750:d:\project\9388\e1\2023_7_27\sr5e1_l9388_freeosek\modules\platform\clock\include\sr5e1\clock.h **** #define CLOCK_RTCSELCLK             CLOCK_CFG_XOSCCLK
 751:d:\project\9388\e1\2023_7_27\sr5e1_l9388_freeosek\modules\platform\clock\include\sr5e1\clock.h **** 
 752:d:\project\9388\e1\2023_7_27\sr5e1_l9388_freeosek\modules\platform\clock\include\sr5e1\clock.h **** #else
 753:d:\project\9388\e1\2023_7_27\sr5e1_l9388_freeosek\modules\platform\clock\include\sr5e1\clock.h **** #error "invalid CLOCK_CFG_RTCSEL value in clock_cfg.h"
 754:d:\project\9388\e1\2023_7_27\sr5e1_l9388_freeosek\modules\platform\clock\include\sr5e1\clock.h **** #endif
 755:d:\project\9388\e1\2023_7_27\sr5e1_l9388_freeosek\modules\platform\clock\include\sr5e1\clock.h **** 
 756:d:\project\9388\e1\2023_7_27\sr5e1_l9388_freeosek\modules\platform\clock\include\sr5e1\clock.h **** /**
 757:d:\project\9388\e1\2023_7_27\sr5e1_l9388_freeosek\modules\platform\clock\include\sr5e1\clock.h ****  * @brief   UART clock.
 758:d:\project\9388\e1\2023_7_27\sr5e1_l9388_freeosek\modules\platform\clock\include\sr5e1\clock.h ****  */
 759:d:\project\9388\e1\2023_7_27\sr5e1_l9388_freeosek\modules\platform\clock\include\sr5e1\clock.h **** #if (CLOCK_CFG_UARTSEL == CLOCK_UARTSEL_NOCLOCK) || defined(__DOXYGEN__)
 760:d:\project\9388\e1\2023_7_27\sr5e1_l9388_freeosek\modules\platform\clock\include\sr5e1\clock.h **** #define CLOCK_UARTSELCLK            0U
 761:d:\project\9388\e1\2023_7_27\sr5e1_l9388_freeosek\modules\platform\clock\include\sr5e1\clock.h **** 
 762:d:\project\9388\e1\2023_7_27\sr5e1_l9388_freeosek\modules\platform\clock\include\sr5e1\clock.h **** #elif CLOCK_CFG_UARTSEL == CLOCK_UARTSEL_IRCOSC
 763:d:\project\9388\e1\2023_7_27\sr5e1_l9388_freeosek\modules\platform\clock\include\sr5e1\clock.h **** #define CLOCK_UARTSELCLK            CLOCK_IRCOSCCLK
 764:d:\project\9388\e1\2023_7_27\sr5e1_l9388_freeosek\modules\platform\clock\include\sr5e1\clock.h **** 
 765:d:\project\9388\e1\2023_7_27\sr5e1_l9388_freeosek\modules\platform\clock\include\sr5e1\clock.h **** #elif CLOCK_CFG_UARTSEL == CLOCK_UARTSEL_XOSC
 766:d:\project\9388\e1\2023_7_27\sr5e1_l9388_freeosek\modules\platform\clock\include\sr5e1\clock.h **** #define CLOCK_UARTSELCLK            CLOCK_CFG_XOSCCLK
 767:d:\project\9388\e1\2023_7_27\sr5e1_l9388_freeosek\modules\platform\clock\include\sr5e1\clock.h **** 
 768:d:\project\9388\e1\2023_7_27\sr5e1_l9388_freeosek\modules\platform\clock\include\sr5e1\clock.h **** #elif CLOCK_CFG_UARTSEL == CLOCK_UARTSEL_PLL0PHI
 769:d:\project\9388\e1\2023_7_27\sr5e1_l9388_freeosek\modules\platform\clock\include\sr5e1\clock.h **** #define CLOCK_UARTSELCLK            CLOCK_PLL0PHI
 770:d:\project\9388\e1\2023_7_27\sr5e1_l9388_freeosek\modules\platform\clock\include\sr5e1\clock.h **** 
 771:d:\project\9388\e1\2023_7_27\sr5e1_l9388_freeosek\modules\platform\clock\include\sr5e1\clock.h **** #elif CLOCK_CFG_UARTSEL == CLOCK_UARTSEL_LSI
 772:d:\project\9388\e1\2023_7_27\sr5e1_l9388_freeosek\modules\platform\clock\include\sr5e1\clock.h **** #define CLOCK_UARTSELCLK            CLOCK_LSICLK
 773:d:\project\9388\e1\2023_7_27\sr5e1_l9388_freeosek\modules\platform\clock\include\sr5e1\clock.h **** 
 774:d:\project\9388\e1\2023_7_27\sr5e1_l9388_freeosek\modules\platform\clock\include\sr5e1\clock.h **** #else
 775:d:\project\9388\e1\2023_7_27\sr5e1_l9388_freeosek\modules\platform\clock\include\sr5e1\clock.h **** #error "invalid CLOCK_CFG_UARTSEL value in clock_cfg.h"
 776:d:\project\9388\e1\2023_7_27\sr5e1_l9388_freeosek\modules\platform\clock\include\sr5e1\clock.h **** #endif
 777:d:\project\9388\e1\2023_7_27\sr5e1_l9388_freeosek\modules\platform\clock\include\sr5e1\clock.h **** 
 778:d:\project\9388\e1\2023_7_27\sr5e1_l9388_freeosek\modules\platform\clock\include\sr5e1\clock.h **** #if ((CLOCK_CFG_UARTPRE_VALUE >= 0U) && (CLOCK_CFG_UARTPRE_VALUE <= 31U))
 779:d:\project\9388\e1\2023_7_27\sr5e1_l9388_freeosek\modules\platform\clock\include\sr5e1\clock.h **** #define CLOCK_UARTCLK               (CLOCK_UARTSELCLK / (CLOCK_CFG_UARTPRE_VALUE + 1U))
 780:d:\project\9388\e1\2023_7_27\sr5e1_l9388_freeosek\modules\platform\clock\include\sr5e1\clock.h **** #else
 781:d:\project\9388\e1\2023_7_27\sr5e1_l9388_freeosek\modules\platform\clock\include\sr5e1\clock.h **** #error "invalid CLOCK_CFG_UARTPRE_VALUE value in clock_cfg.h"
 782:d:\project\9388\e1\2023_7_27\sr5e1_l9388_freeosek\modules\platform\clock\include\sr5e1\clock.h **** #endif
 783:d:\project\9388\e1\2023_7_27\sr5e1_l9388_freeosek\modules\platform\clock\include\sr5e1\clock.h **** 
 784:d:\project\9388\e1\2023_7_27\sr5e1_l9388_freeosek\modules\platform\clock\include\sr5e1\clock.h **** #if CLOCK_UARTCLK > CLOCK_UARTCLK_MAX
 785:d:\project\9388\e1\2023_7_27\sr5e1_l9388_freeosek\modules\platform\clock\include\sr5e1\clock.h **** #error "out of limits CLOCK_UARTCLK value"
 786:d:\project\9388\e1\2023_7_27\sr5e1_l9388_freeosek\modules\platform\clock\include\sr5e1\clock.h **** #endif
 787:d:\project\9388\e1\2023_7_27\sr5e1_l9388_freeosek\modules\platform\clock\include\sr5e1\clock.h **** 
 788:d:\project\9388\e1\2023_7_27\sr5e1_l9388_freeosek\modules\platform\clock\include\sr5e1\clock.h **** #define CLOCK_UART1CLK              CLOCK_UARTCLK
 789:d:\project\9388\e1\2023_7_27\sr5e1_l9388_freeosek\modules\platform\clock\include\sr5e1\clock.h **** #define CLOCK_UART2CLK              CLOCK_UARTCLK
 790:d:\project\9388\e1\2023_7_27\sr5e1_l9388_freeosek\modules\platform\clock\include\sr5e1\clock.h **** #define CLOCK_UART3CLK              CLOCK_UARTCLK
 791:d:\project\9388\e1\2023_7_27\sr5e1_l9388_freeosek\modules\platform\clock\include\sr5e1\clock.h **** 
 792:d:\project\9388\e1\2023_7_27\sr5e1_l9388_freeosek\modules\platform\clock\include\sr5e1\clock.h **** /**
 793:d:\project\9388\e1\2023_7_27\sr5e1_l9388_freeosek\modules\platform\clock\include\sr5e1\clock.h ****  * @brief   I2C clock.
 794:d:\project\9388\e1\2023_7_27\sr5e1_l9388_freeosek\modules\platform\clock\include\sr5e1\clock.h ****  */
 795:d:\project\9388\e1\2023_7_27\sr5e1_l9388_freeosek\modules\platform\clock\include\sr5e1\clock.h **** #if (CLOCK_CFG_I2CSEL == CLOCK_I2CSEL_NOCLOCK) || defined(__DOXYGEN__)
 796:d:\project\9388\e1\2023_7_27\sr5e1_l9388_freeosek\modules\platform\clock\include\sr5e1\clock.h **** #define CLOCK_I2CSELCLK             0U
 797:d:\project\9388\e1\2023_7_27\sr5e1_l9388_freeosek\modules\platform\clock\include\sr5e1\clock.h **** 
 798:d:\project\9388\e1\2023_7_27\sr5e1_l9388_freeosek\modules\platform\clock\include\sr5e1\clock.h **** #elif CLOCK_CFG_I2CSEL == CLOCK_I2CSEL_IRCOSC
 799:d:\project\9388\e1\2023_7_27\sr5e1_l9388_freeosek\modules\platform\clock\include\sr5e1\clock.h **** #define CLOCK_I2CSELCLK             CLOCK_IRCOSCCLK
 800:d:\project\9388\e1\2023_7_27\sr5e1_l9388_freeosek\modules\platform\clock\include\sr5e1\clock.h **** 
 801:d:\project\9388\e1\2023_7_27\sr5e1_l9388_freeosek\modules\platform\clock\include\sr5e1\clock.h **** #elif CLOCK_CFG_I2CSEL == CLOCK_I2CSEL_XOSC
 802:d:\project\9388\e1\2023_7_27\sr5e1_l9388_freeosek\modules\platform\clock\include\sr5e1\clock.h **** #define CLOCK_I2CSELCLK             CLOCK_CFG_XOSCCLK
 803:d:\project\9388\e1\2023_7_27\sr5e1_l9388_freeosek\modules\platform\clock\include\sr5e1\clock.h **** 
 804:d:\project\9388\e1\2023_7_27\sr5e1_l9388_freeosek\modules\platform\clock\include\sr5e1\clock.h **** #elif CLOCK_CFG_I2CSEL == CLOCK_I2CSEL_PLL0PHI
 805:d:\project\9388\e1\2023_7_27\sr5e1_l9388_freeosek\modules\platform\clock\include\sr5e1\clock.h **** #define CLOCK_I2CSELCLK             CLOCK_PLL0PHI
 806:d:\project\9388\e1\2023_7_27\sr5e1_l9388_freeosek\modules\platform\clock\include\sr5e1\clock.h **** 
 807:d:\project\9388\e1\2023_7_27\sr5e1_l9388_freeosek\modules\platform\clock\include\sr5e1\clock.h **** #else
 808:d:\project\9388\e1\2023_7_27\sr5e1_l9388_freeosek\modules\platform\clock\include\sr5e1\clock.h **** #error "invalid CLOCK_CFG_I2CSEL value in clock_cfg.h"
 809:d:\project\9388\e1\2023_7_27\sr5e1_l9388_freeosek\modules\platform\clock\include\sr5e1\clock.h **** #endif
 810:d:\project\9388\e1\2023_7_27\sr5e1_l9388_freeosek\modules\platform\clock\include\sr5e1\clock.h **** 
 811:d:\project\9388\e1\2023_7_27\sr5e1_l9388_freeosek\modules\platform\clock\include\sr5e1\clock.h **** #if ((CLOCK_CFG_I2CPRE_VALUE >= 0U) && (CLOCK_CFG_I2CPRE_VALUE <= 31U))
 812:d:\project\9388\e1\2023_7_27\sr5e1_l9388_freeosek\modules\platform\clock\include\sr5e1\clock.h **** #define CLOCK_I2CCLK                (CLOCK_I2CSELCLK / (CLOCK_CFG_I2CPRE_VALUE + 1U))
 813:d:\project\9388\e1\2023_7_27\sr5e1_l9388_freeosek\modules\platform\clock\include\sr5e1\clock.h **** #else
 814:d:\project\9388\e1\2023_7_27\sr5e1_l9388_freeosek\modules\platform\clock\include\sr5e1\clock.h **** #error "invalid CLOCK_CFG_I2CPRE_VALUE value in clock_cfg.h"
 815:d:\project\9388\e1\2023_7_27\sr5e1_l9388_freeosek\modules\platform\clock\include\sr5e1\clock.h **** #endif
 816:d:\project\9388\e1\2023_7_27\sr5e1_l9388_freeosek\modules\platform\clock\include\sr5e1\clock.h **** 
 817:d:\project\9388\e1\2023_7_27\sr5e1_l9388_freeosek\modules\platform\clock\include\sr5e1\clock.h **** #if CLOCK_I2CCLK > CLOCK_I2CCLK_MAX
 818:d:\project\9388\e1\2023_7_27\sr5e1_l9388_freeosek\modules\platform\clock\include\sr5e1\clock.h **** #error "out of limits CLOCK_I2CCLK value"
 819:d:\project\9388\e1\2023_7_27\sr5e1_l9388_freeosek\modules\platform\clock\include\sr5e1\clock.h **** #endif
 820:d:\project\9388\e1\2023_7_27\sr5e1_l9388_freeosek\modules\platform\clock\include\sr5e1\clock.h **** 
 821:d:\project\9388\e1\2023_7_27\sr5e1_l9388_freeosek\modules\platform\clock\include\sr5e1\clock.h **** /**
 822:d:\project\9388\e1\2023_7_27\sr5e1_l9388_freeosek\modules\platform\clock\include\sr5e1\clock.h ****  * @brief   SPI/I2S clock.
 823:d:\project\9388\e1\2023_7_27\sr5e1_l9388_freeosek\modules\platform\clock\include\sr5e1\clock.h ****  */
 824:d:\project\9388\e1\2023_7_27\sr5e1_l9388_freeosek\modules\platform\clock\include\sr5e1\clock.h **** #if (CLOCK_CFG_SPISEL == CLOCK_SPISEL_NOCLOCK) || defined(__DOXYGEN__)
 825:d:\project\9388\e1\2023_7_27\sr5e1_l9388_freeosek\modules\platform\clock\include\sr5e1\clock.h **** #define CLOCK_SPISELCLK             0U
 826:d:\project\9388\e1\2023_7_27\sr5e1_l9388_freeosek\modules\platform\clock\include\sr5e1\clock.h **** 
 827:d:\project\9388\e1\2023_7_27\sr5e1_l9388_freeosek\modules\platform\clock\include\sr5e1\clock.h **** #elif CLOCK_CFG_SPISEL == CLOCK_SPISEL_IRCOSC
 828:d:\project\9388\e1\2023_7_27\sr5e1_l9388_freeosek\modules\platform\clock\include\sr5e1\clock.h **** #define CLOCK_SPISELCLK             CLOCK_IRCOSCCLK
 829:d:\project\9388\e1\2023_7_27\sr5e1_l9388_freeosek\modules\platform\clock\include\sr5e1\clock.h **** 
 830:d:\project\9388\e1\2023_7_27\sr5e1_l9388_freeosek\modules\platform\clock\include\sr5e1\clock.h **** #elif CLOCK_CFG_SPISEL == CLOCK_SPISEL_XOSC
 831:d:\project\9388\e1\2023_7_27\sr5e1_l9388_freeosek\modules\platform\clock\include\sr5e1\clock.h **** #define CLOCK_SPISELCLK             CLOCK_CFG_XOSCCLK
 832:d:\project\9388\e1\2023_7_27\sr5e1_l9388_freeosek\modules\platform\clock\include\sr5e1\clock.h **** 
 833:d:\project\9388\e1\2023_7_27\sr5e1_l9388_freeosek\modules\platform\clock\include\sr5e1\clock.h **** #elif CLOCK_CFG_SPISEL == CLOCK_SPISEL_PLL0PHI
 834:d:\project\9388\e1\2023_7_27\sr5e1_l9388_freeosek\modules\platform\clock\include\sr5e1\clock.h **** #define CLOCK_SPISELCLK             CLOCK_PLL0PHI
 835:d:\project\9388\e1\2023_7_27\sr5e1_l9388_freeosek\modules\platform\clock\include\sr5e1\clock.h **** 
 836:d:\project\9388\e1\2023_7_27\sr5e1_l9388_freeosek\modules\platform\clock\include\sr5e1\clock.h **** #elif CLOCK_CFG_SPISEL == CLOCK_SPISEL_I2S_CKIN
 837:d:\project\9388\e1\2023_7_27\sr5e1_l9388_freeosek\modules\platform\clock\include\sr5e1\clock.h **** #define CLOCK_SPISELCLK             CLOCK_CFG_I2S_CKIN
 838:d:\project\9388\e1\2023_7_27\sr5e1_l9388_freeosek\modules\platform\clock\include\sr5e1\clock.h **** 
 839:d:\project\9388\e1\2023_7_27\sr5e1_l9388_freeosek\modules\platform\clock\include\sr5e1\clock.h **** #else
 840:d:\project\9388\e1\2023_7_27\sr5e1_l9388_freeosek\modules\platform\clock\include\sr5e1\clock.h **** #error "invalid CLOCK_CFG_SPISEL value in clock_cfg.h"
 841:d:\project\9388\e1\2023_7_27\sr5e1_l9388_freeosek\modules\platform\clock\include\sr5e1\clock.h **** #endif
 842:d:\project\9388\e1\2023_7_27\sr5e1_l9388_freeosek\modules\platform\clock\include\sr5e1\clock.h **** 
 843:d:\project\9388\e1\2023_7_27\sr5e1_l9388_freeosek\modules\platform\clock\include\sr5e1\clock.h **** #if ((CLOCK_CFG_SPIPRE_VALUE >= 0U) && (CLOCK_CFG_SPIPRE_VALUE <= 31U))
 844:d:\project\9388\e1\2023_7_27\sr5e1_l9388_freeosek\modules\platform\clock\include\sr5e1\clock.h **** #define CLOCK_SPICLK                (CLOCK_SPISELCLK / (CLOCK_CFG_SPIPRE_VALUE + 1U))
 845:d:\project\9388\e1\2023_7_27\sr5e1_l9388_freeosek\modules\platform\clock\include\sr5e1\clock.h **** #else
 846:d:\project\9388\e1\2023_7_27\sr5e1_l9388_freeosek\modules\platform\clock\include\sr5e1\clock.h **** #error "invalid CLOCK_CFG_SPIPRE_VALUE value in clock_cfg.h"
 847:d:\project\9388\e1\2023_7_27\sr5e1_l9388_freeosek\modules\platform\clock\include\sr5e1\clock.h **** #endif
 848:d:\project\9388\e1\2023_7_27\sr5e1_l9388_freeosek\modules\platform\clock\include\sr5e1\clock.h **** 
 849:d:\project\9388\e1\2023_7_27\sr5e1_l9388_freeosek\modules\platform\clock\include\sr5e1\clock.h **** #define CLOCK_SPI1CLK               CLOCK_PCLK2
 850:d:\project\9388\e1\2023_7_27\sr5e1_l9388_freeosek\modules\platform\clock\include\sr5e1\clock.h **** #define CLOCK_SPI2CLK               CLOCK_PCLK1
 851:d:\project\9388\e1\2023_7_27\sr5e1_l9388_freeosek\modules\platform\clock\include\sr5e1\clock.h **** #define CLOCK_SPI3CLK               CLOCK_PCLK1
 852:d:\project\9388\e1\2023_7_27\sr5e1_l9388_freeosek\modules\platform\clock\include\sr5e1\clock.h **** #define CLOCK_SPI4CLK               CLOCK_PCLK2
 853:d:\project\9388\e1\2023_7_27\sr5e1_l9388_freeosek\modules\platform\clock\include\sr5e1\clock.h **** #define CLOCK_I2S2CLK               CLOCK_SPICLK
 854:d:\project\9388\e1\2023_7_27\sr5e1_l9388_freeosek\modules\platform\clock\include\sr5e1\clock.h **** #define CLOCK_I2S3CLK               CLOCK_SPICLK
 855:d:\project\9388\e1\2023_7_27\sr5e1_l9388_freeosek\modules\platform\clock\include\sr5e1\clock.h **** 
 856:d:\project\9388\e1\2023_7_27\sr5e1_l9388_freeosek\modules\platform\clock\include\sr5e1\clock.h **** /**
 857:d:\project\9388\e1\2023_7_27\sr5e1_l9388_freeosek\modules\platform\clock\include\sr5e1\clock.h ****  * @brief   FDCAN clock.
 858:d:\project\9388\e1\2023_7_27\sr5e1_l9388_freeosek\modules\platform\clock\include\sr5e1\clock.h ****  */
 859:d:\project\9388\e1\2023_7_27\sr5e1_l9388_freeosek\modules\platform\clock\include\sr5e1\clock.h **** #if (CLOCK_CFG_FDCANSEL == CLOCK_FDCANSEL_NOCLOCK) || defined(__DOXYGEN__)
 860:d:\project\9388\e1\2023_7_27\sr5e1_l9388_freeosek\modules\platform\clock\include\sr5e1\clock.h **** #define CLOCK_FDCANSELCLK           0U
 861:d:\project\9388\e1\2023_7_27\sr5e1_l9388_freeosek\modules\platform\clock\include\sr5e1\clock.h **** 
 862:d:\project\9388\e1\2023_7_27\sr5e1_l9388_freeosek\modules\platform\clock\include\sr5e1\clock.h **** #elif CLOCK_CFG_FDCANSEL == CLOCK_FDCANSEL_XOSC
 863:d:\project\9388\e1\2023_7_27\sr5e1_l9388_freeosek\modules\platform\clock\include\sr5e1\clock.h **** #define CLOCK_FDCANSELCLK           CLOCK_CFG_XOSCCLK
 864:d:\project\9388\e1\2023_7_27\sr5e1_l9388_freeosek\modules\platform\clock\include\sr5e1\clock.h **** 
 865:d:\project\9388\e1\2023_7_27\sr5e1_l9388_freeosek\modules\platform\clock\include\sr5e1\clock.h **** #elif CLOCK_CFG_FDCANSEL == CLOCK_FDCANSEL_PLL0PHI
 866:d:\project\9388\e1\2023_7_27\sr5e1_l9388_freeosek\modules\platform\clock\include\sr5e1\clock.h **** #define CLOCK_FDCANSELCLK           CLOCK_PLL0PHI
 867:d:\project\9388\e1\2023_7_27\sr5e1_l9388_freeosek\modules\platform\clock\include\sr5e1\clock.h **** 
 868:d:\project\9388\e1\2023_7_27\sr5e1_l9388_freeosek\modules\platform\clock\include\sr5e1\clock.h **** #else
 869:d:\project\9388\e1\2023_7_27\sr5e1_l9388_freeosek\modules\platform\clock\include\sr5e1\clock.h **** #error "invalid CLOCK_CFG_FDCANSEL value in clock_cfg.h"
 870:d:\project\9388\e1\2023_7_27\sr5e1_l9388_freeosek\modules\platform\clock\include\sr5e1\clock.h **** #endif
 871:d:\project\9388\e1\2023_7_27\sr5e1_l9388_freeosek\modules\platform\clock\include\sr5e1\clock.h **** 
 872:d:\project\9388\e1\2023_7_27\sr5e1_l9388_freeosek\modules\platform\clock\include\sr5e1\clock.h **** #if ((CLOCK_CFG_FDCANPRE_VALUE >= 0U) && (CLOCK_CFG_FDCANPRE_VALUE <= 31U))
 873:d:\project\9388\e1\2023_7_27\sr5e1_l9388_freeosek\modules\platform\clock\include\sr5e1\clock.h **** #define CLOCK_FDCANCLK              (CLOCK_FDCANSELCLK / (CLOCK_CFG_FDCANPRE_VALUE + 1U))
 874:d:\project\9388\e1\2023_7_27\sr5e1_l9388_freeosek\modules\platform\clock\include\sr5e1\clock.h **** #else
 875:d:\project\9388\e1\2023_7_27\sr5e1_l9388_freeosek\modules\platform\clock\include\sr5e1\clock.h **** #error "invalid CLOCK_CFG_FDCANPRE_VALUE value in clock_cfg.h"
 876:d:\project\9388\e1\2023_7_27\sr5e1_l9388_freeosek\modules\platform\clock\include\sr5e1\clock.h **** #endif
 877:d:\project\9388\e1\2023_7_27\sr5e1_l9388_freeosek\modules\platform\clock\include\sr5e1\clock.h **** 
 878:d:\project\9388\e1\2023_7_27\sr5e1_l9388_freeosek\modules\platform\clock\include\sr5e1\clock.h **** #if CLOCK_FDCANCLK > CLOCK_FDCANCLK_MAX
 879:d:\project\9388\e1\2023_7_27\sr5e1_l9388_freeosek\modules\platform\clock\include\sr5e1\clock.h **** #error "out of limits CLOCK_FDCANCLK value"
 880:d:\project\9388\e1\2023_7_27\sr5e1_l9388_freeosek\modules\platform\clock\include\sr5e1\clock.h **** #endif
 881:d:\project\9388\e1\2023_7_27\sr5e1_l9388_freeosek\modules\platform\clock\include\sr5e1\clock.h **** 
 882:d:\project\9388\e1\2023_7_27\sr5e1_l9388_freeosek\modules\platform\clock\include\sr5e1\clock.h **** /**
 883:d:\project\9388\e1\2023_7_27\sr5e1_l9388_freeosek\modules\platform\clock\include\sr5e1\clock.h ****  * @brief   ADC clock.
 884:d:\project\9388\e1\2023_7_27\sr5e1_l9388_freeosek\modules\platform\clock\include\sr5e1\clock.h ****  */
 885:d:\project\9388\e1\2023_7_27\sr5e1_l9388_freeosek\modules\platform\clock\include\sr5e1\clock.h **** #if (CLOCK_CFG_ADCSEL == CLOCK_ADCSEL_NOCLOCK) || defined(__DOXYGEN__)
 886:d:\project\9388\e1\2023_7_27\sr5e1_l9388_freeosek\modules\platform\clock\include\sr5e1\clock.h **** #define CLOCK_ADCSELCLK             0U
 887:d:\project\9388\e1\2023_7_27\sr5e1_l9388_freeosek\modules\platform\clock\include\sr5e1\clock.h **** 
 888:d:\project\9388\e1\2023_7_27\sr5e1_l9388_freeosek\modules\platform\clock\include\sr5e1\clock.h **** #elif CLOCK_CFG_ADCSEL == CLOCK_ADCSEL_XOSC
 889:d:\project\9388\e1\2023_7_27\sr5e1_l9388_freeosek\modules\platform\clock\include\sr5e1\clock.h **** #define CLOCK_ADCSELCLK             CLOCK_CFG_XOSCCLK
 890:d:\project\9388\e1\2023_7_27\sr5e1_l9388_freeosek\modules\platform\clock\include\sr5e1\clock.h **** 
 891:d:\project\9388\e1\2023_7_27\sr5e1_l9388_freeosek\modules\platform\clock\include\sr5e1\clock.h **** #elif CLOCK_CFG_ADCSEL == CLOCK_ADCSEL_PLL0PHI
 892:d:\project\9388\e1\2023_7_27\sr5e1_l9388_freeosek\modules\platform\clock\include\sr5e1\clock.h **** #define CLOCK_ADCSELCLK             CLOCK_PLL0PHI
 893:d:\project\9388\e1\2023_7_27\sr5e1_l9388_freeosek\modules\platform\clock\include\sr5e1\clock.h **** 
 894:d:\project\9388\e1\2023_7_27\sr5e1_l9388_freeosek\modules\platform\clock\include\sr5e1\clock.h **** #elif CLOCK_CFG_ADCSEL == CLOCK_ADCSEL_PLL1PHI
 895:d:\project\9388\e1\2023_7_27\sr5e1_l9388_freeosek\modules\platform\clock\include\sr5e1\clock.h **** #define CLOCK_ADCSELCLK             CLOCK_PLL1PHI
 896:d:\project\9388\e1\2023_7_27\sr5e1_l9388_freeosek\modules\platform\clock\include\sr5e1\clock.h **** 
 897:d:\project\9388\e1\2023_7_27\sr5e1_l9388_freeosek\modules\platform\clock\include\sr5e1\clock.h **** #else
 898:d:\project\9388\e1\2023_7_27\sr5e1_l9388_freeosek\modules\platform\clock\include\sr5e1\clock.h **** #error "invalid CLOCK_CFG_ADCSEL value in clock_cfg.h"
 899:d:\project\9388\e1\2023_7_27\sr5e1_l9388_freeosek\modules\platform\clock\include\sr5e1\clock.h **** #endif
 900:d:\project\9388\e1\2023_7_27\sr5e1_l9388_freeosek\modules\platform\clock\include\sr5e1\clock.h **** /* The range of values of ADCPRE must be verified */
 901:d:\project\9388\e1\2023_7_27\sr5e1_l9388_freeosek\modules\platform\clock\include\sr5e1\clock.h **** #if (CLOCK_CFG_ADCPRE_VALUE == 0U)
 902:d:\project\9388\e1\2023_7_27\sr5e1_l9388_freeosek\modules\platform\clock\include\sr5e1\clock.h **** #define CLOCK_ADCCLK                CLOCK_ADCSELCLK
 903:d:\project\9388\e1\2023_7_27\sr5e1_l9388_freeosek\modules\platform\clock\include\sr5e1\clock.h **** #elif ((CLOCK_CFG_ADCPRE_VALUE > 0U) && (CLOCK_CFG_ADCPRE_VALUE <= 63U))
 904:d:\project\9388\e1\2023_7_27\sr5e1_l9388_freeosek\modules\platform\clock\include\sr5e1\clock.h **** #define CLOCK_ADCCLK                (CLOCK_ADCSELCLK / (2U * CLOCK_CFG_ADCPRE_VALUE))
 905:d:\project\9388\e1\2023_7_27\sr5e1_l9388_freeosek\modules\platform\clock\include\sr5e1\clock.h **** #else
 906:d:\project\9388\e1\2023_7_27\sr5e1_l9388_freeosek\modules\platform\clock\include\sr5e1\clock.h **** #error "invalid CLOCK_CFG_ADCPRE_VALUE value in clock_cfg.h"
 907:d:\project\9388\e1\2023_7_27\sr5e1_l9388_freeosek\modules\platform\clock\include\sr5e1\clock.h **** #endif
 908:d:\project\9388\e1\2023_7_27\sr5e1_l9388_freeosek\modules\platform\clock\include\sr5e1\clock.h **** 
 909:d:\project\9388\e1\2023_7_27\sr5e1_l9388_freeosek\modules\platform\clock\include\sr5e1\clock.h **** #define CLOCK_ADC12CLK              CLOCK_ADCCLK
 910:d:\project\9388\e1\2023_7_27\sr5e1_l9388_freeosek\modules\platform\clock\include\sr5e1\clock.h **** #define CLOCK_ADC345CLK             CLOCK_ADCCLK
 911:d:\project\9388\e1\2023_7_27\sr5e1_l9388_freeosek\modules\platform\clock\include\sr5e1\clock.h **** 
 912:d:\project\9388\e1\2023_7_27\sr5e1_l9388_freeosek\modules\platform\clock\include\sr5e1\clock.h **** /**
 913:d:\project\9388\e1\2023_7_27\sr5e1_l9388_freeosek\modules\platform\clock\include\sr5e1\clock.h ****  * @brief   SDADC clock.
 914:d:\project\9388\e1\2023_7_27\sr5e1_l9388_freeosek\modules\platform\clock\include\sr5e1\clock.h ****  */
 915:d:\project\9388\e1\2023_7_27\sr5e1_l9388_freeosek\modules\platform\clock\include\sr5e1\clock.h **** #if (CLOCK_CFG_SDADCSEL == CLOCK_SDADCSEL_NOCLOCK) || defined(__DOXYGEN__)
 916:d:\project\9388\e1\2023_7_27\sr5e1_l9388_freeosek\modules\platform\clock\include\sr5e1\clock.h **** #define CLOCK_SDADCSELCLK           0U
 917:d:\project\9388\e1\2023_7_27\sr5e1_l9388_freeosek\modules\platform\clock\include\sr5e1\clock.h **** 
 918:d:\project\9388\e1\2023_7_27\sr5e1_l9388_freeosek\modules\platform\clock\include\sr5e1\clock.h **** #elif CLOCK_CFG_SDADCSEL == CLOCK_SDADCSEL_XOSC
 919:d:\project\9388\e1\2023_7_27\sr5e1_l9388_freeosek\modules\platform\clock\include\sr5e1\clock.h **** #define CLOCK_SDADCSELCLK           CLOCK_CFG_XOSCCLK
 920:d:\project\9388\e1\2023_7_27\sr5e1_l9388_freeosek\modules\platform\clock\include\sr5e1\clock.h **** 
 921:d:\project\9388\e1\2023_7_27\sr5e1_l9388_freeosek\modules\platform\clock\include\sr5e1\clock.h **** #elif CLOCK_CFG_SDADCSEL == CLOCK_SDADCSEL_PLL0PHI
 922:d:\project\9388\e1\2023_7_27\sr5e1_l9388_freeosek\modules\platform\clock\include\sr5e1\clock.h **** #define CLOCK_SDADCSELCLK           CLOCK_PLL0PHI
 923:d:\project\9388\e1\2023_7_27\sr5e1_l9388_freeosek\modules\platform\clock\include\sr5e1\clock.h **** 
 924:d:\project\9388\e1\2023_7_27\sr5e1_l9388_freeosek\modules\platform\clock\include\sr5e1\clock.h **** #elif CLOCK_CFG_SDADCSEL == CLOCK_SDADCSEL_PLL1PHI
 925:d:\project\9388\e1\2023_7_27\sr5e1_l9388_freeosek\modules\platform\clock\include\sr5e1\clock.h **** #define CLOCK_SDADCSELCLK           CLOCK_PLL1PHI
 926:d:\project\9388\e1\2023_7_27\sr5e1_l9388_freeosek\modules\platform\clock\include\sr5e1\clock.h **** 
 927:d:\project\9388\e1\2023_7_27\sr5e1_l9388_freeosek\modules\platform\clock\include\sr5e1\clock.h **** #else
 928:d:\project\9388\e1\2023_7_27\sr5e1_l9388_freeosek\modules\platform\clock\include\sr5e1\clock.h **** #error "invalid CLOCK_CFG_SDADCSEL value in clock_cfg.h"
 929:d:\project\9388\e1\2023_7_27\sr5e1_l9388_freeosek\modules\platform\clock\include\sr5e1\clock.h **** #endif
 930:d:\project\9388\e1\2023_7_27\sr5e1_l9388_freeosek\modules\platform\clock\include\sr5e1\clock.h **** /* The range of values of SDADCPRE must be verified */
 931:d:\project\9388\e1\2023_7_27\sr5e1_l9388_freeosek\modules\platform\clock\include\sr5e1\clock.h **** #if (CLOCK_CFG_SDADCPRE_VALUE == 0U)
 932:d:\project\9388\e1\2023_7_27\sr5e1_l9388_freeosek\modules\platform\clock\include\sr5e1\clock.h **** #define CLOCK_SDADCCLK              CLOCK_SDADCSELCLK
 933:d:\project\9388\e1\2023_7_27\sr5e1_l9388_freeosek\modules\platform\clock\include\sr5e1\clock.h **** #elif ((CLOCK_CFG_SDADCPRE_VALUE > 0U) && (CLOCK_CFG_SDADCPRE_VALUE <= 63U))
 934:d:\project\9388\e1\2023_7_27\sr5e1_l9388_freeosek\modules\platform\clock\include\sr5e1\clock.h **** #define CLOCK_SDADCCLK              (CLOCK_SDADCSELCLK / (2U * CLOCK_CFG_SDADCPRE_VALUE))
 935:d:\project\9388\e1\2023_7_27\sr5e1_l9388_freeosek\modules\platform\clock\include\sr5e1\clock.h **** #else
 936:d:\project\9388\e1\2023_7_27\sr5e1_l9388_freeosek\modules\platform\clock\include\sr5e1\clock.h **** #error "invalid CLOCK_CFG_SDADCPRE_VALUE value in clock_cfg.h"
 937:d:\project\9388\e1\2023_7_27\sr5e1_l9388_freeosek\modules\platform\clock\include\sr5e1\clock.h **** #endif
 938:d:\project\9388\e1\2023_7_27\sr5e1_l9388_freeosek\modules\platform\clock\include\sr5e1\clock.h **** 
 939:d:\project\9388\e1\2023_7_27\sr5e1_l9388_freeosek\modules\platform\clock\include\sr5e1\clock.h **** #if CLOCK_SDADCCLK > CLOCK_SDADCCLK_MAX
 940:d:\project\9388\e1\2023_7_27\sr5e1_l9388_freeosek\modules\platform\clock\include\sr5e1\clock.h **** #error "out of limits CLOCK_SDADCCLK value"
 941:d:\project\9388\e1\2023_7_27\sr5e1_l9388_freeosek\modules\platform\clock\include\sr5e1\clock.h **** #endif
 942:d:\project\9388\e1\2023_7_27\sr5e1_l9388_freeosek\modules\platform\clock\include\sr5e1\clock.h **** 
 943:d:\project\9388\e1\2023_7_27\sr5e1_l9388_freeosek\modules\platform\clock\include\sr5e1\clock.h **** /* Flash wait state (APC = 0) settings.*/
 944:d:\project\9388\e1\2023_7_27\sr5e1_l9388_freeosek\modules\platform\clock\include\sr5e1\clock.h **** #if (CLOCK_SYSCLKDIV <= 136000000UL) || defined(__DOXYGEN__)
 945:d:\project\9388\e1\2023_7_27\sr5e1_l9388_freeosek\modules\platform\clock\include\sr5e1\clock.h **** #define CLOCK_NVMRWSC_VALUE         3U /* 0 < core frequency < 136MHz  */
 946:d:\project\9388\e1\2023_7_27\sr5e1_l9388_freeosek\modules\platform\clock\include\sr5e1\clock.h **** 
 947:d:\project\9388\e1\2023_7_27\sr5e1_l9388_freeosek\modules\platform\clock\include\sr5e1\clock.h **** #elif (CLOCK_SYSCLKDIV <= 170000000UL)
 948:d:\project\9388\e1\2023_7_27\sr5e1_l9388_freeosek\modules\platform\clock\include\sr5e1\clock.h **** #define CLOCK_NVMRWSC_VALUE         4U /* 136MHz < core_freq <= 170MHz */
 949:d:\project\9388\e1\2023_7_27\sr5e1_l9388_freeosek\modules\platform\clock\include\sr5e1\clock.h **** 
 950:d:\project\9388\e1\2023_7_27\sr5e1_l9388_freeosek\modules\platform\clock\include\sr5e1\clock.h **** #elif (CLOCK_SYSCLKDIV <= 204000000UL)
 951:d:\project\9388\e1\2023_7_27\sr5e1_l9388_freeosek\modules\platform\clock\include\sr5e1\clock.h **** #define CLOCK_NVMRWSC_VALUE         5U /* 170MHz < core_freq <= 204MHz */
 952:d:\project\9388\e1\2023_7_27\sr5e1_l9388_freeosek\modules\platform\clock\include\sr5e1\clock.h **** 
 953:d:\project\9388\e1\2023_7_27\sr5e1_l9388_freeosek\modules\platform\clock\include\sr5e1\clock.h **** #elif (CLOCK_SYSCLKDIV <= 238000000UL)
 954:d:\project\9388\e1\2023_7_27\sr5e1_l9388_freeosek\modules\platform\clock\include\sr5e1\clock.h **** #define CLOCK_NVMRWSC_VALUE         6U /* 204MHz < core_freq <= 238MHz */
 955:d:\project\9388\e1\2023_7_27\sr5e1_l9388_freeosek\modules\platform\clock\include\sr5e1\clock.h **** 
 956:d:\project\9388\e1\2023_7_27\sr5e1_l9388_freeosek\modules\platform\clock\include\sr5e1\clock.h **** #elif (CLOCK_SYSCLKDIV <= 273000000UL)
 957:d:\project\9388\e1\2023_7_27\sr5e1_l9388_freeosek\modules\platform\clock\include\sr5e1\clock.h **** #define CLOCK_NVMRWSC_VALUE         7U /* 238MHz < core_freq <= 273MHz */
 958:d:\project\9388\e1\2023_7_27\sr5e1_l9388_freeosek\modules\platform\clock\include\sr5e1\clock.h **** 
 959:d:\project\9388\e1\2023_7_27\sr5e1_l9388_freeosek\modules\platform\clock\include\sr5e1\clock.h **** #else
 960:d:\project\9388\e1\2023_7_27\sr5e1_l9388_freeosek\modules\platform\clock\include\sr5e1\clock.h **** #define CLOCK_NVMRWSC_VALUE         8U /* 273MHz < core_freq <= 307MHz */
 961:d:\project\9388\e1\2023_7_27\sr5e1_l9388_freeosek\modules\platform\clock\include\sr5e1\clock.h **** 
 962:d:\project\9388\e1\2023_7_27\sr5e1_l9388_freeosek\modules\platform\clock\include\sr5e1\clock.h **** #endif
 963:d:\project\9388\e1\2023_7_27\sr5e1_l9388_freeosek\modules\platform\clock\include\sr5e1\clock.h **** 
 964:d:\project\9388\e1\2023_7_27\sr5e1_l9388_freeosek\modules\platform\clock\include\sr5e1\clock.h **** /*===========================================================================*/
 965:d:\project\9388\e1\2023_7_27\sr5e1_l9388_freeosek\modules\platform\clock\include\sr5e1\clock.h **** /* Module data structures and types.                                         */
 966:d:\project\9388\e1\2023_7_27\sr5e1_l9388_freeosek\modules\platform\clock\include\sr5e1\clock.h **** /*===========================================================================*/
 967:d:\project\9388\e1\2023_7_27\sr5e1_l9388_freeosek\modules\platform\clock\include\sr5e1\clock.h **** 
 968:d:\project\9388\e1\2023_7_27\sr5e1_l9388_freeosek\modules\platform\clock\include\sr5e1\clock.h **** /*===========================================================================*/
 969:d:\project\9388\e1\2023_7_27\sr5e1_l9388_freeosek\modules\platform\clock\include\sr5e1\clock.h **** /* Module macros.                                                            */
 970:d:\project\9388\e1\2023_7_27\sr5e1_l9388_freeosek\modules\platform\clock\include\sr5e1\clock.h **** /*===========================================================================*/
 971:d:\project\9388\e1\2023_7_27\sr5e1_l9388_freeosek\modules\platform\clock\include\sr5e1\clock.h **** 
 972:d:\project\9388\e1\2023_7_27\sr5e1_l9388_freeosek\modules\platform\clock\include\sr5e1\clock.h **** /*===========================================================================*/
 973:d:\project\9388\e1\2023_7_27\sr5e1_l9388_freeosek\modules\platform\clock\include\sr5e1\clock.h **** /* External declarations.                                                    */
 974:d:\project\9388\e1\2023_7_27\sr5e1_l9388_freeosek\modules\platform\clock\include\sr5e1\clock.h **** /*===========================================================================*/
 975:d:\project\9388\e1\2023_7_27\sr5e1_l9388_freeosek\modules\platform\clock\include\sr5e1\clock.h **** 
 976:d:\project\9388\e1\2023_7_27\sr5e1_l9388_freeosek\modules\platform\clock\include\sr5e1\clock.h **** /**
 977:d:\project\9388\e1\2023_7_27\sr5e1_l9388_freeosek\modules\platform\clock\include\sr5e1\clock.h ****  * @brief   CMSIS system core clock variable.
 978:d:\project\9388\e1\2023_7_27\sr5e1_l9388_freeosek\modules\platform\clock\include\sr5e1\clock.h ****  */
 979:d:\project\9388\e1\2023_7_27\sr5e1_l9388_freeosek\modules\platform\clock\include\sr5e1\clock.h **** extern uint32_t SystemCoreClock;
 980:d:\project\9388\e1\2023_7_27\sr5e1_l9388_freeosek\modules\platform\clock\include\sr5e1\clock.h **** 
 981:d:\project\9388\e1\2023_7_27\sr5e1_l9388_freeosek\modules\platform\clock\include\sr5e1\clock.h **** #ifdef __cplusplus
 982:d:\project\9388\e1\2023_7_27\sr5e1_l9388_freeosek\modules\platform\clock\include\sr5e1\clock.h **** extern "C" {
 983:d:\project\9388\e1\2023_7_27\sr5e1_l9388_freeosek\modules\platform\clock\include\sr5e1\clock.h **** #endif
 984:d:\project\9388\e1\2023_7_27\sr5e1_l9388_freeosek\modules\platform\clock\include\sr5e1\clock.h **** 
 985:d:\project\9388\e1\2023_7_27\sr5e1_l9388_freeosek\modules\platform\clock\include\sr5e1\clock.h **** /**
 986:d:\project\9388\e1\2023_7_27\sr5e1_l9388_freeosek\modules\platform\clock\include\sr5e1\clock.h ****  * @brief   Initializes clock
 987:d:\project\9388\e1\2023_7_27\sr5e1_l9388_freeosek\modules\platform\clock\include\sr5e1\clock.h ****  *
 988:d:\project\9388\e1\2023_7_27\sr5e1_l9388_freeosek\modules\platform\clock\include\sr5e1\clock.h ****  * @api
 989:d:\project\9388\e1\2023_7_27\sr5e1_l9388_freeosek\modules\platform\clock\include\sr5e1\clock.h ****  */
 990:d:\project\9388\e1\2023_7_27\sr5e1_l9388_freeosek\modules\platform\clock\include\sr5e1\clock.h **** void clock_init(void);
 991:d:\project\9388\e1\2023_7_27\sr5e1_l9388_freeosek\modules\platform\clock\include\sr5e1\clock.h **** 
 992:d:\project\9388\e1\2023_7_27\sr5e1_l9388_freeosek\modules\platform\clock\include\sr5e1\clock.h **** #ifdef __cplusplus
 993:d:\project\9388\e1\2023_7_27\sr5e1_l9388_freeosek\modules\platform\clock\include\sr5e1\clock.h **** }
 994:d:\project\9388\e1\2023_7_27\sr5e1_l9388_freeosek\modules\platform\clock\include\sr5e1\clock.h **** #endif
 995:d:\project\9388\e1\2023_7_27\sr5e1_l9388_freeosek\modules\platform\clock\include\sr5e1\clock.h **** 
 996:d:\project\9388\e1\2023_7_27\sr5e1_l9388_freeosek\modules\platform\clock\include\sr5e1\clock.h **** /*===========================================================================*/
 997:d:\project\9388\e1\2023_7_27\sr5e1_l9388_freeosek\modules\platform\clock\include\sr5e1\clock.h **** /* Module inline functions.                                                  */
 998:d:\project\9388\e1\2023_7_27\sr5e1_l9388_freeosek\modules\platform\clock\include\sr5e1\clock.h **** /*===========================================================================*/
 999:d:\project\9388\e1\2023_7_27\sr5e1_l9388_freeosek\modules\platform\clock\include\sr5e1\clock.h **** 
1000:d:\project\9388\e1\2023_7_27\sr5e1_l9388_freeosek\modules\platform\clock\include\sr5e1\clock.h **** /**
1001:d:\project\9388\e1\2023_7_27\sr5e1_l9388_freeosek\modules\platform\clock\include\sr5e1\clock.h ****  * @brief   Enables AHB1 peripherals clock [Low Word]
1002:d:\project\9388\e1\2023_7_27\sr5e1_l9388_freeosek\modules\platform\clock\include\sr5e1\clock.h ****  *
1003:d:\project\9388\e1\2023_7_27\sr5e1_l9388_freeosek\modules\platform\clock\include\sr5e1\clock.h ****  * @param[in] smode     sleep mode (if true, peripheral clock is enabled in
1004:d:\project\9388\e1\2023_7_27\sr5e1_l9388_freeosek\modules\platform\clock\include\sr5e1\clock.h ****  *                      sleep mode)
1005:d:\project\9388\e1\2023_7_27\sr5e1_l9388_freeosek\modules\platform\clock\include\sr5e1\clock.h ****  * @param[in] m         peripheral clock to be enabled
1006:d:\project\9388\e1\2023_7_27\sr5e1_l9388_freeosek\modules\platform\clock\include\sr5e1\clock.h ****  * @return              value of register AHB1LENR after the update
1007:d:\project\9388\e1\2023_7_27\sr5e1_l9388_freeosek\modules\platform\clock\include\sr5e1\clock.h ****  *
1008:d:\project\9388\e1\2023_7_27\sr5e1_l9388_freeosek\modules\platform\clock\include\sr5e1\clock.h ****  * @api
1009:d:\project\9388\e1\2023_7_27\sr5e1_l9388_freeosek\modules\platform\clock\include\sr5e1\clock.h ****  */
1010:d:\project\9388\e1\2023_7_27\sr5e1_l9388_freeosek\modules\platform\clock\include\sr5e1\clock.h **** __STATIC_FORCEINLINE uint32_t clock_enable_AHB1L(bool smode, uint32_t m) {
1011:d:\project\9388\e1\2023_7_27\sr5e1_l9388_freeosek\modules\platform\clock\include\sr5e1\clock.h **** 
1012:d:\project\9388\e1\2023_7_27\sr5e1_l9388_freeosek\modules\platform\clock\include\sr5e1\clock.h ****     RCC->AHB1LENR |= m;
1013:d:\project\9388\e1\2023_7_27\sr5e1_l9388_freeosek\modules\platform\clock\include\sr5e1\clock.h ****     if (smode) {
1014:d:\project\9388\e1\2023_7_27\sr5e1_l9388_freeosek\modules\platform\clock\include\sr5e1\clock.h ****         RCC->C1_AHB1LSMENR |= m;
1015:d:\project\9388\e1\2023_7_27\sr5e1_l9388_freeosek\modules\platform\clock\include\sr5e1\clock.h **** #if CLOCK_CFG_SMP_MODE == TRUE
1016:d:\project\9388\e1\2023_7_27\sr5e1_l9388_freeosek\modules\platform\clock\include\sr5e1\clock.h ****         RCC->C2_AHB1LSMENR |= m;
1017:d:\project\9388\e1\2023_7_27\sr5e1_l9388_freeosek\modules\platform\clock\include\sr5e1\clock.h **** #endif
1018:d:\project\9388\e1\2023_7_27\sr5e1_l9388_freeosek\modules\platform\clock\include\sr5e1\clock.h ****     }
1019:d:\project\9388\e1\2023_7_27\sr5e1_l9388_freeosek\modules\platform\clock\include\sr5e1\clock.h ****     else {
1020:d:\project\9388\e1\2023_7_27\sr5e1_l9388_freeosek\modules\platform\clock\include\sr5e1\clock.h ****         RCC->C1_AHB1LSMENR &= ~m;
1021:d:\project\9388\e1\2023_7_27\sr5e1_l9388_freeosek\modules\platform\clock\include\sr5e1\clock.h **** #if CLOCK_CFG_SMP_MODE == TRUE
1022:d:\project\9388\e1\2023_7_27\sr5e1_l9388_freeosek\modules\platform\clock\include\sr5e1\clock.h ****         RCC->C2_AHB1LSMENR &= ~m;
1023:d:\project\9388\e1\2023_7_27\sr5e1_l9388_freeosek\modules\platform\clock\include\sr5e1\clock.h **** #endif
1024:d:\project\9388\e1\2023_7_27\sr5e1_l9388_freeosek\modules\platform\clock\include\sr5e1\clock.h ****     }
1025:d:\project\9388\e1\2023_7_27\sr5e1_l9388_freeosek\modules\platform\clock\include\sr5e1\clock.h **** 
1026:d:\project\9388\e1\2023_7_27\sr5e1_l9388_freeosek\modules\platform\clock\include\sr5e1\clock.h ****     return RCC->AHB1LENR;
1027:d:\project\9388\e1\2023_7_27\sr5e1_l9388_freeosek\modules\platform\clock\include\sr5e1\clock.h **** }
1028:d:\project\9388\e1\2023_7_27\sr5e1_l9388_freeosek\modules\platform\clock\include\sr5e1\clock.h **** 
1029:d:\project\9388\e1\2023_7_27\sr5e1_l9388_freeosek\modules\platform\clock\include\sr5e1\clock.h **** /**
1030:d:\project\9388\e1\2023_7_27\sr5e1_l9388_freeosek\modules\platform\clock\include\sr5e1\clock.h ****  * @brief   Disables AHB1 peripherals clock [Low Word]
1031:d:\project\9388\e1\2023_7_27\sr5e1_l9388_freeosek\modules\platform\clock\include\sr5e1\clock.h ****  *
1032:d:\project\9388\e1\2023_7_27\sr5e1_l9388_freeosek\modules\platform\clock\include\sr5e1\clock.h ****  * @param[in] m         peripheral clock to be disabled
1033:d:\project\9388\e1\2023_7_27\sr5e1_l9388_freeosek\modules\platform\clock\include\sr5e1\clock.h ****  * @return              value of register AHB1LENR after the update
1034:d:\project\9388\e1\2023_7_27\sr5e1_l9388_freeosek\modules\platform\clock\include\sr5e1\clock.h ****  *
1035:d:\project\9388\e1\2023_7_27\sr5e1_l9388_freeosek\modules\platform\clock\include\sr5e1\clock.h ****  * @api
1036:d:\project\9388\e1\2023_7_27\sr5e1_l9388_freeosek\modules\platform\clock\include\sr5e1\clock.h ****  */
1037:d:\project\9388\e1\2023_7_27\sr5e1_l9388_freeosek\modules\platform\clock\include\sr5e1\clock.h **** __STATIC_FORCEINLINE uint32_t clock_disable_AHB1L(uint32_t m) {
1038:d:\project\9388\e1\2023_7_27\sr5e1_l9388_freeosek\modules\platform\clock\include\sr5e1\clock.h **** 
1039:d:\project\9388\e1\2023_7_27\sr5e1_l9388_freeosek\modules\platform\clock\include\sr5e1\clock.h ****     RCC->AHB1LENR &= ~m;
1040:d:\project\9388\e1\2023_7_27\sr5e1_l9388_freeosek\modules\platform\clock\include\sr5e1\clock.h ****     RCC->C1_AHB1LSMENR &= ~m;
1041:d:\project\9388\e1\2023_7_27\sr5e1_l9388_freeosek\modules\platform\clock\include\sr5e1\clock.h **** #if CLOCK_CFG_SMP_MODE == TRUE
1042:d:\project\9388\e1\2023_7_27\sr5e1_l9388_freeosek\modules\platform\clock\include\sr5e1\clock.h ****     RCC->C2_AHB1LSMENR &= ~m;
1043:d:\project\9388\e1\2023_7_27\sr5e1_l9388_freeosek\modules\platform\clock\include\sr5e1\clock.h **** #endif
1044:d:\project\9388\e1\2023_7_27\sr5e1_l9388_freeosek\modules\platform\clock\include\sr5e1\clock.h **** 
1045:d:\project\9388\e1\2023_7_27\sr5e1_l9388_freeosek\modules\platform\clock\include\sr5e1\clock.h ****     return RCC->AHB1LENR;
1046:d:\project\9388\e1\2023_7_27\sr5e1_l9388_freeosek\modules\platform\clock\include\sr5e1\clock.h **** }
1047:d:\project\9388\e1\2023_7_27\sr5e1_l9388_freeosek\modules\platform\clock\include\sr5e1\clock.h **** 
1048:d:\project\9388\e1\2023_7_27\sr5e1_l9388_freeosek\modules\platform\clock\include\sr5e1\clock.h **** /**
1049:d:\project\9388\e1\2023_7_27\sr5e1_l9388_freeosek\modules\platform\clock\include\sr5e1\clock.h ****  * @brief   Checks if AHB1 peripheral clock [Low Word] is enabled
1050:d:\project\9388\e1\2023_7_27\sr5e1_l9388_freeosek\modules\platform\clock\include\sr5e1\clock.h ****  *
1051:d:\project\9388\e1\2023_7_27\sr5e1_l9388_freeosek\modules\platform\clock\include\sr5e1\clock.h ****  * @param[in] m         peripheral clock to be checked
1052:d:\project\9388\e1\2023_7_27\sr5e1_l9388_freeosek\modules\platform\clock\include\sr5e1\clock.h ****  *
1053:d:\project\9388\e1\2023_7_27\sr5e1_l9388_freeosek\modules\platform\clock\include\sr5e1\clock.h ****  * @api
1054:d:\project\9388\e1\2023_7_27\sr5e1_l9388_freeosek\modules\platform\clock\include\sr5e1\clock.h ****  */
1055:d:\project\9388\e1\2023_7_27\sr5e1_l9388_freeosek\modules\platform\clock\include\sr5e1\clock.h **** __STATIC_FORCEINLINE bool is_clock_enable_AHB1L(uint32_t m) {
1056:d:\project\9388\e1\2023_7_27\sr5e1_l9388_freeosek\modules\platform\clock\include\sr5e1\clock.h **** 
1057:d:\project\9388\e1\2023_7_27\sr5e1_l9388_freeosek\modules\platform\clock\include\sr5e1\clock.h ****     return (((RCC->AHB1LENR & m) == m) ? true : false);
1058:d:\project\9388\e1\2023_7_27\sr5e1_l9388_freeosek\modules\platform\clock\include\sr5e1\clock.h **** }
1059:d:\project\9388\e1\2023_7_27\sr5e1_l9388_freeosek\modules\platform\clock\include\sr5e1\clock.h **** 
1060:d:\project\9388\e1\2023_7_27\sr5e1_l9388_freeosek\modules\platform\clock\include\sr5e1\clock.h **** /**
1061:d:\project\9388\e1\2023_7_27\sr5e1_l9388_freeosek\modules\platform\clock\include\sr5e1\clock.h ****  * @brief   Resets AHB1 peripherals [Low Word]
1062:d:\project\9388\e1\2023_7_27\sr5e1_l9388_freeosek\modules\platform\clock\include\sr5e1\clock.h ****  *
1063:d:\project\9388\e1\2023_7_27\sr5e1_l9388_freeosek\modules\platform\clock\include\sr5e1\clock.h ****  * @param[in] m         peripheral to reset
1064:d:\project\9388\e1\2023_7_27\sr5e1_l9388_freeosek\modules\platform\clock\include\sr5e1\clock.h ****  *
1065:d:\project\9388\e1\2023_7_27\sr5e1_l9388_freeosek\modules\platform\clock\include\sr5e1\clock.h ****  * @api
1066:d:\project\9388\e1\2023_7_27\sr5e1_l9388_freeosek\modules\platform\clock\include\sr5e1\clock.h ****  */
1067:d:\project\9388\e1\2023_7_27\sr5e1_l9388_freeosek\modules\platform\clock\include\sr5e1\clock.h **** __STATIC_FORCEINLINE void clock_reset_AHB1L(uint32_t m) {
1068:d:\project\9388\e1\2023_7_27\sr5e1_l9388_freeosek\modules\platform\clock\include\sr5e1\clock.h **** 
1069:d:\project\9388\e1\2023_7_27\sr5e1_l9388_freeosek\modules\platform\clock\include\sr5e1\clock.h ****     RCC->AHB1LRSTR |= m;
1070:d:\project\9388\e1\2023_7_27\sr5e1_l9388_freeosek\modules\platform\clock\include\sr5e1\clock.h ****     RCC->AHB1LRSTR &= ~m;
1071:d:\project\9388\e1\2023_7_27\sr5e1_l9388_freeosek\modules\platform\clock\include\sr5e1\clock.h ****     (void)RCC->AHB1LRSTR;
1072:d:\project\9388\e1\2023_7_27\sr5e1_l9388_freeosek\modules\platform\clock\include\sr5e1\clock.h **** }
1073:d:\project\9388\e1\2023_7_27\sr5e1_l9388_freeosek\modules\platform\clock\include\sr5e1\clock.h **** 
1074:d:\project\9388\e1\2023_7_27\sr5e1_l9388_freeosek\modules\platform\clock\include\sr5e1\clock.h **** /**
1075:d:\project\9388\e1\2023_7_27\sr5e1_l9388_freeosek\modules\platform\clock\include\sr5e1\clock.h ****  * @brief   Enables AHB1 peripherals clock [High Word]
1076:d:\project\9388\e1\2023_7_27\sr5e1_l9388_freeosek\modules\platform\clock\include\sr5e1\clock.h ****  *
1077:d:\project\9388\e1\2023_7_27\sr5e1_l9388_freeosek\modules\platform\clock\include\sr5e1\clock.h ****  * @param[in] smode     sleep mode (if true, peripheral clock is enabled in
1078:d:\project\9388\e1\2023_7_27\sr5e1_l9388_freeosek\modules\platform\clock\include\sr5e1\clock.h ****  *                      sleep mode)
1079:d:\project\9388\e1\2023_7_27\sr5e1_l9388_freeosek\modules\platform\clock\include\sr5e1\clock.h ****  * @param[in] m         peripheral clock to be enabled
1080:d:\project\9388\e1\2023_7_27\sr5e1_l9388_freeosek\modules\platform\clock\include\sr5e1\clock.h ****  * @return              value of register AHB1HENR after the update
1081:d:\project\9388\e1\2023_7_27\sr5e1_l9388_freeosek\modules\platform\clock\include\sr5e1\clock.h ****  *
1082:d:\project\9388\e1\2023_7_27\sr5e1_l9388_freeosek\modules\platform\clock\include\sr5e1\clock.h ****  * @api
1083:d:\project\9388\e1\2023_7_27\sr5e1_l9388_freeosek\modules\platform\clock\include\sr5e1\clock.h ****  */
1084:d:\project\9388\e1\2023_7_27\sr5e1_l9388_freeosek\modules\platform\clock\include\sr5e1\clock.h **** __STATIC_FORCEINLINE uint32_t clock_enable_AHB1H(bool smode, uint32_t m) {
1085:d:\project\9388\e1\2023_7_27\sr5e1_l9388_freeosek\modules\platform\clock\include\sr5e1\clock.h **** 
1086:d:\project\9388\e1\2023_7_27\sr5e1_l9388_freeosek\modules\platform\clock\include\sr5e1\clock.h ****     RCC->AHB1HENR |= m;
1087:d:\project\9388\e1\2023_7_27\sr5e1_l9388_freeosek\modules\platform\clock\include\sr5e1\clock.h ****     if (smode) {
1088:d:\project\9388\e1\2023_7_27\sr5e1_l9388_freeosek\modules\platform\clock\include\sr5e1\clock.h ****         RCC->C1_AHB1HSMENR |= m;
1089:d:\project\9388\e1\2023_7_27\sr5e1_l9388_freeosek\modules\platform\clock\include\sr5e1\clock.h **** #if CLOCK_CFG_SMP_MODE == TRUE
1090:d:\project\9388\e1\2023_7_27\sr5e1_l9388_freeosek\modules\platform\clock\include\sr5e1\clock.h ****         RCC->C2_AHB1HSMENR |= m;
1091:d:\project\9388\e1\2023_7_27\sr5e1_l9388_freeosek\modules\platform\clock\include\sr5e1\clock.h **** #endif
1092:d:\project\9388\e1\2023_7_27\sr5e1_l9388_freeosek\modules\platform\clock\include\sr5e1\clock.h ****     }
1093:d:\project\9388\e1\2023_7_27\sr5e1_l9388_freeosek\modules\platform\clock\include\sr5e1\clock.h ****     else {
1094:d:\project\9388\e1\2023_7_27\sr5e1_l9388_freeosek\modules\platform\clock\include\sr5e1\clock.h ****         RCC->C1_AHB1HSMENR &= ~m;
1095:d:\project\9388\e1\2023_7_27\sr5e1_l9388_freeosek\modules\platform\clock\include\sr5e1\clock.h **** #if CLOCK_CFG_SMP_MODE == TRUE
1096:d:\project\9388\e1\2023_7_27\sr5e1_l9388_freeosek\modules\platform\clock\include\sr5e1\clock.h ****         RCC->C2_AHB1HSMENR &= ~m;
1097:d:\project\9388\e1\2023_7_27\sr5e1_l9388_freeosek\modules\platform\clock\include\sr5e1\clock.h **** #endif
1098:d:\project\9388\e1\2023_7_27\sr5e1_l9388_freeosek\modules\platform\clock\include\sr5e1\clock.h ****     }
1099:d:\project\9388\e1\2023_7_27\sr5e1_l9388_freeosek\modules\platform\clock\include\sr5e1\clock.h **** 
1100:d:\project\9388\e1\2023_7_27\sr5e1_l9388_freeosek\modules\platform\clock\include\sr5e1\clock.h ****     return RCC->AHB1HENR;
1101:d:\project\9388\e1\2023_7_27\sr5e1_l9388_freeosek\modules\platform\clock\include\sr5e1\clock.h **** }
1102:d:\project\9388\e1\2023_7_27\sr5e1_l9388_freeosek\modules\platform\clock\include\sr5e1\clock.h **** 
1103:d:\project\9388\e1\2023_7_27\sr5e1_l9388_freeosek\modules\platform\clock\include\sr5e1\clock.h **** /**
1104:d:\project\9388\e1\2023_7_27\sr5e1_l9388_freeosek\modules\platform\clock\include\sr5e1\clock.h ****  * @brief   Disables AHB1 peripherals clock [High Word]
1105:d:\project\9388\e1\2023_7_27\sr5e1_l9388_freeosek\modules\platform\clock\include\sr5e1\clock.h ****  *
1106:d:\project\9388\e1\2023_7_27\sr5e1_l9388_freeosek\modules\platform\clock\include\sr5e1\clock.h ****  * @param[in] m         peripheral clock to be disabled
1107:d:\project\9388\e1\2023_7_27\sr5e1_l9388_freeosek\modules\platform\clock\include\sr5e1\clock.h ****  * @return              value of register AHB1HENR after the update
1108:d:\project\9388\e1\2023_7_27\sr5e1_l9388_freeosek\modules\platform\clock\include\sr5e1\clock.h ****  *
1109:d:\project\9388\e1\2023_7_27\sr5e1_l9388_freeosek\modules\platform\clock\include\sr5e1\clock.h ****  * @api
1110:d:\project\9388\e1\2023_7_27\sr5e1_l9388_freeosek\modules\platform\clock\include\sr5e1\clock.h ****  */
1111:d:\project\9388\e1\2023_7_27\sr5e1_l9388_freeosek\modules\platform\clock\include\sr5e1\clock.h **** __STATIC_FORCEINLINE uint32_t clock_disable_AHB1H(uint32_t m) {
1112:d:\project\9388\e1\2023_7_27\sr5e1_l9388_freeosek\modules\platform\clock\include\sr5e1\clock.h **** 
1113:d:\project\9388\e1\2023_7_27\sr5e1_l9388_freeosek\modules\platform\clock\include\sr5e1\clock.h ****     RCC->AHB1HENR &= ~m;
1114:d:\project\9388\e1\2023_7_27\sr5e1_l9388_freeosek\modules\platform\clock\include\sr5e1\clock.h ****     RCC->C1_AHB1HSMENR &= ~m;
1115:d:\project\9388\e1\2023_7_27\sr5e1_l9388_freeosek\modules\platform\clock\include\sr5e1\clock.h **** #if CLOCK_CFG_SMP_MODE == TRUE
1116:d:\project\9388\e1\2023_7_27\sr5e1_l9388_freeosek\modules\platform\clock\include\sr5e1\clock.h ****     RCC->C2_AHB1HSMENR &= ~m;
1117:d:\project\9388\e1\2023_7_27\sr5e1_l9388_freeosek\modules\platform\clock\include\sr5e1\clock.h **** #endif
1118:d:\project\9388\e1\2023_7_27\sr5e1_l9388_freeosek\modules\platform\clock\include\sr5e1\clock.h **** 
1119:d:\project\9388\e1\2023_7_27\sr5e1_l9388_freeosek\modules\platform\clock\include\sr5e1\clock.h ****     return RCC->AHB1HENR;
1120:d:\project\9388\e1\2023_7_27\sr5e1_l9388_freeosek\modules\platform\clock\include\sr5e1\clock.h **** }
1121:d:\project\9388\e1\2023_7_27\sr5e1_l9388_freeosek\modules\platform\clock\include\sr5e1\clock.h **** 
1122:d:\project\9388\e1\2023_7_27\sr5e1_l9388_freeosek\modules\platform\clock\include\sr5e1\clock.h **** /**
1123:d:\project\9388\e1\2023_7_27\sr5e1_l9388_freeosek\modules\platform\clock\include\sr5e1\clock.h ****  * @brief   Checks if AHB1 peripheral clock [High Word] is enabled
1124:d:\project\9388\e1\2023_7_27\sr5e1_l9388_freeosek\modules\platform\clock\include\sr5e1\clock.h ****  *
1125:d:\project\9388\e1\2023_7_27\sr5e1_l9388_freeosek\modules\platform\clock\include\sr5e1\clock.h ****  * @param[in] m         peripheral clock to be checked
1126:d:\project\9388\e1\2023_7_27\sr5e1_l9388_freeosek\modules\platform\clock\include\sr5e1\clock.h ****  *
1127:d:\project\9388\e1\2023_7_27\sr5e1_l9388_freeosek\modules\platform\clock\include\sr5e1\clock.h ****  * @api
1128:d:\project\9388\e1\2023_7_27\sr5e1_l9388_freeosek\modules\platform\clock\include\sr5e1\clock.h ****  */
1129:d:\project\9388\e1\2023_7_27\sr5e1_l9388_freeosek\modules\platform\clock\include\sr5e1\clock.h **** __STATIC_FORCEINLINE bool is_clock_enable_AHB1H(uint32_t m) {
1130:d:\project\9388\e1\2023_7_27\sr5e1_l9388_freeosek\modules\platform\clock\include\sr5e1\clock.h **** 
1131:d:\project\9388\e1\2023_7_27\sr5e1_l9388_freeosek\modules\platform\clock\include\sr5e1\clock.h ****     return (((RCC->AHB1HENR & m) == m) ? true : false);
1132:d:\project\9388\e1\2023_7_27\sr5e1_l9388_freeosek\modules\platform\clock\include\sr5e1\clock.h **** }
1133:d:\project\9388\e1\2023_7_27\sr5e1_l9388_freeosek\modules\platform\clock\include\sr5e1\clock.h **** 
1134:d:\project\9388\e1\2023_7_27\sr5e1_l9388_freeosek\modules\platform\clock\include\sr5e1\clock.h **** /**
1135:d:\project\9388\e1\2023_7_27\sr5e1_l9388_freeosek\modules\platform\clock\include\sr5e1\clock.h ****  * @brief   Resets AHB1 peripherals [High Word]
1136:d:\project\9388\e1\2023_7_27\sr5e1_l9388_freeosek\modules\platform\clock\include\sr5e1\clock.h ****  *
1137:d:\project\9388\e1\2023_7_27\sr5e1_l9388_freeosek\modules\platform\clock\include\sr5e1\clock.h ****  * @param[in] m         peripheral to reset
1138:d:\project\9388\e1\2023_7_27\sr5e1_l9388_freeosek\modules\platform\clock\include\sr5e1\clock.h ****  *
1139:d:\project\9388\e1\2023_7_27\sr5e1_l9388_freeosek\modules\platform\clock\include\sr5e1\clock.h ****  * @api
1140:d:\project\9388\e1\2023_7_27\sr5e1_l9388_freeosek\modules\platform\clock\include\sr5e1\clock.h ****  */
1141:d:\project\9388\e1\2023_7_27\sr5e1_l9388_freeosek\modules\platform\clock\include\sr5e1\clock.h **** __STATIC_FORCEINLINE void clock_reset_AHB1H(uint32_t m) {
1142:d:\project\9388\e1\2023_7_27\sr5e1_l9388_freeosek\modules\platform\clock\include\sr5e1\clock.h **** 
1143:d:\project\9388\e1\2023_7_27\sr5e1_l9388_freeosek\modules\platform\clock\include\sr5e1\clock.h ****     RCC->AHB1HRSTR |= m;
1144:d:\project\9388\e1\2023_7_27\sr5e1_l9388_freeosek\modules\platform\clock\include\sr5e1\clock.h ****     RCC->AHB1HRSTR &= ~m;
1145:d:\project\9388\e1\2023_7_27\sr5e1_l9388_freeosek\modules\platform\clock\include\sr5e1\clock.h ****     (void)RCC->AHB1HRSTR;
1146:d:\project\9388\e1\2023_7_27\sr5e1_l9388_freeosek\modules\platform\clock\include\sr5e1\clock.h **** }
1147:d:\project\9388\e1\2023_7_27\sr5e1_l9388_freeosek\modules\platform\clock\include\sr5e1\clock.h **** 
1148:d:\project\9388\e1\2023_7_27\sr5e1_l9388_freeosek\modules\platform\clock\include\sr5e1\clock.h **** /**
1149:d:\project\9388\e1\2023_7_27\sr5e1_l9388_freeosek\modules\platform\clock\include\sr5e1\clock.h ****  * @brief   Enables AHB2 peripherals clock [Low Word]
1150:d:\project\9388\e1\2023_7_27\sr5e1_l9388_freeosek\modules\platform\clock\include\sr5e1\clock.h ****  *
1151:d:\project\9388\e1\2023_7_27\sr5e1_l9388_freeosek\modules\platform\clock\include\sr5e1\clock.h ****  * @param[in] smode     sleep mode (if true, peripheral clock is enabled in
1152:d:\project\9388\e1\2023_7_27\sr5e1_l9388_freeosek\modules\platform\clock\include\sr5e1\clock.h ****  *                      sleep mode)
1153:d:\project\9388\e1\2023_7_27\sr5e1_l9388_freeosek\modules\platform\clock\include\sr5e1\clock.h ****  * @param[in] m         peripheral clock to be enabled
1154:d:\project\9388\e1\2023_7_27\sr5e1_l9388_freeosek\modules\platform\clock\include\sr5e1\clock.h ****  * @return              value of register AHB2LENR after the update
1155:d:\project\9388\e1\2023_7_27\sr5e1_l9388_freeosek\modules\platform\clock\include\sr5e1\clock.h ****  *
1156:d:\project\9388\e1\2023_7_27\sr5e1_l9388_freeosek\modules\platform\clock\include\sr5e1\clock.h ****  * @api
1157:d:\project\9388\e1\2023_7_27\sr5e1_l9388_freeosek\modules\platform\clock\include\sr5e1\clock.h ****  */
1158:d:\project\9388\e1\2023_7_27\sr5e1_l9388_freeosek\modules\platform\clock\include\sr5e1\clock.h **** __STATIC_FORCEINLINE uint32_t clock_enable_AHB2L(bool smode, uint32_t m) {
1159:d:\project\9388\e1\2023_7_27\sr5e1_l9388_freeosek\modules\platform\clock\include\sr5e1\clock.h **** 
1160:d:\project\9388\e1\2023_7_27\sr5e1_l9388_freeosek\modules\platform\clock\include\sr5e1\clock.h ****     RCC->AHB2LENR |= m;
1161:d:\project\9388\e1\2023_7_27\sr5e1_l9388_freeosek\modules\platform\clock\include\sr5e1\clock.h ****     if (smode) {
1162:d:\project\9388\e1\2023_7_27\sr5e1_l9388_freeosek\modules\platform\clock\include\sr5e1\clock.h ****         RCC->C1_AHB2LSMENR |= m;
1163:d:\project\9388\e1\2023_7_27\sr5e1_l9388_freeosek\modules\platform\clock\include\sr5e1\clock.h **** #if CLOCK_CFG_SMP_MODE == TRUE
1164:d:\project\9388\e1\2023_7_27\sr5e1_l9388_freeosek\modules\platform\clock\include\sr5e1\clock.h ****         RCC->C2_AHB2LSMENR |= m;
1165:d:\project\9388\e1\2023_7_27\sr5e1_l9388_freeosek\modules\platform\clock\include\sr5e1\clock.h **** #endif
1166:d:\project\9388\e1\2023_7_27\sr5e1_l9388_freeosek\modules\platform\clock\include\sr5e1\clock.h ****     }
1167:d:\project\9388\e1\2023_7_27\sr5e1_l9388_freeosek\modules\platform\clock\include\sr5e1\clock.h ****     else {
1168:d:\project\9388\e1\2023_7_27\sr5e1_l9388_freeosek\modules\platform\clock\include\sr5e1\clock.h ****         RCC->C1_AHB2LSMENR &= ~m;
1169:d:\project\9388\e1\2023_7_27\sr5e1_l9388_freeosek\modules\platform\clock\include\sr5e1\clock.h **** #if CLOCK_CFG_SMP_MODE == TRUE
1170:d:\project\9388\e1\2023_7_27\sr5e1_l9388_freeosek\modules\platform\clock\include\sr5e1\clock.h ****         RCC->C2_AHB2LSMENR &= ~m;
1171:d:\project\9388\e1\2023_7_27\sr5e1_l9388_freeosek\modules\platform\clock\include\sr5e1\clock.h **** #endif
1172:d:\project\9388\e1\2023_7_27\sr5e1_l9388_freeosek\modules\platform\clock\include\sr5e1\clock.h ****     }
1173:d:\project\9388\e1\2023_7_27\sr5e1_l9388_freeosek\modules\platform\clock\include\sr5e1\clock.h **** 
1174:d:\project\9388\e1\2023_7_27\sr5e1_l9388_freeosek\modules\platform\clock\include\sr5e1\clock.h ****     return RCC->AHB2LENR;
1175:d:\project\9388\e1\2023_7_27\sr5e1_l9388_freeosek\modules\platform\clock\include\sr5e1\clock.h **** }
1176:d:\project\9388\e1\2023_7_27\sr5e1_l9388_freeosek\modules\platform\clock\include\sr5e1\clock.h **** 
1177:d:\project\9388\e1\2023_7_27\sr5e1_l9388_freeosek\modules\platform\clock\include\sr5e1\clock.h **** /**
1178:d:\project\9388\e1\2023_7_27\sr5e1_l9388_freeosek\modules\platform\clock\include\sr5e1\clock.h ****  * @brief   Disables AHB2 peripherals clock [Low Word]
1179:d:\project\9388\e1\2023_7_27\sr5e1_l9388_freeosek\modules\platform\clock\include\sr5e1\clock.h ****  *
1180:d:\project\9388\e1\2023_7_27\sr5e1_l9388_freeosek\modules\platform\clock\include\sr5e1\clock.h ****  * @param[in] m         peripheral clock to be disabled
1181:d:\project\9388\e1\2023_7_27\sr5e1_l9388_freeosek\modules\platform\clock\include\sr5e1\clock.h ****  * @return              value of register AHB2LENR after the update
1182:d:\project\9388\e1\2023_7_27\sr5e1_l9388_freeosek\modules\platform\clock\include\sr5e1\clock.h ****  *
1183:d:\project\9388\e1\2023_7_27\sr5e1_l9388_freeosek\modules\platform\clock\include\sr5e1\clock.h ****  * @api
1184:d:\project\9388\e1\2023_7_27\sr5e1_l9388_freeosek\modules\platform\clock\include\sr5e1\clock.h ****  */
1185:d:\project\9388\e1\2023_7_27\sr5e1_l9388_freeosek\modules\platform\clock\include\sr5e1\clock.h **** __STATIC_FORCEINLINE uint32_t clock_disable_AHB2L(uint32_t m) {
1186:d:\project\9388\e1\2023_7_27\sr5e1_l9388_freeosek\modules\platform\clock\include\sr5e1\clock.h **** 
1187:d:\project\9388\e1\2023_7_27\sr5e1_l9388_freeosek\modules\platform\clock\include\sr5e1\clock.h ****     RCC->AHB2LENR &= ~m;
1188:d:\project\9388\e1\2023_7_27\sr5e1_l9388_freeosek\modules\platform\clock\include\sr5e1\clock.h ****     RCC->C1_AHB2LSMENR &= ~m;
1189:d:\project\9388\e1\2023_7_27\sr5e1_l9388_freeosek\modules\platform\clock\include\sr5e1\clock.h **** #if CLOCK_CFG_SMP_MODE == TRUE
1190:d:\project\9388\e1\2023_7_27\sr5e1_l9388_freeosek\modules\platform\clock\include\sr5e1\clock.h ****     RCC->C2_AHB2LSMENR &= ~m;
1191:d:\project\9388\e1\2023_7_27\sr5e1_l9388_freeosek\modules\platform\clock\include\sr5e1\clock.h **** #endif
1192:d:\project\9388\e1\2023_7_27\sr5e1_l9388_freeosek\modules\platform\clock\include\sr5e1\clock.h **** 
1193:d:\project\9388\e1\2023_7_27\sr5e1_l9388_freeosek\modules\platform\clock\include\sr5e1\clock.h ****     return RCC->AHB2LENR;
1194:d:\project\9388\e1\2023_7_27\sr5e1_l9388_freeosek\modules\platform\clock\include\sr5e1\clock.h **** }
1195:d:\project\9388\e1\2023_7_27\sr5e1_l9388_freeosek\modules\platform\clock\include\sr5e1\clock.h **** 
1196:d:\project\9388\e1\2023_7_27\sr5e1_l9388_freeosek\modules\platform\clock\include\sr5e1\clock.h **** /**
1197:d:\project\9388\e1\2023_7_27\sr5e1_l9388_freeosek\modules\platform\clock\include\sr5e1\clock.h ****  * @brief   Checks if AHB2 peripheral clock [Low Word] is enabled
1198:d:\project\9388\e1\2023_7_27\sr5e1_l9388_freeosek\modules\platform\clock\include\sr5e1\clock.h ****  *
1199:d:\project\9388\e1\2023_7_27\sr5e1_l9388_freeosek\modules\platform\clock\include\sr5e1\clock.h ****  * @param[in] m         peripheral clock to be checked
1200:d:\project\9388\e1\2023_7_27\sr5e1_l9388_freeosek\modules\platform\clock\include\sr5e1\clock.h ****  *
1201:d:\project\9388\e1\2023_7_27\sr5e1_l9388_freeosek\modules\platform\clock\include\sr5e1\clock.h ****  * @api
1202:d:\project\9388\e1\2023_7_27\sr5e1_l9388_freeosek\modules\platform\clock\include\sr5e1\clock.h ****  */
1203:d:\project\9388\e1\2023_7_27\sr5e1_l9388_freeosek\modules\platform\clock\include\sr5e1\clock.h **** __STATIC_FORCEINLINE bool is_clock_enable_AHB2L(uint32_t m) {
1204:d:\project\9388\e1\2023_7_27\sr5e1_l9388_freeosek\modules\platform\clock\include\sr5e1\clock.h **** 
1205:d:\project\9388\e1\2023_7_27\sr5e1_l9388_freeosek\modules\platform\clock\include\sr5e1\clock.h ****     return (((RCC->AHB2LENR & m) == m) ? true : false);
1206:d:\project\9388\e1\2023_7_27\sr5e1_l9388_freeosek\modules\platform\clock\include\sr5e1\clock.h **** }
1207:d:\project\9388\e1\2023_7_27\sr5e1_l9388_freeosek\modules\platform\clock\include\sr5e1\clock.h **** 
1208:d:\project\9388\e1\2023_7_27\sr5e1_l9388_freeosek\modules\platform\clock\include\sr5e1\clock.h **** /**
1209:d:\project\9388\e1\2023_7_27\sr5e1_l9388_freeosek\modules\platform\clock\include\sr5e1\clock.h ****  * @brief   Resets AHB2 peripherals [Low Word]
1210:d:\project\9388\e1\2023_7_27\sr5e1_l9388_freeosek\modules\platform\clock\include\sr5e1\clock.h ****  *
1211:d:\project\9388\e1\2023_7_27\sr5e1_l9388_freeosek\modules\platform\clock\include\sr5e1\clock.h ****  * @param[in] m         peripheral to reset
1212:d:\project\9388\e1\2023_7_27\sr5e1_l9388_freeosek\modules\platform\clock\include\sr5e1\clock.h ****  *
1213:d:\project\9388\e1\2023_7_27\sr5e1_l9388_freeosek\modules\platform\clock\include\sr5e1\clock.h ****  * @api
1214:d:\project\9388\e1\2023_7_27\sr5e1_l9388_freeosek\modules\platform\clock\include\sr5e1\clock.h ****  */
1215:d:\project\9388\e1\2023_7_27\sr5e1_l9388_freeosek\modules\platform\clock\include\sr5e1\clock.h **** __STATIC_FORCEINLINE void clock_reset_AHB2L(uint32_t m) {
1216:d:\project\9388\e1\2023_7_27\sr5e1_l9388_freeosek\modules\platform\clock\include\sr5e1\clock.h **** 
1217:d:\project\9388\e1\2023_7_27\sr5e1_l9388_freeosek\modules\platform\clock\include\sr5e1\clock.h ****     RCC->AHB2LRSTR |= m;
1218:d:\project\9388\e1\2023_7_27\sr5e1_l9388_freeosek\modules\platform\clock\include\sr5e1\clock.h ****     RCC->AHB2LRSTR &= ~m;
1219:d:\project\9388\e1\2023_7_27\sr5e1_l9388_freeosek\modules\platform\clock\include\sr5e1\clock.h ****     (void)RCC->AHB2LRSTR;
1220:d:\project\9388\e1\2023_7_27\sr5e1_l9388_freeosek\modules\platform\clock\include\sr5e1\clock.h **** }
1221:d:\project\9388\e1\2023_7_27\sr5e1_l9388_freeosek\modules\platform\clock\include\sr5e1\clock.h **** 
1222:d:\project\9388\e1\2023_7_27\sr5e1_l9388_freeosek\modules\platform\clock\include\sr5e1\clock.h **** /**
1223:d:\project\9388\e1\2023_7_27\sr5e1_l9388_freeosek\modules\platform\clock\include\sr5e1\clock.h ****  * @brief   Enables AHB2 peripherals clock [High Word]
1224:d:\project\9388\e1\2023_7_27\sr5e1_l9388_freeosek\modules\platform\clock\include\sr5e1\clock.h ****  *
1225:d:\project\9388\e1\2023_7_27\sr5e1_l9388_freeosek\modules\platform\clock\include\sr5e1\clock.h ****  * @param[in] smode     sleep mode (if true, peripheral clock is enabled in
1226:d:\project\9388\e1\2023_7_27\sr5e1_l9388_freeosek\modules\platform\clock\include\sr5e1\clock.h ****  *                      sleep mode)
1227:d:\project\9388\e1\2023_7_27\sr5e1_l9388_freeosek\modules\platform\clock\include\sr5e1\clock.h ****  * @param[in] m         peripheral clock to be enabled
1228:d:\project\9388\e1\2023_7_27\sr5e1_l9388_freeosek\modules\platform\clock\include\sr5e1\clock.h ****  * @return              value of register AHB2HENR after the update
1229:d:\project\9388\e1\2023_7_27\sr5e1_l9388_freeosek\modules\platform\clock\include\sr5e1\clock.h ****  *
1230:d:\project\9388\e1\2023_7_27\sr5e1_l9388_freeosek\modules\platform\clock\include\sr5e1\clock.h ****  * @api
1231:d:\project\9388\e1\2023_7_27\sr5e1_l9388_freeosek\modules\platform\clock\include\sr5e1\clock.h ****  */
1232:d:\project\9388\e1\2023_7_27\sr5e1_l9388_freeosek\modules\platform\clock\include\sr5e1\clock.h **** __STATIC_FORCEINLINE uint32_t clock_enable_AHB2H(bool smode, uint32_t m) {
1233:d:\project\9388\e1\2023_7_27\sr5e1_l9388_freeosek\modules\platform\clock\include\sr5e1\clock.h **** 
1234:d:\project\9388\e1\2023_7_27\sr5e1_l9388_freeosek\modules\platform\clock\include\sr5e1\clock.h ****     RCC->AHB2HENR |= m;
1235:d:\project\9388\e1\2023_7_27\sr5e1_l9388_freeosek\modules\platform\clock\include\sr5e1\clock.h ****     if (smode) {
1236:d:\project\9388\e1\2023_7_27\sr5e1_l9388_freeosek\modules\platform\clock\include\sr5e1\clock.h ****         RCC->C1_AHB2HSMENR |= m;
1237:d:\project\9388\e1\2023_7_27\sr5e1_l9388_freeosek\modules\platform\clock\include\sr5e1\clock.h **** #if CLOCK_CFG_SMP_MODE == TRUE
1238:d:\project\9388\e1\2023_7_27\sr5e1_l9388_freeosek\modules\platform\clock\include\sr5e1\clock.h ****         RCC->C2_AHB2HSMENR |= m;
1239:d:\project\9388\e1\2023_7_27\sr5e1_l9388_freeosek\modules\platform\clock\include\sr5e1\clock.h **** #endif
1240:d:\project\9388\e1\2023_7_27\sr5e1_l9388_freeosek\modules\platform\clock\include\sr5e1\clock.h ****     }
1241:d:\project\9388\e1\2023_7_27\sr5e1_l9388_freeosek\modules\platform\clock\include\sr5e1\clock.h ****     else {
1242:d:\project\9388\e1\2023_7_27\sr5e1_l9388_freeosek\modules\platform\clock\include\sr5e1\clock.h ****         RCC->C1_AHB2HSMENR &= ~m;
1243:d:\project\9388\e1\2023_7_27\sr5e1_l9388_freeosek\modules\platform\clock\include\sr5e1\clock.h **** #if CLOCK_CFG_SMP_MODE == TRUE
1244:d:\project\9388\e1\2023_7_27\sr5e1_l9388_freeosek\modules\platform\clock\include\sr5e1\clock.h ****         RCC->C2_AHB2HSMENR &= ~m;
1245:d:\project\9388\e1\2023_7_27\sr5e1_l9388_freeosek\modules\platform\clock\include\sr5e1\clock.h **** #endif
1246:d:\project\9388\e1\2023_7_27\sr5e1_l9388_freeosek\modules\platform\clock\include\sr5e1\clock.h ****     }
1247:d:\project\9388\e1\2023_7_27\sr5e1_l9388_freeosek\modules\platform\clock\include\sr5e1\clock.h **** 
1248:d:\project\9388\e1\2023_7_27\sr5e1_l9388_freeosek\modules\platform\clock\include\sr5e1\clock.h ****     return RCC->AHB2HENR;
1249:d:\project\9388\e1\2023_7_27\sr5e1_l9388_freeosek\modules\platform\clock\include\sr5e1\clock.h **** }
1250:d:\project\9388\e1\2023_7_27\sr5e1_l9388_freeosek\modules\platform\clock\include\sr5e1\clock.h **** 
1251:d:\project\9388\e1\2023_7_27\sr5e1_l9388_freeosek\modules\platform\clock\include\sr5e1\clock.h **** /**
1252:d:\project\9388\e1\2023_7_27\sr5e1_l9388_freeosek\modules\platform\clock\include\sr5e1\clock.h ****  * @brief   Disables AHB2 peripherals clock [High Word]
1253:d:\project\9388\e1\2023_7_27\sr5e1_l9388_freeosek\modules\platform\clock\include\sr5e1\clock.h ****  *
1254:d:\project\9388\e1\2023_7_27\sr5e1_l9388_freeosek\modules\platform\clock\include\sr5e1\clock.h ****  * @param[in] m         peripheral clock to be disabled
1255:d:\project\9388\e1\2023_7_27\sr5e1_l9388_freeosek\modules\platform\clock\include\sr5e1\clock.h ****  * @return              value of register AHB2HENR after the update
1256:d:\project\9388\e1\2023_7_27\sr5e1_l9388_freeosek\modules\platform\clock\include\sr5e1\clock.h ****  *
1257:d:\project\9388\e1\2023_7_27\sr5e1_l9388_freeosek\modules\platform\clock\include\sr5e1\clock.h ****  * @api
1258:d:\project\9388\e1\2023_7_27\sr5e1_l9388_freeosek\modules\platform\clock\include\sr5e1\clock.h ****  */
1259:d:\project\9388\e1\2023_7_27\sr5e1_l9388_freeosek\modules\platform\clock\include\sr5e1\clock.h **** __STATIC_FORCEINLINE uint32_t clock_disable_AHB2H(uint32_t m) {
1260:d:\project\9388\e1\2023_7_27\sr5e1_l9388_freeosek\modules\platform\clock\include\sr5e1\clock.h **** 
1261:d:\project\9388\e1\2023_7_27\sr5e1_l9388_freeosek\modules\platform\clock\include\sr5e1\clock.h ****     RCC->AHB2HENR &= ~m;
1262:d:\project\9388\e1\2023_7_27\sr5e1_l9388_freeosek\modules\platform\clock\include\sr5e1\clock.h ****     RCC->C1_AHB2HSMENR &= ~m;
1263:d:\project\9388\e1\2023_7_27\sr5e1_l9388_freeosek\modules\platform\clock\include\sr5e1\clock.h **** #if CLOCK_CFG_SMP_MODE == TRUE
1264:d:\project\9388\e1\2023_7_27\sr5e1_l9388_freeosek\modules\platform\clock\include\sr5e1\clock.h ****     RCC->C2_AHB2HSMENR &= ~m;
1265:d:\project\9388\e1\2023_7_27\sr5e1_l9388_freeosek\modules\platform\clock\include\sr5e1\clock.h **** #endif
1266:d:\project\9388\e1\2023_7_27\sr5e1_l9388_freeosek\modules\platform\clock\include\sr5e1\clock.h **** 
1267:d:\project\9388\e1\2023_7_27\sr5e1_l9388_freeosek\modules\platform\clock\include\sr5e1\clock.h ****     return RCC->AHB2HENR;
1268:d:\project\9388\e1\2023_7_27\sr5e1_l9388_freeosek\modules\platform\clock\include\sr5e1\clock.h **** }
1269:d:\project\9388\e1\2023_7_27\sr5e1_l9388_freeosek\modules\platform\clock\include\sr5e1\clock.h **** 
1270:d:\project\9388\e1\2023_7_27\sr5e1_l9388_freeosek\modules\platform\clock\include\sr5e1\clock.h **** /**
1271:d:\project\9388\e1\2023_7_27\sr5e1_l9388_freeosek\modules\platform\clock\include\sr5e1\clock.h ****  * @brief   Checks if AHB2 peripheral clock [High Word] is enabled
1272:d:\project\9388\e1\2023_7_27\sr5e1_l9388_freeosek\modules\platform\clock\include\sr5e1\clock.h ****  *
1273:d:\project\9388\e1\2023_7_27\sr5e1_l9388_freeosek\modules\platform\clock\include\sr5e1\clock.h ****  * @param[in] m         peripheral clock to be checked
1274:d:\project\9388\e1\2023_7_27\sr5e1_l9388_freeosek\modules\platform\clock\include\sr5e1\clock.h ****  *
1275:d:\project\9388\e1\2023_7_27\sr5e1_l9388_freeosek\modules\platform\clock\include\sr5e1\clock.h ****  * @api
1276:d:\project\9388\e1\2023_7_27\sr5e1_l9388_freeosek\modules\platform\clock\include\sr5e1\clock.h ****  */
1277:d:\project\9388\e1\2023_7_27\sr5e1_l9388_freeosek\modules\platform\clock\include\sr5e1\clock.h **** __STATIC_FORCEINLINE bool is_clock_enable_AHB2H(uint32_t m) {
1278:d:\project\9388\e1\2023_7_27\sr5e1_l9388_freeosek\modules\platform\clock\include\sr5e1\clock.h **** 
1279:d:\project\9388\e1\2023_7_27\sr5e1_l9388_freeosek\modules\platform\clock\include\sr5e1\clock.h ****     return (((RCC->AHB2HENR & m) == m) ? true : false);
1280:d:\project\9388\e1\2023_7_27\sr5e1_l9388_freeosek\modules\platform\clock\include\sr5e1\clock.h **** }
1281:d:\project\9388\e1\2023_7_27\sr5e1_l9388_freeosek\modules\platform\clock\include\sr5e1\clock.h **** 
1282:d:\project\9388\e1\2023_7_27\sr5e1_l9388_freeosek\modules\platform\clock\include\sr5e1\clock.h **** /**
1283:d:\project\9388\e1\2023_7_27\sr5e1_l9388_freeosek\modules\platform\clock\include\sr5e1\clock.h ****  * @brief   Resets AHB2 peripherals [High Word]
1284:d:\project\9388\e1\2023_7_27\sr5e1_l9388_freeosek\modules\platform\clock\include\sr5e1\clock.h ****  *
1285:d:\project\9388\e1\2023_7_27\sr5e1_l9388_freeosek\modules\platform\clock\include\sr5e1\clock.h ****  * @param[in] m         peripheral to reset
1286:d:\project\9388\e1\2023_7_27\sr5e1_l9388_freeosek\modules\platform\clock\include\sr5e1\clock.h ****  *
1287:d:\project\9388\e1\2023_7_27\sr5e1_l9388_freeosek\modules\platform\clock\include\sr5e1\clock.h ****  * @api
1288:d:\project\9388\e1\2023_7_27\sr5e1_l9388_freeosek\modules\platform\clock\include\sr5e1\clock.h ****  */
1289:d:\project\9388\e1\2023_7_27\sr5e1_l9388_freeosek\modules\platform\clock\include\sr5e1\clock.h **** __STATIC_FORCEINLINE void clock_reset_AHB2H(uint32_t m) {
1290:d:\project\9388\e1\2023_7_27\sr5e1_l9388_freeosek\modules\platform\clock\include\sr5e1\clock.h **** 
1291:d:\project\9388\e1\2023_7_27\sr5e1_l9388_freeosek\modules\platform\clock\include\sr5e1\clock.h ****     RCC->AHB2HRSTR |= m;
1292:d:\project\9388\e1\2023_7_27\sr5e1_l9388_freeosek\modules\platform\clock\include\sr5e1\clock.h ****     RCC->AHB2HRSTR &= ~m;
1293:d:\project\9388\e1\2023_7_27\sr5e1_l9388_freeosek\modules\platform\clock\include\sr5e1\clock.h ****     (void)RCC->AHB2HRSTR;
1294:d:\project\9388\e1\2023_7_27\sr5e1_l9388_freeosek\modules\platform\clock\include\sr5e1\clock.h **** }
1295:d:\project\9388\e1\2023_7_27\sr5e1_l9388_freeosek\modules\platform\clock\include\sr5e1\clock.h **** 
1296:d:\project\9388\e1\2023_7_27\sr5e1_l9388_freeosek\modules\platform\clock\include\sr5e1\clock.h **** /**
1297:d:\project\9388\e1\2023_7_27\sr5e1_l9388_freeosek\modules\platform\clock\include\sr5e1\clock.h ****  * @brief   Enables APB1 peripherals clock [Low Word]
1298:d:\project\9388\e1\2023_7_27\sr5e1_l9388_freeosek\modules\platform\clock\include\sr5e1\clock.h ****  *
1299:d:\project\9388\e1\2023_7_27\sr5e1_l9388_freeosek\modules\platform\clock\include\sr5e1\clock.h ****  * @param[in] smode     sleep mode (if true, peripheral clock is enabled in
1300:d:\project\9388\e1\2023_7_27\sr5e1_l9388_freeosek\modules\platform\clock\include\sr5e1\clock.h ****  *                      sleep mode)
1301:d:\project\9388\e1\2023_7_27\sr5e1_l9388_freeosek\modules\platform\clock\include\sr5e1\clock.h ****  * @param[in] m         peripheral clock to be enabled
1302:d:\project\9388\e1\2023_7_27\sr5e1_l9388_freeosek\modules\platform\clock\include\sr5e1\clock.h ****  * @return              value of register APB1LENR after the update
1303:d:\project\9388\e1\2023_7_27\sr5e1_l9388_freeosek\modules\platform\clock\include\sr5e1\clock.h ****  *
1304:d:\project\9388\e1\2023_7_27\sr5e1_l9388_freeosek\modules\platform\clock\include\sr5e1\clock.h ****  * @api
1305:d:\project\9388\e1\2023_7_27\sr5e1_l9388_freeosek\modules\platform\clock\include\sr5e1\clock.h ****  */
1306:d:\project\9388\e1\2023_7_27\sr5e1_l9388_freeosek\modules\platform\clock\include\sr5e1\clock.h **** __STATIC_FORCEINLINE uint32_t clock_enable_APB1L(bool smode, uint32_t m) {
1307:d:\project\9388\e1\2023_7_27\sr5e1_l9388_freeosek\modules\platform\clock\include\sr5e1\clock.h **** 
1308:d:\project\9388\e1\2023_7_27\sr5e1_l9388_freeosek\modules\platform\clock\include\sr5e1\clock.h ****     RCC->APB1LENR |= m;
1309:d:\project\9388\e1\2023_7_27\sr5e1_l9388_freeosek\modules\platform\clock\include\sr5e1\clock.h ****     if (smode) {
1310:d:\project\9388\e1\2023_7_27\sr5e1_l9388_freeosek\modules\platform\clock\include\sr5e1\clock.h ****         RCC->C1_APB1LSMENR |= m;
1311:d:\project\9388\e1\2023_7_27\sr5e1_l9388_freeosek\modules\platform\clock\include\sr5e1\clock.h **** #if CLOCK_CFG_SMP_MODE == TRUE
1312:d:\project\9388\e1\2023_7_27\sr5e1_l9388_freeosek\modules\platform\clock\include\sr5e1\clock.h ****         RCC->C2_APB1LSMENR |= m;
1313:d:\project\9388\e1\2023_7_27\sr5e1_l9388_freeosek\modules\platform\clock\include\sr5e1\clock.h **** #endif
1314:d:\project\9388\e1\2023_7_27\sr5e1_l9388_freeosek\modules\platform\clock\include\sr5e1\clock.h ****     }
1315:d:\project\9388\e1\2023_7_27\sr5e1_l9388_freeosek\modules\platform\clock\include\sr5e1\clock.h ****     else {
1316:d:\project\9388\e1\2023_7_27\sr5e1_l9388_freeosek\modules\platform\clock\include\sr5e1\clock.h ****         RCC->C1_APB1LSMENR &= ~m;
1317:d:\project\9388\e1\2023_7_27\sr5e1_l9388_freeosek\modules\platform\clock\include\sr5e1\clock.h **** #if CLOCK_CFG_SMP_MODE == TRUE
1318:d:\project\9388\e1\2023_7_27\sr5e1_l9388_freeosek\modules\platform\clock\include\sr5e1\clock.h ****         RCC->C2_APB1LSMENR &= ~m;
1319:d:\project\9388\e1\2023_7_27\sr5e1_l9388_freeosek\modules\platform\clock\include\sr5e1\clock.h **** #endif
1320:d:\project\9388\e1\2023_7_27\sr5e1_l9388_freeosek\modules\platform\clock\include\sr5e1\clock.h ****     }
1321:d:\project\9388\e1\2023_7_27\sr5e1_l9388_freeosek\modules\platform\clock\include\sr5e1\clock.h **** 
1322:d:\project\9388\e1\2023_7_27\sr5e1_l9388_freeosek\modules\platform\clock\include\sr5e1\clock.h ****     return RCC->APB1LENR;
1323:d:\project\9388\e1\2023_7_27\sr5e1_l9388_freeosek\modules\platform\clock\include\sr5e1\clock.h **** }
1324:d:\project\9388\e1\2023_7_27\sr5e1_l9388_freeosek\modules\platform\clock\include\sr5e1\clock.h **** 
1325:d:\project\9388\e1\2023_7_27\sr5e1_l9388_freeosek\modules\platform\clock\include\sr5e1\clock.h **** /**
1326:d:\project\9388\e1\2023_7_27\sr5e1_l9388_freeosek\modules\platform\clock\include\sr5e1\clock.h ****  * @brief   Disables APB1 peripherals clock [Low Word]
1327:d:\project\9388\e1\2023_7_27\sr5e1_l9388_freeosek\modules\platform\clock\include\sr5e1\clock.h ****  *
1328:d:\project\9388\e1\2023_7_27\sr5e1_l9388_freeosek\modules\platform\clock\include\sr5e1\clock.h ****  * @param[in] m         peripheral clock to be disabled
1329:d:\project\9388\e1\2023_7_27\sr5e1_l9388_freeosek\modules\platform\clock\include\sr5e1\clock.h ****  * @return              value of register APB1LENR after the update
1330:d:\project\9388\e1\2023_7_27\sr5e1_l9388_freeosek\modules\platform\clock\include\sr5e1\clock.h ****  *
1331:d:\project\9388\e1\2023_7_27\sr5e1_l9388_freeosek\modules\platform\clock\include\sr5e1\clock.h ****  * @api
1332:d:\project\9388\e1\2023_7_27\sr5e1_l9388_freeosek\modules\platform\clock\include\sr5e1\clock.h ****  */
1333:d:\project\9388\e1\2023_7_27\sr5e1_l9388_freeosek\modules\platform\clock\include\sr5e1\clock.h **** __STATIC_FORCEINLINE uint32_t clock_disable_APB1L(uint32_t m) {
1334:d:\project\9388\e1\2023_7_27\sr5e1_l9388_freeosek\modules\platform\clock\include\sr5e1\clock.h **** 
1335:d:\project\9388\e1\2023_7_27\sr5e1_l9388_freeosek\modules\platform\clock\include\sr5e1\clock.h ****     RCC->APB1LENR &= ~m;
1336:d:\project\9388\e1\2023_7_27\sr5e1_l9388_freeosek\modules\platform\clock\include\sr5e1\clock.h ****     RCC->C1_APB1LSMENR &= ~m;
1337:d:\project\9388\e1\2023_7_27\sr5e1_l9388_freeosek\modules\platform\clock\include\sr5e1\clock.h **** #if CLOCK_CFG_SMP_MODE == TRUE
1338:d:\project\9388\e1\2023_7_27\sr5e1_l9388_freeosek\modules\platform\clock\include\sr5e1\clock.h ****     RCC->C2_APB1LSMENR &= ~m;
1339:d:\project\9388\e1\2023_7_27\sr5e1_l9388_freeosek\modules\platform\clock\include\sr5e1\clock.h **** #endif
1340:d:\project\9388\e1\2023_7_27\sr5e1_l9388_freeosek\modules\platform\clock\include\sr5e1\clock.h **** 
1341:d:\project\9388\e1\2023_7_27\sr5e1_l9388_freeosek\modules\platform\clock\include\sr5e1\clock.h ****     return RCC->APB1LENR;
1342:d:\project\9388\e1\2023_7_27\sr5e1_l9388_freeosek\modules\platform\clock\include\sr5e1\clock.h **** }
1343:d:\project\9388\e1\2023_7_27\sr5e1_l9388_freeosek\modules\platform\clock\include\sr5e1\clock.h **** 
1344:d:\project\9388\e1\2023_7_27\sr5e1_l9388_freeosek\modules\platform\clock\include\sr5e1\clock.h **** /**
1345:d:\project\9388\e1\2023_7_27\sr5e1_l9388_freeosek\modules\platform\clock\include\sr5e1\clock.h ****  * @brief   Checks if APB1 peripheral clock [Low Word] is enabled
1346:d:\project\9388\e1\2023_7_27\sr5e1_l9388_freeosek\modules\platform\clock\include\sr5e1\clock.h ****  *
1347:d:\project\9388\e1\2023_7_27\sr5e1_l9388_freeosek\modules\platform\clock\include\sr5e1\clock.h ****  * @param[in] m         peripheral clock to be checked
1348:d:\project\9388\e1\2023_7_27\sr5e1_l9388_freeosek\modules\platform\clock\include\sr5e1\clock.h ****  *
1349:d:\project\9388\e1\2023_7_27\sr5e1_l9388_freeosek\modules\platform\clock\include\sr5e1\clock.h ****  * @api
1350:d:\project\9388\e1\2023_7_27\sr5e1_l9388_freeosek\modules\platform\clock\include\sr5e1\clock.h ****  */
1351:d:\project\9388\e1\2023_7_27\sr5e1_l9388_freeosek\modules\platform\clock\include\sr5e1\clock.h **** __STATIC_FORCEINLINE bool is_clock_enable_APB1L(uint32_t m) {
1352:d:\project\9388\e1\2023_7_27\sr5e1_l9388_freeosek\modules\platform\clock\include\sr5e1\clock.h **** 
1353:d:\project\9388\e1\2023_7_27\sr5e1_l9388_freeosek\modules\platform\clock\include\sr5e1\clock.h ****     return (((RCC->APB1LENR & m) == m) ? true : false);
1354:d:\project\9388\e1\2023_7_27\sr5e1_l9388_freeosek\modules\platform\clock\include\sr5e1\clock.h **** }
1355:d:\project\9388\e1\2023_7_27\sr5e1_l9388_freeosek\modules\platform\clock\include\sr5e1\clock.h **** 
1356:d:\project\9388\e1\2023_7_27\sr5e1_l9388_freeosek\modules\platform\clock\include\sr5e1\clock.h **** /**
1357:d:\project\9388\e1\2023_7_27\sr5e1_l9388_freeosek\modules\platform\clock\include\sr5e1\clock.h ****  * @brief   Resets APB1 peripherals [Low Word]
1358:d:\project\9388\e1\2023_7_27\sr5e1_l9388_freeosek\modules\platform\clock\include\sr5e1\clock.h ****  *
1359:d:\project\9388\e1\2023_7_27\sr5e1_l9388_freeosek\modules\platform\clock\include\sr5e1\clock.h ****  * @param[in] m         peripheral to reset
1360:d:\project\9388\e1\2023_7_27\sr5e1_l9388_freeosek\modules\platform\clock\include\sr5e1\clock.h ****  *
1361:d:\project\9388\e1\2023_7_27\sr5e1_l9388_freeosek\modules\platform\clock\include\sr5e1\clock.h ****  * @api
1362:d:\project\9388\e1\2023_7_27\sr5e1_l9388_freeosek\modules\platform\clock\include\sr5e1\clock.h ****  */
1363:d:\project\9388\e1\2023_7_27\sr5e1_l9388_freeosek\modules\platform\clock\include\sr5e1\clock.h **** __STATIC_FORCEINLINE void clock_reset_APB1L(uint32_t m) {
1364:d:\project\9388\e1\2023_7_27\sr5e1_l9388_freeosek\modules\platform\clock\include\sr5e1\clock.h **** 
1365:d:\project\9388\e1\2023_7_27\sr5e1_l9388_freeosek\modules\platform\clock\include\sr5e1\clock.h ****     RCC->APB1LRSTR |= m;
1366:d:\project\9388\e1\2023_7_27\sr5e1_l9388_freeosek\modules\platform\clock\include\sr5e1\clock.h ****     RCC->APB1LRSTR &= ~m;
1367:d:\project\9388\e1\2023_7_27\sr5e1_l9388_freeosek\modules\platform\clock\include\sr5e1\clock.h ****     (void)RCC->APB1LRSTR;
1368:d:\project\9388\e1\2023_7_27\sr5e1_l9388_freeosek\modules\platform\clock\include\sr5e1\clock.h **** }
1369:d:\project\9388\e1\2023_7_27\sr5e1_l9388_freeosek\modules\platform\clock\include\sr5e1\clock.h **** 
1370:d:\project\9388\e1\2023_7_27\sr5e1_l9388_freeosek\modules\platform\clock\include\sr5e1\clock.h **** /**
1371:d:\project\9388\e1\2023_7_27\sr5e1_l9388_freeosek\modules\platform\clock\include\sr5e1\clock.h ****  * @brief   Enables APB2 peripherals clock [Low Word]
1372:d:\project\9388\e1\2023_7_27\sr5e1_l9388_freeosek\modules\platform\clock\include\sr5e1\clock.h ****  *
1373:d:\project\9388\e1\2023_7_27\sr5e1_l9388_freeosek\modules\platform\clock\include\sr5e1\clock.h ****  * @param[in] smode     sleep mode (if true, peripheral clock is enabled in
1374:d:\project\9388\e1\2023_7_27\sr5e1_l9388_freeosek\modules\platform\clock\include\sr5e1\clock.h ****  *                      sleep mode)
1375:d:\project\9388\e1\2023_7_27\sr5e1_l9388_freeosek\modules\platform\clock\include\sr5e1\clock.h ****  * @param[in] m         peripheral clock to be enabled
1376:d:\project\9388\e1\2023_7_27\sr5e1_l9388_freeosek\modules\platform\clock\include\sr5e1\clock.h ****  * @return              value of register APB2LENR after the update
1377:d:\project\9388\e1\2023_7_27\sr5e1_l9388_freeosek\modules\platform\clock\include\sr5e1\clock.h ****  *
1378:d:\project\9388\e1\2023_7_27\sr5e1_l9388_freeosek\modules\platform\clock\include\sr5e1\clock.h ****  * @api
1379:d:\project\9388\e1\2023_7_27\sr5e1_l9388_freeosek\modules\platform\clock\include\sr5e1\clock.h ****  */
1380:d:\project\9388\e1\2023_7_27\sr5e1_l9388_freeosek\modules\platform\clock\include\sr5e1\clock.h **** __STATIC_FORCEINLINE uint32_t clock_enable_APB2L(bool smode, uint32_t m) {
1381:d:\project\9388\e1\2023_7_27\sr5e1_l9388_freeosek\modules\platform\clock\include\sr5e1\clock.h **** 
1382:d:\project\9388\e1\2023_7_27\sr5e1_l9388_freeosek\modules\platform\clock\include\sr5e1\clock.h ****     RCC->APB2LENR |= m;
1383:d:\project\9388\e1\2023_7_27\sr5e1_l9388_freeosek\modules\platform\clock\include\sr5e1\clock.h ****     if (smode) {
1384:d:\project\9388\e1\2023_7_27\sr5e1_l9388_freeosek\modules\platform\clock\include\sr5e1\clock.h ****         RCC->C1_APB2LSMENR |= m;
1385:d:\project\9388\e1\2023_7_27\sr5e1_l9388_freeosek\modules\platform\clock\include\sr5e1\clock.h **** #if CLOCK_CFG_SMP_MODE == TRUE
1386:d:\project\9388\e1\2023_7_27\sr5e1_l9388_freeosek\modules\platform\clock\include\sr5e1\clock.h ****         RCC->C2_APB2LSMENR |= m;
1387:d:\project\9388\e1\2023_7_27\sr5e1_l9388_freeosek\modules\platform\clock\include\sr5e1\clock.h **** #endif
1388:d:\project\9388\e1\2023_7_27\sr5e1_l9388_freeosek\modules\platform\clock\include\sr5e1\clock.h ****     }
1389:d:\project\9388\e1\2023_7_27\sr5e1_l9388_freeosek\modules\platform\clock\include\sr5e1\clock.h ****     else {
1390:d:\project\9388\e1\2023_7_27\sr5e1_l9388_freeosek\modules\platform\clock\include\sr5e1\clock.h ****         RCC->C1_APB2LSMENR &= ~m;
1391:d:\project\9388\e1\2023_7_27\sr5e1_l9388_freeosek\modules\platform\clock\include\sr5e1\clock.h **** #if CLOCK_CFG_SMP_MODE == TRUE
1392:d:\project\9388\e1\2023_7_27\sr5e1_l9388_freeosek\modules\platform\clock\include\sr5e1\clock.h ****         RCC->C2_APB2LSMENR &= ~m;
1393:d:\project\9388\e1\2023_7_27\sr5e1_l9388_freeosek\modules\platform\clock\include\sr5e1\clock.h **** #endif
1394:d:\project\9388\e1\2023_7_27\sr5e1_l9388_freeosek\modules\platform\clock\include\sr5e1\clock.h ****     }
1395:d:\project\9388\e1\2023_7_27\sr5e1_l9388_freeosek\modules\platform\clock\include\sr5e1\clock.h **** 
1396:d:\project\9388\e1\2023_7_27\sr5e1_l9388_freeosek\modules\platform\clock\include\sr5e1\clock.h ****     return RCC->APB2LENR;
1397:d:\project\9388\e1\2023_7_27\sr5e1_l9388_freeosek\modules\platform\clock\include\sr5e1\clock.h **** }
1398:d:\project\9388\e1\2023_7_27\sr5e1_l9388_freeosek\modules\platform\clock\include\sr5e1\clock.h **** 
1399:d:\project\9388\e1\2023_7_27\sr5e1_l9388_freeosek\modules\platform\clock\include\sr5e1\clock.h **** /**
1400:d:\project\9388\e1\2023_7_27\sr5e1_l9388_freeosek\modules\platform\clock\include\sr5e1\clock.h ****  * @brief   Disables APB2 peripherals clock [Low Word]
1401:d:\project\9388\e1\2023_7_27\sr5e1_l9388_freeosek\modules\platform\clock\include\sr5e1\clock.h ****  *
1402:d:\project\9388\e1\2023_7_27\sr5e1_l9388_freeosek\modules\platform\clock\include\sr5e1\clock.h ****  * @param[in] m         peripheral clock to be disabled
1403:d:\project\9388\e1\2023_7_27\sr5e1_l9388_freeosek\modules\platform\clock\include\sr5e1\clock.h ****  * @return              value of register APB2LENR after the update
1404:d:\project\9388\e1\2023_7_27\sr5e1_l9388_freeosek\modules\platform\clock\include\sr5e1\clock.h ****  *
1405:d:\project\9388\e1\2023_7_27\sr5e1_l9388_freeosek\modules\platform\clock\include\sr5e1\clock.h ****  * @api
1406:d:\project\9388\e1\2023_7_27\sr5e1_l9388_freeosek\modules\platform\clock\include\sr5e1\clock.h ****  */
1407:d:\project\9388\e1\2023_7_27\sr5e1_l9388_freeosek\modules\platform\clock\include\sr5e1\clock.h **** __STATIC_FORCEINLINE uint32_t clock_disable_APB2L(uint32_t m) {
1408:d:\project\9388\e1\2023_7_27\sr5e1_l9388_freeosek\modules\platform\clock\include\sr5e1\clock.h **** 
1409:d:\project\9388\e1\2023_7_27\sr5e1_l9388_freeosek\modules\platform\clock\include\sr5e1\clock.h ****     RCC->APB2LENR &= ~m;
1410:d:\project\9388\e1\2023_7_27\sr5e1_l9388_freeosek\modules\platform\clock\include\sr5e1\clock.h ****     RCC->C1_APB2LSMENR &= ~m;
1411:d:\project\9388\e1\2023_7_27\sr5e1_l9388_freeosek\modules\platform\clock\include\sr5e1\clock.h **** #if CLOCK_CFG_SMP_MODE == TRUE
1412:d:\project\9388\e1\2023_7_27\sr5e1_l9388_freeosek\modules\platform\clock\include\sr5e1\clock.h ****     RCC->C2_APB2LSMENR &= ~m;
1413:d:\project\9388\e1\2023_7_27\sr5e1_l9388_freeosek\modules\platform\clock\include\sr5e1\clock.h **** #endif
1414:d:\project\9388\e1\2023_7_27\sr5e1_l9388_freeosek\modules\platform\clock\include\sr5e1\clock.h **** 
1415:d:\project\9388\e1\2023_7_27\sr5e1_l9388_freeosek\modules\platform\clock\include\sr5e1\clock.h ****     return RCC->APB2LENR;
1416:d:\project\9388\e1\2023_7_27\sr5e1_l9388_freeosek\modules\platform\clock\include\sr5e1\clock.h **** }
1417:d:\project\9388\e1\2023_7_27\sr5e1_l9388_freeosek\modules\platform\clock\include\sr5e1\clock.h **** 
1418:d:\project\9388\e1\2023_7_27\sr5e1_l9388_freeosek\modules\platform\clock\include\sr5e1\clock.h **** /**
1419:d:\project\9388\e1\2023_7_27\sr5e1_l9388_freeosek\modules\platform\clock\include\sr5e1\clock.h ****  * @brief   Checks if APB2 peripheral clock [Low Word] is enabled
1420:d:\project\9388\e1\2023_7_27\sr5e1_l9388_freeosek\modules\platform\clock\include\sr5e1\clock.h ****  *
1421:d:\project\9388\e1\2023_7_27\sr5e1_l9388_freeosek\modules\platform\clock\include\sr5e1\clock.h ****  * @param[in] m         peripheral clock to be checked
1422:d:\project\9388\e1\2023_7_27\sr5e1_l9388_freeosek\modules\platform\clock\include\sr5e1\clock.h ****  *
1423:d:\project\9388\e1\2023_7_27\sr5e1_l9388_freeosek\modules\platform\clock\include\sr5e1\clock.h ****  * @api
1424:d:\project\9388\e1\2023_7_27\sr5e1_l9388_freeosek\modules\platform\clock\include\sr5e1\clock.h ****  */
1425:d:\project\9388\e1\2023_7_27\sr5e1_l9388_freeosek\modules\platform\clock\include\sr5e1\clock.h **** __STATIC_FORCEINLINE bool is_clock_enable_APB2L(uint32_t m) {
1426:d:\project\9388\e1\2023_7_27\sr5e1_l9388_freeosek\modules\platform\clock\include\sr5e1\clock.h **** 
1427:d:\project\9388\e1\2023_7_27\sr5e1_l9388_freeosek\modules\platform\clock\include\sr5e1\clock.h ****     return (((RCC->APB2LENR & m) == m) ? true : false);
1428:d:\project\9388\e1\2023_7_27\sr5e1_l9388_freeosek\modules\platform\clock\include\sr5e1\clock.h **** }
1429:d:\project\9388\e1\2023_7_27\sr5e1_l9388_freeosek\modules\platform\clock\include\sr5e1\clock.h **** 
1430:d:\project\9388\e1\2023_7_27\sr5e1_l9388_freeosek\modules\platform\clock\include\sr5e1\clock.h **** /**
1431:d:\project\9388\e1\2023_7_27\sr5e1_l9388_freeosek\modules\platform\clock\include\sr5e1\clock.h ****  * @brief   Resets APB2 peripherals [Low Word]
1432:d:\project\9388\e1\2023_7_27\sr5e1_l9388_freeosek\modules\platform\clock\include\sr5e1\clock.h ****  *
1433:d:\project\9388\e1\2023_7_27\sr5e1_l9388_freeosek\modules\platform\clock\include\sr5e1\clock.h ****  * @param[in] m         peripheral to reset
1434:d:\project\9388\e1\2023_7_27\sr5e1_l9388_freeosek\modules\platform\clock\include\sr5e1\clock.h ****  *
1435:d:\project\9388\e1\2023_7_27\sr5e1_l9388_freeosek\modules\platform\clock\include\sr5e1\clock.h ****  * @api
1436:d:\project\9388\e1\2023_7_27\sr5e1_l9388_freeosek\modules\platform\clock\include\sr5e1\clock.h ****  */
1437:d:\project\9388\e1\2023_7_27\sr5e1_l9388_freeosek\modules\platform\clock\include\sr5e1\clock.h **** __STATIC_FORCEINLINE void clock_reset_APB2L(uint32_t m) {
1438:d:\project\9388\e1\2023_7_27\sr5e1_l9388_freeosek\modules\platform\clock\include\sr5e1\clock.h **** 
1439:d:\project\9388\e1\2023_7_27\sr5e1_l9388_freeosek\modules\platform\clock\include\sr5e1\clock.h ****     RCC->APB2LRSTR |= m;
1440:d:\project\9388\e1\2023_7_27\sr5e1_l9388_freeosek\modules\platform\clock\include\sr5e1\clock.h ****     RCC->APB2LRSTR &= ~m;
1441:d:\project\9388\e1\2023_7_27\sr5e1_l9388_freeosek\modules\platform\clock\include\sr5e1\clock.h ****     (void)RCC->APB2LRSTR;
1442:d:\project\9388\e1\2023_7_27\sr5e1_l9388_freeosek\modules\platform\clock\include\sr5e1\clock.h **** }
1443:d:\project\9388\e1\2023_7_27\sr5e1_l9388_freeosek\modules\platform\clock\include\sr5e1\clock.h **** 
1444:d:\project\9388\e1\2023_7_27\sr5e1_l9388_freeosek\modules\platform\clock\include\sr5e1\clock.h **** /**
1445:d:\project\9388\e1\2023_7_27\sr5e1_l9388_freeosek\modules\platform\clock\include\sr5e1\clock.h ****  * @brief   Enables APB2 peripherals clock [High Word]
1446:d:\project\9388\e1\2023_7_27\sr5e1_l9388_freeosek\modules\platform\clock\include\sr5e1\clock.h ****  *
1447:d:\project\9388\e1\2023_7_27\sr5e1_l9388_freeosek\modules\platform\clock\include\sr5e1\clock.h ****  * @param[in] smode     sleep mode (if true, peripheral clock is enabled in
1448:d:\project\9388\e1\2023_7_27\sr5e1_l9388_freeosek\modules\platform\clock\include\sr5e1\clock.h ****  *                      sleep mode)
1449:d:\project\9388\e1\2023_7_27\sr5e1_l9388_freeosek\modules\platform\clock\include\sr5e1\clock.h ****  * @param[in] m         peripheral clock to be enabled
1450:d:\project\9388\e1\2023_7_27\sr5e1_l9388_freeosek\modules\platform\clock\include\sr5e1\clock.h ****  * @return              value of register APB2HENR after the update
1451:d:\project\9388\e1\2023_7_27\sr5e1_l9388_freeosek\modules\platform\clock\include\sr5e1\clock.h ****  *
1452:d:\project\9388\e1\2023_7_27\sr5e1_l9388_freeosek\modules\platform\clock\include\sr5e1\clock.h ****  * @api
1453:d:\project\9388\e1\2023_7_27\sr5e1_l9388_freeosek\modules\platform\clock\include\sr5e1\clock.h ****  */
1454:d:\project\9388\e1\2023_7_27\sr5e1_l9388_freeosek\modules\platform\clock\include\sr5e1\clock.h **** __STATIC_FORCEINLINE uint32_t clock_enable_APB2H(bool smode, uint32_t m) {
1455:d:\project\9388\e1\2023_7_27\sr5e1_l9388_freeosek\modules\platform\clock\include\sr5e1\clock.h **** 
1456:d:\project\9388\e1\2023_7_27\sr5e1_l9388_freeosek\modules\platform\clock\include\sr5e1\clock.h ****     RCC->APB2HENR |= m;
 165              		.loc 2 1456 19
 166 0022 4FF08843 		mov	r3, #1140850688
 167 0026 D3F88C20 		ldr	r2, [r3, #140]
 168 002a 4FF08841 		mov	r1, #1140850688
 169 002e 029B     		ldr	r3, [sp, #8]
 170 0030 1343     		orrs	r3, r3, r2
 171 0032 C1F88C30 		str	r3, [r1, #140]
1457:d:\project\9388\e1\2023_7_27\sr5e1_l9388_freeosek\modules\platform\clock\include\sr5e1\clock.h ****     if (smode) {
 172              		.loc 2 1457 8
 173 0036 9DF80E30 		ldrb	r3, [sp, #14]	@ zero_extendqisi2
 174 003a 002B     		cmp	r3, #0
 175 003c 14D0     		beq	.L15
1458:d:\project\9388\e1\2023_7_27\sr5e1_l9388_freeosek\modules\platform\clock\include\sr5e1\clock.h ****         RCC->C1_APB2HSMENR |= m;
 176              		.loc 2 1458 28
 177 003e 4FF08843 		mov	r3, #1140850688
 178 0042 D3F8AC20 		ldr	r2, [r3, #172]
 179 0046 4FF08841 		mov	r1, #1140850688
 180 004a 029B     		ldr	r3, [sp, #8]
 181 004c 1343     		orrs	r3, r3, r2
 182 004e C1F8AC30 		str	r3, [r1, #172]
1459:d:\project\9388\e1\2023_7_27\sr5e1_l9388_freeosek\modules\platform\clock\include\sr5e1\clock.h **** #if CLOCK_CFG_SMP_MODE == TRUE
1460:d:\project\9388\e1\2023_7_27\sr5e1_l9388_freeosek\modules\platform\clock\include\sr5e1\clock.h ****         RCC->C2_APB2HSMENR |= m;
 183              		.loc 2 1460 28
 184 0052 4FF08843 		mov	r3, #1140850688
 185 0056 D3F8CC20 		ldr	r2, [r3, #204]
 186 005a 4FF08841 		mov	r1, #1140850688
 187 005e 029B     		ldr	r3, [sp, #8]
 188 0060 1343     		orrs	r3, r3, r2
 189 0062 C1F8CC30 		str	r3, [r1, #204]
 190 0066 15E0     		b	.L16
 191              	.L15:
1461:d:\project\9388\e1\2023_7_27\sr5e1_l9388_freeosek\modules\platform\clock\include\sr5e1\clock.h **** #endif
1462:d:\project\9388\e1\2023_7_27\sr5e1_l9388_freeosek\modules\platform\clock\include\sr5e1\clock.h ****     }
1463:d:\project\9388\e1\2023_7_27\sr5e1_l9388_freeosek\modules\platform\clock\include\sr5e1\clock.h ****     else {
1464:d:\project\9388\e1\2023_7_27\sr5e1_l9388_freeosek\modules\platform\clock\include\sr5e1\clock.h ****         RCC->C1_APB2HSMENR &= ~m;
 192              		.loc 2 1464 28
 193 0068 4FF08843 		mov	r3, #1140850688
 194 006c D3F8AC20 		ldr	r2, [r3, #172]
 195              		.loc 2 1464 31
 196 0070 029B     		ldr	r3, [sp, #8]
 197 0072 DB43     		mvns	r3, r3
 198              		.loc 2 1464 28
 199 0074 4FF08841 		mov	r1, #1140850688
 200 0078 1340     		ands	r3, r3, r2
 201 007a C1F8AC30 		str	r3, [r1, #172]
1465:d:\project\9388\e1\2023_7_27\sr5e1_l9388_freeosek\modules\platform\clock\include\sr5e1\clock.h **** #if CLOCK_CFG_SMP_MODE == TRUE
1466:d:\project\9388\e1\2023_7_27\sr5e1_l9388_freeosek\modules\platform\clock\include\sr5e1\clock.h ****         RCC->C2_APB2HSMENR &= ~m;
 202              		.loc 2 1466 28
 203 007e 4FF08843 		mov	r3, #1140850688
 204 0082 D3F8CC20 		ldr	r2, [r3, #204]
 205              		.loc 2 1466 31
 206 0086 029B     		ldr	r3, [sp, #8]
 207 0088 DB43     		mvns	r3, r3
 208              		.loc 2 1466 28
 209 008a 4FF08841 		mov	r1, #1140850688
 210 008e 1340     		ands	r3, r3, r2
 211 0090 C1F8CC30 		str	r3, [r1, #204]
 212              	.L16:
1467:d:\project\9388\e1\2023_7_27\sr5e1_l9388_freeosek\modules\platform\clock\include\sr5e1\clock.h **** #endif
1468:d:\project\9388\e1\2023_7_27\sr5e1_l9388_freeosek\modules\platform\clock\include\sr5e1\clock.h ****     }
1469:d:\project\9388\e1\2023_7_27\sr5e1_l9388_freeosek\modules\platform\clock\include\sr5e1\clock.h **** 
1470:d:\project\9388\e1\2023_7_27\sr5e1_l9388_freeosek\modules\platform\clock\include\sr5e1\clock.h ****     return RCC->APB2HENR;
 213              		.loc 2 1470 15
 214 0094 4FF08843 		mov	r3, #1140850688
 215 0098 D3F88C30 		ldr	r3, [r3, #140]
 216              	.LBE65:
 217              	.LBE64:
1471:d:\project\9388\e1\2023_7_27\sr5e1_l9388_freeosek\modules\platform\clock\include\sr5e1\clock.h **** }
1472:d:\project\9388\e1\2023_7_27\sr5e1_l9388_freeosek\modules\platform\clock\include\sr5e1\clock.h **** 
1473:d:\project\9388\e1\2023_7_27\sr5e1_l9388_freeosek\modules\platform\clock\include\sr5e1\clock.h **** /**
1474:d:\project\9388\e1\2023_7_27\sr5e1_l9388_freeosek\modules\platform\clock\include\sr5e1\clock.h ****  * @brief   Disables APB2 peripherals clock [High Word]
1475:d:\project\9388\e1\2023_7_27\sr5e1_l9388_freeosek\modules\platform\clock\include\sr5e1\clock.h ****  *
1476:d:\project\9388\e1\2023_7_27\sr5e1_l9388_freeosek\modules\platform\clock\include\sr5e1\clock.h ****  * @param[in] m         peripheral clock to be disabled
1477:d:\project\9388\e1\2023_7_27\sr5e1_l9388_freeosek\modules\platform\clock\include\sr5e1\clock.h ****  * @return              value of register APB2HENR after the update
1478:d:\project\9388\e1\2023_7_27\sr5e1_l9388_freeosek\modules\platform\clock\include\sr5e1\clock.h ****  *
1479:d:\project\9388\e1\2023_7_27\sr5e1_l9388_freeosek\modules\platform\clock\include\sr5e1\clock.h ****  * @api
1480:d:\project\9388\e1\2023_7_27\sr5e1_l9388_freeosek\modules\platform\clock\include\sr5e1\clock.h ****  */
1481:d:\project\9388\e1\2023_7_27\sr5e1_l9388_freeosek\modules\platform\clock\include\sr5e1\clock.h **** __STATIC_FORCEINLINE uint32_t clock_disable_APB2H(uint32_t m) {
1482:d:\project\9388\e1\2023_7_27\sr5e1_l9388_freeosek\modules\platform\clock\include\sr5e1\clock.h **** 
1483:d:\project\9388\e1\2023_7_27\sr5e1_l9388_freeosek\modules\platform\clock\include\sr5e1\clock.h ****     RCC->APB2HENR &= ~m;
1484:d:\project\9388\e1\2023_7_27\sr5e1_l9388_freeosek\modules\platform\clock\include\sr5e1\clock.h ****     RCC->C1_APB2HSMENR &= ~m;
1485:d:\project\9388\e1\2023_7_27\sr5e1_l9388_freeosek\modules\platform\clock\include\sr5e1\clock.h **** #if CLOCK_CFG_SMP_MODE == TRUE
1486:d:\project\9388\e1\2023_7_27\sr5e1_l9388_freeosek\modules\platform\clock\include\sr5e1\clock.h ****     RCC->C2_APB2HSMENR &= ~m;
1487:d:\project\9388\e1\2023_7_27\sr5e1_l9388_freeosek\modules\platform\clock\include\sr5e1\clock.h **** #endif
1488:d:\project\9388\e1\2023_7_27\sr5e1_l9388_freeosek\modules\platform\clock\include\sr5e1\clock.h **** 
1489:d:\project\9388\e1\2023_7_27\sr5e1_l9388_freeosek\modules\platform\clock\include\sr5e1\clock.h ****     return RCC->APB2HENR;
1490:d:\project\9388\e1\2023_7_27\sr5e1_l9388_freeosek\modules\platform\clock\include\sr5e1\clock.h **** }
1491:d:\project\9388\e1\2023_7_27\sr5e1_l9388_freeosek\modules\platform\clock\include\sr5e1\clock.h **** 
1492:d:\project\9388\e1\2023_7_27\sr5e1_l9388_freeosek\modules\platform\clock\include\sr5e1\clock.h **** /**
1493:d:\project\9388\e1\2023_7_27\sr5e1_l9388_freeosek\modules\platform\clock\include\sr5e1\clock.h ****  * @brief   Checks if APB2 peripheral clock [High Word] is enabled
1494:d:\project\9388\e1\2023_7_27\sr5e1_l9388_freeosek\modules\platform\clock\include\sr5e1\clock.h ****  *
1495:d:\project\9388\e1\2023_7_27\sr5e1_l9388_freeosek\modules\platform\clock\include\sr5e1\clock.h ****  * @param[in] m         peripheral clock to be checked
1496:d:\project\9388\e1\2023_7_27\sr5e1_l9388_freeosek\modules\platform\clock\include\sr5e1\clock.h ****  *
1497:d:\project\9388\e1\2023_7_27\sr5e1_l9388_freeosek\modules\platform\clock\include\sr5e1\clock.h ****  * @api
1498:d:\project\9388\e1\2023_7_27\sr5e1_l9388_freeosek\modules\platform\clock\include\sr5e1\clock.h ****  */
1499:d:\project\9388\e1\2023_7_27\sr5e1_l9388_freeosek\modules\platform\clock\include\sr5e1\clock.h **** __STATIC_FORCEINLINE bool is_clock_enable_APB2H(uint32_t m) {
1500:d:\project\9388\e1\2023_7_27\sr5e1_l9388_freeosek\modules\platform\clock\include\sr5e1\clock.h **** 
1501:d:\project\9388\e1\2023_7_27\sr5e1_l9388_freeosek\modules\platform\clock\include\sr5e1\clock.h ****     return (((RCC->APB2HENR & m) == m) ? true : false);
1502:d:\project\9388\e1\2023_7_27\sr5e1_l9388_freeosek\modules\platform\clock\include\sr5e1\clock.h **** }
1503:d:\project\9388\e1\2023_7_27\sr5e1_l9388_freeosek\modules\platform\clock\include\sr5e1\clock.h **** 
1504:d:\project\9388\e1\2023_7_27\sr5e1_l9388_freeosek\modules\platform\clock\include\sr5e1\clock.h **** /**
1505:d:\project\9388\e1\2023_7_27\sr5e1_l9388_freeosek\modules\platform\clock\include\sr5e1\clock.h ****  * @brief   Resets APB2 peripherals [High Word]
1506:d:\project\9388\e1\2023_7_27\sr5e1_l9388_freeosek\modules\platform\clock\include\sr5e1\clock.h ****  *
1507:d:\project\9388\e1\2023_7_27\sr5e1_l9388_freeosek\modules\platform\clock\include\sr5e1\clock.h ****  * @param[in] m         peripheral to reset
1508:d:\project\9388\e1\2023_7_27\sr5e1_l9388_freeosek\modules\platform\clock\include\sr5e1\clock.h ****  *
1509:d:\project\9388\e1\2023_7_27\sr5e1_l9388_freeosek\modules\platform\clock\include\sr5e1\clock.h ****  * @api
1510:d:\project\9388\e1\2023_7_27\sr5e1_l9388_freeosek\modules\platform\clock\include\sr5e1\clock.h ****  */
1511:d:\project\9388\e1\2023_7_27\sr5e1_l9388_freeosek\modules\platform\clock\include\sr5e1\clock.h **** __STATIC_FORCEINLINE void clock_reset_APB2H(uint32_t m) {
1512:d:\project\9388\e1\2023_7_27\sr5e1_l9388_freeosek\modules\platform\clock\include\sr5e1\clock.h **** 
1513:d:\project\9388\e1\2023_7_27\sr5e1_l9388_freeosek\modules\platform\clock\include\sr5e1\clock.h ****     RCC->APB2HRSTR |= m;
1514:d:\project\9388\e1\2023_7_27\sr5e1_l9388_freeosek\modules\platform\clock\include\sr5e1\clock.h ****     RCC->APB2HRSTR &= ~m;
1515:d:\project\9388\e1\2023_7_27\sr5e1_l9388_freeosek\modules\platform\clock\include\sr5e1\clock.h ****     (void)RCC->APB2HRSTR;
1516:d:\project\9388\e1\2023_7_27\sr5e1_l9388_freeosek\modules\platform\clock\include\sr5e1\clock.h **** }
1517:d:\project\9388\e1\2023_7_27\sr5e1_l9388_freeosek\modules\platform\clock\include\sr5e1\clock.h **** 
1518:d:\project\9388\e1\2023_7_27\sr5e1_l9388_freeosek\modules\platform\clock\include\sr5e1\clock.h **** /**
1519:d:\project\9388\e1\2023_7_27\sr5e1_l9388_freeosek\modules\platform\clock\include\sr5e1\clock.h ****  * @brief   Enables DMA1 clock
1520:d:\project\9388\e1\2023_7_27\sr5e1_l9388_freeosek\modules\platform\clock\include\sr5e1\clock.h ****  *
1521:d:\project\9388\e1\2023_7_27\sr5e1_l9388_freeosek\modules\platform\clock\include\sr5e1\clock.h ****  * @param[in] smode     sleep mode (if true, peripheral clock is enabled in
1522:d:\project\9388\e1\2023_7_27\sr5e1_l9388_freeosek\modules\platform\clock\include\sr5e1\clock.h ****  *                      sleep mode)
1523:d:\project\9388\e1\2023_7_27\sr5e1_l9388_freeosek\modules\platform\clock\include\sr5e1\clock.h ****  *
1524:d:\project\9388\e1\2023_7_27\sr5e1_l9388_freeosek\modules\platform\clock\include\sr5e1\clock.h ****  * @api
1525:d:\project\9388\e1\2023_7_27\sr5e1_l9388_freeosek\modules\platform\clock\include\sr5e1\clock.h ****  */
1526:d:\project\9388\e1\2023_7_27\sr5e1_l9388_freeosek\modules\platform\clock\include\sr5e1\clock.h **** __STATIC_FORCEINLINE void clock_enable_DMA1(bool smode) {
1527:d:\project\9388\e1\2023_7_27\sr5e1_l9388_freeosek\modules\platform\clock\include\sr5e1\clock.h **** 
1528:d:\project\9388\e1\2023_7_27\sr5e1_l9388_freeosek\modules\platform\clock\include\sr5e1\clock.h ****     clock_enable_AHB2L(smode, RCC_AHB2LENR_DMA1);
1529:d:\project\9388\e1\2023_7_27\sr5e1_l9388_freeosek\modules\platform\clock\include\sr5e1\clock.h **** }
1530:d:\project\9388\e1\2023_7_27\sr5e1_l9388_freeosek\modules\platform\clock\include\sr5e1\clock.h **** 
1531:d:\project\9388\e1\2023_7_27\sr5e1_l9388_freeosek\modules\platform\clock\include\sr5e1\clock.h **** /**
1532:d:\project\9388\e1\2023_7_27\sr5e1_l9388_freeosek\modules\platform\clock\include\sr5e1\clock.h ****  * @brief   Disables DMA1 clock
1533:d:\project\9388\e1\2023_7_27\sr5e1_l9388_freeosek\modules\platform\clock\include\sr5e1\clock.h ****  *
1534:d:\project\9388\e1\2023_7_27\sr5e1_l9388_freeosek\modules\platform\clock\include\sr5e1\clock.h ****  * @api
1535:d:\project\9388\e1\2023_7_27\sr5e1_l9388_freeosek\modules\platform\clock\include\sr5e1\clock.h ****  */
1536:d:\project\9388\e1\2023_7_27\sr5e1_l9388_freeosek\modules\platform\clock\include\sr5e1\clock.h **** __STATIC_FORCEINLINE void clock_disable_DMA1(void) {
1537:d:\project\9388\e1\2023_7_27\sr5e1_l9388_freeosek\modules\platform\clock\include\sr5e1\clock.h **** 
1538:d:\project\9388\e1\2023_7_27\sr5e1_l9388_freeosek\modules\platform\clock\include\sr5e1\clock.h ****     clock_disable_AHB2L(RCC_AHB2LENR_DMA1);
1539:d:\project\9388\e1\2023_7_27\sr5e1_l9388_freeosek\modules\platform\clock\include\sr5e1\clock.h **** }
1540:d:\project\9388\e1\2023_7_27\sr5e1_l9388_freeosek\modules\platform\clock\include\sr5e1\clock.h **** 
1541:d:\project\9388\e1\2023_7_27\sr5e1_l9388_freeosek\modules\platform\clock\include\sr5e1\clock.h **** /**
1542:d:\project\9388\e1\2023_7_27\sr5e1_l9388_freeosek\modules\platform\clock\include\sr5e1\clock.h ****  * @brief   Checks if DMA1 clock is enabled
1543:d:\project\9388\e1\2023_7_27\sr5e1_l9388_freeosek\modules\platform\clock\include\sr5e1\clock.h ****  *
1544:d:\project\9388\e1\2023_7_27\sr5e1_l9388_freeosek\modules\platform\clock\include\sr5e1\clock.h ****  * @api
1545:d:\project\9388\e1\2023_7_27\sr5e1_l9388_freeosek\modules\platform\clock\include\sr5e1\clock.h ****  */
1546:d:\project\9388\e1\2023_7_27\sr5e1_l9388_freeosek\modules\platform\clock\include\sr5e1\clock.h **** __STATIC_FORCEINLINE bool is_clock_enable_DMA1(void) {
1547:d:\project\9388\e1\2023_7_27\sr5e1_l9388_freeosek\modules\platform\clock\include\sr5e1\clock.h **** 
1548:d:\project\9388\e1\2023_7_27\sr5e1_l9388_freeosek\modules\platform\clock\include\sr5e1\clock.h ****     return is_clock_enable_AHB2L(RCC_AHB2LENR_DMA1);
1549:d:\project\9388\e1\2023_7_27\sr5e1_l9388_freeosek\modules\platform\clock\include\sr5e1\clock.h **** }
1550:d:\project\9388\e1\2023_7_27\sr5e1_l9388_freeosek\modules\platform\clock\include\sr5e1\clock.h **** 
1551:d:\project\9388\e1\2023_7_27\sr5e1_l9388_freeosek\modules\platform\clock\include\sr5e1\clock.h **** /**
1552:d:\project\9388\e1\2023_7_27\sr5e1_l9388_freeosek\modules\platform\clock\include\sr5e1\clock.h ****  * @brief   Resets DMA1
1553:d:\project\9388\e1\2023_7_27\sr5e1_l9388_freeosek\modules\platform\clock\include\sr5e1\clock.h ****  *
1554:d:\project\9388\e1\2023_7_27\sr5e1_l9388_freeosek\modules\platform\clock\include\sr5e1\clock.h ****  * @api
1555:d:\project\9388\e1\2023_7_27\sr5e1_l9388_freeosek\modules\platform\clock\include\sr5e1\clock.h ****  */
1556:d:\project\9388\e1\2023_7_27\sr5e1_l9388_freeosek\modules\platform\clock\include\sr5e1\clock.h **** __STATIC_FORCEINLINE void clock_reset_DMA1(void) {
1557:d:\project\9388\e1\2023_7_27\sr5e1_l9388_freeosek\modules\platform\clock\include\sr5e1\clock.h **** 
1558:d:\project\9388\e1\2023_7_27\sr5e1_l9388_freeosek\modules\platform\clock\include\sr5e1\clock.h ****     clock_reset_AHB2L(RCC_AHB2LRSTR_DMA1);
1559:d:\project\9388\e1\2023_7_27\sr5e1_l9388_freeosek\modules\platform\clock\include\sr5e1\clock.h **** }
1560:d:\project\9388\e1\2023_7_27\sr5e1_l9388_freeosek\modules\platform\clock\include\sr5e1\clock.h **** 
1561:d:\project\9388\e1\2023_7_27\sr5e1_l9388_freeosek\modules\platform\clock\include\sr5e1\clock.h **** /**
1562:d:\project\9388\e1\2023_7_27\sr5e1_l9388_freeosek\modules\platform\clock\include\sr5e1\clock.h ****  * @brief   Enables DMA2 clock
1563:d:\project\9388\e1\2023_7_27\sr5e1_l9388_freeosek\modules\platform\clock\include\sr5e1\clock.h ****  *
1564:d:\project\9388\e1\2023_7_27\sr5e1_l9388_freeosek\modules\platform\clock\include\sr5e1\clock.h ****  * @param[in] smode     sleep mode (if true, peripheral clock is enabled in
1565:d:\project\9388\e1\2023_7_27\sr5e1_l9388_freeosek\modules\platform\clock\include\sr5e1\clock.h ****  *                      sleep mode)
1566:d:\project\9388\e1\2023_7_27\sr5e1_l9388_freeosek\modules\platform\clock\include\sr5e1\clock.h ****  *
1567:d:\project\9388\e1\2023_7_27\sr5e1_l9388_freeosek\modules\platform\clock\include\sr5e1\clock.h ****  * @api
1568:d:\project\9388\e1\2023_7_27\sr5e1_l9388_freeosek\modules\platform\clock\include\sr5e1\clock.h ****  */
1569:d:\project\9388\e1\2023_7_27\sr5e1_l9388_freeosek\modules\platform\clock\include\sr5e1\clock.h **** __STATIC_FORCEINLINE void clock_enable_DMA2(bool smode) {
1570:d:\project\9388\e1\2023_7_27\sr5e1_l9388_freeosek\modules\platform\clock\include\sr5e1\clock.h **** 
1571:d:\project\9388\e1\2023_7_27\sr5e1_l9388_freeosek\modules\platform\clock\include\sr5e1\clock.h ****     clock_enable_AHB1L(smode, RCC_AHB1LENR_DMA2);
1572:d:\project\9388\e1\2023_7_27\sr5e1_l9388_freeosek\modules\platform\clock\include\sr5e1\clock.h **** }
1573:d:\project\9388\e1\2023_7_27\sr5e1_l9388_freeosek\modules\platform\clock\include\sr5e1\clock.h **** 
1574:d:\project\9388\e1\2023_7_27\sr5e1_l9388_freeosek\modules\platform\clock\include\sr5e1\clock.h **** /**
1575:d:\project\9388\e1\2023_7_27\sr5e1_l9388_freeosek\modules\platform\clock\include\sr5e1\clock.h ****  * @brief   Disables DMA2 clock
1576:d:\project\9388\e1\2023_7_27\sr5e1_l9388_freeosek\modules\platform\clock\include\sr5e1\clock.h ****  *
1577:d:\project\9388\e1\2023_7_27\sr5e1_l9388_freeosek\modules\platform\clock\include\sr5e1\clock.h ****  * @api
1578:d:\project\9388\e1\2023_7_27\sr5e1_l9388_freeosek\modules\platform\clock\include\sr5e1\clock.h ****  */
1579:d:\project\9388\e1\2023_7_27\sr5e1_l9388_freeosek\modules\platform\clock\include\sr5e1\clock.h **** __STATIC_FORCEINLINE void clock_disable_DMA2(void) {
1580:d:\project\9388\e1\2023_7_27\sr5e1_l9388_freeosek\modules\platform\clock\include\sr5e1\clock.h **** 
1581:d:\project\9388\e1\2023_7_27\sr5e1_l9388_freeosek\modules\platform\clock\include\sr5e1\clock.h ****     clock_disable_AHB1L(RCC_AHB1LENR_DMA2);
1582:d:\project\9388\e1\2023_7_27\sr5e1_l9388_freeosek\modules\platform\clock\include\sr5e1\clock.h **** }
1583:d:\project\9388\e1\2023_7_27\sr5e1_l9388_freeosek\modules\platform\clock\include\sr5e1\clock.h **** 
1584:d:\project\9388\e1\2023_7_27\sr5e1_l9388_freeosek\modules\platform\clock\include\sr5e1\clock.h **** /**
1585:d:\project\9388\e1\2023_7_27\sr5e1_l9388_freeosek\modules\platform\clock\include\sr5e1\clock.h ****  * @brief   Checks if DMA2 clock is enabled
1586:d:\project\9388\e1\2023_7_27\sr5e1_l9388_freeosek\modules\platform\clock\include\sr5e1\clock.h ****  *
1587:d:\project\9388\e1\2023_7_27\sr5e1_l9388_freeosek\modules\platform\clock\include\sr5e1\clock.h ****  * @api
1588:d:\project\9388\e1\2023_7_27\sr5e1_l9388_freeosek\modules\platform\clock\include\sr5e1\clock.h ****  */
1589:d:\project\9388\e1\2023_7_27\sr5e1_l9388_freeosek\modules\platform\clock\include\sr5e1\clock.h **** __STATIC_FORCEINLINE bool is_clock_enable_DMA2(void) {
1590:d:\project\9388\e1\2023_7_27\sr5e1_l9388_freeosek\modules\platform\clock\include\sr5e1\clock.h **** 
1591:d:\project\9388\e1\2023_7_27\sr5e1_l9388_freeosek\modules\platform\clock\include\sr5e1\clock.h ****     return is_clock_enable_AHB1L(RCC_AHB1LENR_DMA2);
1592:d:\project\9388\e1\2023_7_27\sr5e1_l9388_freeosek\modules\platform\clock\include\sr5e1\clock.h **** }
1593:d:\project\9388\e1\2023_7_27\sr5e1_l9388_freeosek\modules\platform\clock\include\sr5e1\clock.h **** 
1594:d:\project\9388\e1\2023_7_27\sr5e1_l9388_freeosek\modules\platform\clock\include\sr5e1\clock.h **** /**
1595:d:\project\9388\e1\2023_7_27\sr5e1_l9388_freeosek\modules\platform\clock\include\sr5e1\clock.h ****  * @brief   Resets DMA2
1596:d:\project\9388\e1\2023_7_27\sr5e1_l9388_freeosek\modules\platform\clock\include\sr5e1\clock.h ****  *
1597:d:\project\9388\e1\2023_7_27\sr5e1_l9388_freeosek\modules\platform\clock\include\sr5e1\clock.h ****  * @api
1598:d:\project\9388\e1\2023_7_27\sr5e1_l9388_freeosek\modules\platform\clock\include\sr5e1\clock.h ****  */
1599:d:\project\9388\e1\2023_7_27\sr5e1_l9388_freeosek\modules\platform\clock\include\sr5e1\clock.h **** __STATIC_FORCEINLINE void clock_reset_DMA2(void) {
1600:d:\project\9388\e1\2023_7_27\sr5e1_l9388_freeosek\modules\platform\clock\include\sr5e1\clock.h **** 
1601:d:\project\9388\e1\2023_7_27\sr5e1_l9388_freeosek\modules\platform\clock\include\sr5e1\clock.h ****     clock_reset_AHB1L(RCC_AHB1LRSTR_DMA2);
1602:d:\project\9388\e1\2023_7_27\sr5e1_l9388_freeosek\modules\platform\clock\include\sr5e1\clock.h **** }
1603:d:\project\9388\e1\2023_7_27\sr5e1_l9388_freeosek\modules\platform\clock\include\sr5e1\clock.h **** 
1604:d:\project\9388\e1\2023_7_27\sr5e1_l9388_freeosek\modules\platform\clock\include\sr5e1\clock.h **** /**
1605:d:\project\9388\e1\2023_7_27\sr5e1_l9388_freeosek\modules\platform\clock\include\sr5e1\clock.h ****  * @brief   Enables DMAMUX1 clock
1606:d:\project\9388\e1\2023_7_27\sr5e1_l9388_freeosek\modules\platform\clock\include\sr5e1\clock.h ****  *
1607:d:\project\9388\e1\2023_7_27\sr5e1_l9388_freeosek\modules\platform\clock\include\sr5e1\clock.h ****  * @param[in] smode     sleep mode (if true, peripheral clock is enabled in
1608:d:\project\9388\e1\2023_7_27\sr5e1_l9388_freeosek\modules\platform\clock\include\sr5e1\clock.h ****  *                      sleep mode)
1609:d:\project\9388\e1\2023_7_27\sr5e1_l9388_freeosek\modules\platform\clock\include\sr5e1\clock.h ****  *
1610:d:\project\9388\e1\2023_7_27\sr5e1_l9388_freeosek\modules\platform\clock\include\sr5e1\clock.h ****  * @api
1611:d:\project\9388\e1\2023_7_27\sr5e1_l9388_freeosek\modules\platform\clock\include\sr5e1\clock.h ****  */
1612:d:\project\9388\e1\2023_7_27\sr5e1_l9388_freeosek\modules\platform\clock\include\sr5e1\clock.h **** __STATIC_FORCEINLINE void clock_enable_DMAMUX1(bool smode) {
1613:d:\project\9388\e1\2023_7_27\sr5e1_l9388_freeosek\modules\platform\clock\include\sr5e1\clock.h **** 
1614:d:\project\9388\e1\2023_7_27\sr5e1_l9388_freeosek\modules\platform\clock\include\sr5e1\clock.h ****     clock_enable_AHB2L(smode, RCC_AHB2LENR_DMAMUX1);
1615:d:\project\9388\e1\2023_7_27\sr5e1_l9388_freeosek\modules\platform\clock\include\sr5e1\clock.h **** }
1616:d:\project\9388\e1\2023_7_27\sr5e1_l9388_freeosek\modules\platform\clock\include\sr5e1\clock.h **** 
1617:d:\project\9388\e1\2023_7_27\sr5e1_l9388_freeosek\modules\platform\clock\include\sr5e1\clock.h **** /**
1618:d:\project\9388\e1\2023_7_27\sr5e1_l9388_freeosek\modules\platform\clock\include\sr5e1\clock.h ****  * @brief   Disables DMAMUX1 clock
1619:d:\project\9388\e1\2023_7_27\sr5e1_l9388_freeosek\modules\platform\clock\include\sr5e1\clock.h ****  *
1620:d:\project\9388\e1\2023_7_27\sr5e1_l9388_freeosek\modules\platform\clock\include\sr5e1\clock.h ****  * @api
1621:d:\project\9388\e1\2023_7_27\sr5e1_l9388_freeosek\modules\platform\clock\include\sr5e1\clock.h ****  */
1622:d:\project\9388\e1\2023_7_27\sr5e1_l9388_freeosek\modules\platform\clock\include\sr5e1\clock.h **** __STATIC_FORCEINLINE void clock_disable_DMAMUX1(void) {
1623:d:\project\9388\e1\2023_7_27\sr5e1_l9388_freeosek\modules\platform\clock\include\sr5e1\clock.h **** 
1624:d:\project\9388\e1\2023_7_27\sr5e1_l9388_freeosek\modules\platform\clock\include\sr5e1\clock.h ****     clock_disable_AHB2L(RCC_AHB2LENR_DMAMUX1);
1625:d:\project\9388\e1\2023_7_27\sr5e1_l9388_freeosek\modules\platform\clock\include\sr5e1\clock.h **** }
1626:d:\project\9388\e1\2023_7_27\sr5e1_l9388_freeosek\modules\platform\clock\include\sr5e1\clock.h **** 
1627:d:\project\9388\e1\2023_7_27\sr5e1_l9388_freeosek\modules\platform\clock\include\sr5e1\clock.h **** /**
1628:d:\project\9388\e1\2023_7_27\sr5e1_l9388_freeosek\modules\platform\clock\include\sr5e1\clock.h ****  * @brief   Checks if DMAMUX1 clock is enabled
1629:d:\project\9388\e1\2023_7_27\sr5e1_l9388_freeosek\modules\platform\clock\include\sr5e1\clock.h ****  *
1630:d:\project\9388\e1\2023_7_27\sr5e1_l9388_freeosek\modules\platform\clock\include\sr5e1\clock.h ****  * @api
1631:d:\project\9388\e1\2023_7_27\sr5e1_l9388_freeosek\modules\platform\clock\include\sr5e1\clock.h ****  */
1632:d:\project\9388\e1\2023_7_27\sr5e1_l9388_freeosek\modules\platform\clock\include\sr5e1\clock.h **** __STATIC_FORCEINLINE bool is_clock_enable_DMAMUX1(void) {
1633:d:\project\9388\e1\2023_7_27\sr5e1_l9388_freeosek\modules\platform\clock\include\sr5e1\clock.h **** 
1634:d:\project\9388\e1\2023_7_27\sr5e1_l9388_freeosek\modules\platform\clock\include\sr5e1\clock.h ****     return is_clock_enable_AHB2L(RCC_AHB2LENR_DMAMUX1);
1635:d:\project\9388\e1\2023_7_27\sr5e1_l9388_freeosek\modules\platform\clock\include\sr5e1\clock.h **** }
1636:d:\project\9388\e1\2023_7_27\sr5e1_l9388_freeosek\modules\platform\clock\include\sr5e1\clock.h **** 
1637:d:\project\9388\e1\2023_7_27\sr5e1_l9388_freeosek\modules\platform\clock\include\sr5e1\clock.h **** /**
1638:d:\project\9388\e1\2023_7_27\sr5e1_l9388_freeosek\modules\platform\clock\include\sr5e1\clock.h ****  * @brief   Resets DMAMUX1
1639:d:\project\9388\e1\2023_7_27\sr5e1_l9388_freeosek\modules\platform\clock\include\sr5e1\clock.h ****  *
1640:d:\project\9388\e1\2023_7_27\sr5e1_l9388_freeosek\modules\platform\clock\include\sr5e1\clock.h ****  * @api
1641:d:\project\9388\e1\2023_7_27\sr5e1_l9388_freeosek\modules\platform\clock\include\sr5e1\clock.h ****  */
1642:d:\project\9388\e1\2023_7_27\sr5e1_l9388_freeosek\modules\platform\clock\include\sr5e1\clock.h **** __STATIC_FORCEINLINE void clock_reset_DMAMUX1(void) {
1643:d:\project\9388\e1\2023_7_27\sr5e1_l9388_freeosek\modules\platform\clock\include\sr5e1\clock.h **** 
1644:d:\project\9388\e1\2023_7_27\sr5e1_l9388_freeosek\modules\platform\clock\include\sr5e1\clock.h ****     clock_reset_AHB2L(RCC_AHB2LRSTR_DMAMUX1);
1645:d:\project\9388\e1\2023_7_27\sr5e1_l9388_freeosek\modules\platform\clock\include\sr5e1\clock.h **** }
1646:d:\project\9388\e1\2023_7_27\sr5e1_l9388_freeosek\modules\platform\clock\include\sr5e1\clock.h **** 
1647:d:\project\9388\e1\2023_7_27\sr5e1_l9388_freeosek\modules\platform\clock\include\sr5e1\clock.h **** /**
1648:d:\project\9388\e1\2023_7_27\sr5e1_l9388_freeosek\modules\platform\clock\include\sr5e1\clock.h ****  * @brief   Enables CORDIC clock
1649:d:\project\9388\e1\2023_7_27\sr5e1_l9388_freeosek\modules\platform\clock\include\sr5e1\clock.h ****  *
1650:d:\project\9388\e1\2023_7_27\sr5e1_l9388_freeosek\modules\platform\clock\include\sr5e1\clock.h ****  * @param[in] smode     sleep mode (if true, peripheral clock is enabled in
1651:d:\project\9388\e1\2023_7_27\sr5e1_l9388_freeosek\modules\platform\clock\include\sr5e1\clock.h ****  *                      sleep mode)
1652:d:\project\9388\e1\2023_7_27\sr5e1_l9388_freeosek\modules\platform\clock\include\sr5e1\clock.h ****  *
1653:d:\project\9388\e1\2023_7_27\sr5e1_l9388_freeosek\modules\platform\clock\include\sr5e1\clock.h ****  * @api
1654:d:\project\9388\e1\2023_7_27\sr5e1_l9388_freeosek\modules\platform\clock\include\sr5e1\clock.h ****  */
1655:d:\project\9388\e1\2023_7_27\sr5e1_l9388_freeosek\modules\platform\clock\include\sr5e1\clock.h **** __STATIC_FORCEINLINE void clock_enable_CORDIC(bool smode) {
1656:d:\project\9388\e1\2023_7_27\sr5e1_l9388_freeosek\modules\platform\clock\include\sr5e1\clock.h **** 
1657:d:\project\9388\e1\2023_7_27\sr5e1_l9388_freeosek\modules\platform\clock\include\sr5e1\clock.h ****     clock_enable_AHB1L(smode, RCC_AHB1LENR_CORDIC);
1658:d:\project\9388\e1\2023_7_27\sr5e1_l9388_freeosek\modules\platform\clock\include\sr5e1\clock.h **** }
1659:d:\project\9388\e1\2023_7_27\sr5e1_l9388_freeosek\modules\platform\clock\include\sr5e1\clock.h **** 
1660:d:\project\9388\e1\2023_7_27\sr5e1_l9388_freeosek\modules\platform\clock\include\sr5e1\clock.h **** /**
1661:d:\project\9388\e1\2023_7_27\sr5e1_l9388_freeosek\modules\platform\clock\include\sr5e1\clock.h ****  * @brief   Disables CORDIC clock
1662:d:\project\9388\e1\2023_7_27\sr5e1_l9388_freeosek\modules\platform\clock\include\sr5e1\clock.h ****  *
1663:d:\project\9388\e1\2023_7_27\sr5e1_l9388_freeosek\modules\platform\clock\include\sr5e1\clock.h ****  * @api
1664:d:\project\9388\e1\2023_7_27\sr5e1_l9388_freeosek\modules\platform\clock\include\sr5e1\clock.h ****  */
1665:d:\project\9388\e1\2023_7_27\sr5e1_l9388_freeosek\modules\platform\clock\include\sr5e1\clock.h **** __STATIC_FORCEINLINE void clock_disable_CORDIC(void) {
1666:d:\project\9388\e1\2023_7_27\sr5e1_l9388_freeosek\modules\platform\clock\include\sr5e1\clock.h **** 
1667:d:\project\9388\e1\2023_7_27\sr5e1_l9388_freeosek\modules\platform\clock\include\sr5e1\clock.h ****     clock_disable_AHB1L(RCC_AHB1LENR_CORDIC);
1668:d:\project\9388\e1\2023_7_27\sr5e1_l9388_freeosek\modules\platform\clock\include\sr5e1\clock.h **** }
1669:d:\project\9388\e1\2023_7_27\sr5e1_l9388_freeosek\modules\platform\clock\include\sr5e1\clock.h **** 
1670:d:\project\9388\e1\2023_7_27\sr5e1_l9388_freeosek\modules\platform\clock\include\sr5e1\clock.h **** /**
1671:d:\project\9388\e1\2023_7_27\sr5e1_l9388_freeosek\modules\platform\clock\include\sr5e1\clock.h ****  * @brief   Checks if CORDIC clock is enabled
1672:d:\project\9388\e1\2023_7_27\sr5e1_l9388_freeosek\modules\platform\clock\include\sr5e1\clock.h ****  *
1673:d:\project\9388\e1\2023_7_27\sr5e1_l9388_freeosek\modules\platform\clock\include\sr5e1\clock.h ****  * @api
1674:d:\project\9388\e1\2023_7_27\sr5e1_l9388_freeosek\modules\platform\clock\include\sr5e1\clock.h ****  */
1675:d:\project\9388\e1\2023_7_27\sr5e1_l9388_freeosek\modules\platform\clock\include\sr5e1\clock.h **** __STATIC_FORCEINLINE bool is_clock_enable_CORDIC(void) {
1676:d:\project\9388\e1\2023_7_27\sr5e1_l9388_freeosek\modules\platform\clock\include\sr5e1\clock.h **** 
1677:d:\project\9388\e1\2023_7_27\sr5e1_l9388_freeosek\modules\platform\clock\include\sr5e1\clock.h ****     return is_clock_enable_AHB1L(RCC_AHB1LENR_CORDIC);
1678:d:\project\9388\e1\2023_7_27\sr5e1_l9388_freeosek\modules\platform\clock\include\sr5e1\clock.h **** }
1679:d:\project\9388\e1\2023_7_27\sr5e1_l9388_freeosek\modules\platform\clock\include\sr5e1\clock.h **** 
1680:d:\project\9388\e1\2023_7_27\sr5e1_l9388_freeosek\modules\platform\clock\include\sr5e1\clock.h **** /**
1681:d:\project\9388\e1\2023_7_27\sr5e1_l9388_freeosek\modules\platform\clock\include\sr5e1\clock.h ****  * @brief   Resets CORDIC
1682:d:\project\9388\e1\2023_7_27\sr5e1_l9388_freeosek\modules\platform\clock\include\sr5e1\clock.h ****  *
1683:d:\project\9388\e1\2023_7_27\sr5e1_l9388_freeosek\modules\platform\clock\include\sr5e1\clock.h ****  * @api
1684:d:\project\9388\e1\2023_7_27\sr5e1_l9388_freeosek\modules\platform\clock\include\sr5e1\clock.h ****  */
1685:d:\project\9388\e1\2023_7_27\sr5e1_l9388_freeosek\modules\platform\clock\include\sr5e1\clock.h **** __STATIC_FORCEINLINE void clock_reset_CORDIC(void) {
1686:d:\project\9388\e1\2023_7_27\sr5e1_l9388_freeosek\modules\platform\clock\include\sr5e1\clock.h **** 
1687:d:\project\9388\e1\2023_7_27\sr5e1_l9388_freeosek\modules\platform\clock\include\sr5e1\clock.h ****     clock_reset_AHB1L(RCC_AHB1LRSTR_CORDIC);
1688:d:\project\9388\e1\2023_7_27\sr5e1_l9388_freeosek\modules\platform\clock\include\sr5e1\clock.h **** }
1689:d:\project\9388\e1\2023_7_27\sr5e1_l9388_freeosek\modules\platform\clock\include\sr5e1\clock.h **** 
1690:d:\project\9388\e1\2023_7_27\sr5e1_l9388_freeosek\modules\platform\clock\include\sr5e1\clock.h **** /**
1691:d:\project\9388\e1\2023_7_27\sr5e1_l9388_freeosek\modules\platform\clock\include\sr5e1\clock.h ****  * @brief   Enables CRC clock
1692:d:\project\9388\e1\2023_7_27\sr5e1_l9388_freeosek\modules\platform\clock\include\sr5e1\clock.h ****  *
1693:d:\project\9388\e1\2023_7_27\sr5e1_l9388_freeosek\modules\platform\clock\include\sr5e1\clock.h ****  * @param[in] smode     sleep mode (if true, peripheral clock is enabled in
1694:d:\project\9388\e1\2023_7_27\sr5e1_l9388_freeosek\modules\platform\clock\include\sr5e1\clock.h ****  *                      sleep mode)
1695:d:\project\9388\e1\2023_7_27\sr5e1_l9388_freeosek\modules\platform\clock\include\sr5e1\clock.h ****  *
1696:d:\project\9388\e1\2023_7_27\sr5e1_l9388_freeosek\modules\platform\clock\include\sr5e1\clock.h ****  * @api
1697:d:\project\9388\e1\2023_7_27\sr5e1_l9388_freeosek\modules\platform\clock\include\sr5e1\clock.h ****  */
1698:d:\project\9388\e1\2023_7_27\sr5e1_l9388_freeosek\modules\platform\clock\include\sr5e1\clock.h **** __STATIC_FORCEINLINE void clock_enable_CRC(bool smode) {
1699:d:\project\9388\e1\2023_7_27\sr5e1_l9388_freeosek\modules\platform\clock\include\sr5e1\clock.h **** 
1700:d:\project\9388\e1\2023_7_27\sr5e1_l9388_freeosek\modules\platform\clock\include\sr5e1\clock.h ****     clock_enable_AHB1L(smode, RCC_AHB1LENR_CRC);
1701:d:\project\9388\e1\2023_7_27\sr5e1_l9388_freeosek\modules\platform\clock\include\sr5e1\clock.h **** }
1702:d:\project\9388\e1\2023_7_27\sr5e1_l9388_freeosek\modules\platform\clock\include\sr5e1\clock.h **** 
1703:d:\project\9388\e1\2023_7_27\sr5e1_l9388_freeosek\modules\platform\clock\include\sr5e1\clock.h **** /**
1704:d:\project\9388\e1\2023_7_27\sr5e1_l9388_freeosek\modules\platform\clock\include\sr5e1\clock.h ****  * @brief   Disables CRC clock
1705:d:\project\9388\e1\2023_7_27\sr5e1_l9388_freeosek\modules\platform\clock\include\sr5e1\clock.h ****  *
1706:d:\project\9388\e1\2023_7_27\sr5e1_l9388_freeosek\modules\platform\clock\include\sr5e1\clock.h ****  * @api
1707:d:\project\9388\e1\2023_7_27\sr5e1_l9388_freeosek\modules\platform\clock\include\sr5e1\clock.h ****  */
1708:d:\project\9388\e1\2023_7_27\sr5e1_l9388_freeosek\modules\platform\clock\include\sr5e1\clock.h **** __STATIC_FORCEINLINE void clock_disable_CRC(void) {
1709:d:\project\9388\e1\2023_7_27\sr5e1_l9388_freeosek\modules\platform\clock\include\sr5e1\clock.h **** 
1710:d:\project\9388\e1\2023_7_27\sr5e1_l9388_freeosek\modules\platform\clock\include\sr5e1\clock.h ****     clock_disable_AHB1L(RCC_AHB1LENR_CRC);
1711:d:\project\9388\e1\2023_7_27\sr5e1_l9388_freeosek\modules\platform\clock\include\sr5e1\clock.h **** }
1712:d:\project\9388\e1\2023_7_27\sr5e1_l9388_freeosek\modules\platform\clock\include\sr5e1\clock.h **** 
1713:d:\project\9388\e1\2023_7_27\sr5e1_l9388_freeosek\modules\platform\clock\include\sr5e1\clock.h **** /**
1714:d:\project\9388\e1\2023_7_27\sr5e1_l9388_freeosek\modules\platform\clock\include\sr5e1\clock.h ****  * @brief   Checks if CRC clock is enabled
1715:d:\project\9388\e1\2023_7_27\sr5e1_l9388_freeosek\modules\platform\clock\include\sr5e1\clock.h ****  *
1716:d:\project\9388\e1\2023_7_27\sr5e1_l9388_freeosek\modules\platform\clock\include\sr5e1\clock.h ****  * @api
1717:d:\project\9388\e1\2023_7_27\sr5e1_l9388_freeosek\modules\platform\clock\include\sr5e1\clock.h ****  */
1718:d:\project\9388\e1\2023_7_27\sr5e1_l9388_freeosek\modules\platform\clock\include\sr5e1\clock.h **** __STATIC_FORCEINLINE bool is_clock_enable_CRC(void) {
1719:d:\project\9388\e1\2023_7_27\sr5e1_l9388_freeosek\modules\platform\clock\include\sr5e1\clock.h **** 
1720:d:\project\9388\e1\2023_7_27\sr5e1_l9388_freeosek\modules\platform\clock\include\sr5e1\clock.h ****     return is_clock_enable_AHB1L(RCC_AHB1LENR_CRC);
1721:d:\project\9388\e1\2023_7_27\sr5e1_l9388_freeosek\modules\platform\clock\include\sr5e1\clock.h **** }
1722:d:\project\9388\e1\2023_7_27\sr5e1_l9388_freeosek\modules\platform\clock\include\sr5e1\clock.h **** 
1723:d:\project\9388\e1\2023_7_27\sr5e1_l9388_freeosek\modules\platform\clock\include\sr5e1\clock.h **** /**
1724:d:\project\9388\e1\2023_7_27\sr5e1_l9388_freeosek\modules\platform\clock\include\sr5e1\clock.h ****  * @brief   Resets CRC
1725:d:\project\9388\e1\2023_7_27\sr5e1_l9388_freeosek\modules\platform\clock\include\sr5e1\clock.h ****  *
1726:d:\project\9388\e1\2023_7_27\sr5e1_l9388_freeosek\modules\platform\clock\include\sr5e1\clock.h ****  * @api
1727:d:\project\9388\e1\2023_7_27\sr5e1_l9388_freeosek\modules\platform\clock\include\sr5e1\clock.h ****  */
1728:d:\project\9388\e1\2023_7_27\sr5e1_l9388_freeosek\modules\platform\clock\include\sr5e1\clock.h **** __STATIC_FORCEINLINE void clock_reset_CRC(void) {
1729:d:\project\9388\e1\2023_7_27\sr5e1_l9388_freeosek\modules\platform\clock\include\sr5e1\clock.h **** 
1730:d:\project\9388\e1\2023_7_27\sr5e1_l9388_freeosek\modules\platform\clock\include\sr5e1\clock.h ****     clock_reset_AHB1L(RCC_AHB1LRSTR_CRC);
1731:d:\project\9388\e1\2023_7_27\sr5e1_l9388_freeosek\modules\platform\clock\include\sr5e1\clock.h **** }
1732:d:\project\9388\e1\2023_7_27\sr5e1_l9388_freeosek\modules\platform\clock\include\sr5e1\clock.h **** 
1733:d:\project\9388\e1\2023_7_27\sr5e1_l9388_freeosek\modules\platform\clock\include\sr5e1\clock.h **** /**
1734:d:\project\9388\e1\2023_7_27\sr5e1_l9388_freeosek\modules\platform\clock\include\sr5e1\clock.h ****  * @brief   Enables HSEM clock
1735:d:\project\9388\e1\2023_7_27\sr5e1_l9388_freeosek\modules\platform\clock\include\sr5e1\clock.h ****  *
1736:d:\project\9388\e1\2023_7_27\sr5e1_l9388_freeosek\modules\platform\clock\include\sr5e1\clock.h ****  * @param[in] smode     sleep mode (if true, peripheral clock is enabled in
1737:d:\project\9388\e1\2023_7_27\sr5e1_l9388_freeosek\modules\platform\clock\include\sr5e1\clock.h ****  *                      sleep mode)
1738:d:\project\9388\e1\2023_7_27\sr5e1_l9388_freeosek\modules\platform\clock\include\sr5e1\clock.h ****  *
1739:d:\project\9388\e1\2023_7_27\sr5e1_l9388_freeosek\modules\platform\clock\include\sr5e1\clock.h ****  * @api
1740:d:\project\9388\e1\2023_7_27\sr5e1_l9388_freeosek\modules\platform\clock\include\sr5e1\clock.h ****  */
1741:d:\project\9388\e1\2023_7_27\sr5e1_l9388_freeosek\modules\platform\clock\include\sr5e1\clock.h **** __STATIC_FORCEINLINE void clock_enable_HSEM(bool smode) {
1742:d:\project\9388\e1\2023_7_27\sr5e1_l9388_freeosek\modules\platform\clock\include\sr5e1\clock.h **** 
1743:d:\project\9388\e1\2023_7_27\sr5e1_l9388_freeosek\modules\platform\clock\include\sr5e1\clock.h ****     clock_enable_AHB1L(smode, RCC_AHB1LENR_HSEM);
1744:d:\project\9388\e1\2023_7_27\sr5e1_l9388_freeosek\modules\platform\clock\include\sr5e1\clock.h **** }
1745:d:\project\9388\e1\2023_7_27\sr5e1_l9388_freeosek\modules\platform\clock\include\sr5e1\clock.h **** 
1746:d:\project\9388\e1\2023_7_27\sr5e1_l9388_freeosek\modules\platform\clock\include\sr5e1\clock.h **** /**
1747:d:\project\9388\e1\2023_7_27\sr5e1_l9388_freeosek\modules\platform\clock\include\sr5e1\clock.h ****  * @brief   Disables HSEM clock
