   1              		.cpu cortex-m7
   2              		.arch armv7e-m
   3              		.fpu fpv5-d16
   4              		.eabi_attribute 28, 1
   5              		.eabi_attribute 20, 1
   6              		.eabi_attribute 21, 1
   7              		.eabi_attribute 23, 3
   8              		.eabi_attribute 24, 1
   9              		.eabi_attribute 25, 1
  10              		.eabi_attribute 26, 1
  11              		.eabi_attribute 30, 6
  12              		.eabi_attribute 34, 1
  13              		.eabi_attribute 18, 4
  14              		.file	"Os_Internal_Arch_Cfg.c"
  15              		.text
  16              	.Ltext0:
  17              		.cfi_sections	.debug_frame
  18              		.syntax unified
  19              		.thumb_func
  20              	.syntax unified
  21              	.global PendSV_Handler
  22              	.extern Osek_OldTaskPtr_Arch,Osek_NewTaskPtr_Arch,CheckTerminatingTask_Arch
  23              	PendSV_Handler:
  24 0000 71B6     	cpsid f
  25 0002 00B5     	push {lr}
  26 0004 FFF7FEFF 	bl CheckTerminatingTask_Arch
  27 0008 5DF804EB 	pop {lr}
  28 000c 1EF0040F 	tst lr,4
  29 0010 0CBF     	ite eq
  30 0012 EFF30880 	mrseq r0,msp
  31 0016 EFF30980 	mrsne r0,psp
  32 001a 20E9F04F 	stmdb r0!,{r4-r11,lr}
  33 001e 1EF0040F 	tst lr,4
  34 0022 08BF     	it eq
  35 0024 80F30888 	msreq msp,r0
  36 0028 2649     	ldr r1,=Osek_OldTaskPtr_Arch
  37 002a 0968     	ldr r1,[r1]
  38 002c 0029     	cmp r1,0
  39 002e 18BF     	it ne
  40 0030 0860     	strne r0,[r1]
  41 0032 2549     	ldr r1,=Osek_NewTaskPtr_Arch
  42 0034 0968     	ldr r1,[r1]
  43 0036 0868     	ldr r0,[r1]
  44 0038 B0E8F04F 	ldmia r0!,{r4-r11,lr}
  45 003c EFF31481 	mrs r1,control
  46 0040 1EF0040F 	tst lr,4
  47 0044 07BF     	ittee eq
  48 0046 21F00301 	biceq r1,3
  49 004a 80F30888 	msreq msp,r0
  50 004e 41F00201 	orrne r1,2
  51 0052 80F30988 	msrne psp,r0
  52 0056 81F31488 	msr control,r1
  53 005a 61B6     	cpsie f
  54 005c 7047     	bx lr
  55              	
  56              		.thumb
  57              		.syntax unified
  58              		.section	.text,"ax",%progbits
  59              		.align	1
  60 005e 00BF     		.p2align 4,,15
  61              		.global	NMI_Handler
  62              		.syntax unified
  63              		.thumb
  64              		.thumb_func
  66              	NMI_Handler:
  67              	.LFB0:
  68              		.file 1 "Modules/OS/OSAL/src/Os_Internal_Arch_Cfg.c"
   1:Modules/OS/OSAL/src/Os_Internal_Arch_Cfg.c **** /********************************************************
   2:Modules/OS/OSAL/src/Os_Internal_Arch_Cfg.c ****  * DO NOT CHANGE THIS FILE, IT IS GENERATED AUTOMATICALY*
   3:Modules/OS/OSAL/src/Os_Internal_Arch_Cfg.c ****  ********************************************************/
   4:Modules/OS/OSAL/src/Os_Internal_Arch_Cfg.c **** 
   5:Modules/OS/OSAL/src/Os_Internal_Arch_Cfg.c **** /* Copyright 2014, Mariano Cerdeiro
   6:Modules/OS/OSAL/src/Os_Internal_Arch_Cfg.c ****  * Copyright 2014, Pablo Ridolfi
   7:Modules/OS/OSAL/src/Os_Internal_Arch_Cfg.c ****  *
   8:Modules/OS/OSAL/src/Os_Internal_Arch_Cfg.c ****  * This file is part of CIAA Firmware.
   9:Modules/OS/OSAL/src/Os_Internal_Arch_Cfg.c ****  *
  10:Modules/OS/OSAL/src/Os_Internal_Arch_Cfg.c ****  * Redistribution and use in source and binary forms, with or without
  11:Modules/OS/OSAL/src/Os_Internal_Arch_Cfg.c ****  * modification, are permitted provided that the following conditions are met:
  12:Modules/OS/OSAL/src/Os_Internal_Arch_Cfg.c ****  *
  13:Modules/OS/OSAL/src/Os_Internal_Arch_Cfg.c ****  * 1. Redistributions of source code must retain the above copyright notice,
  14:Modules/OS/OSAL/src/Os_Internal_Arch_Cfg.c ****  *    this list of conditions and the following disclaimer.
  15:Modules/OS/OSAL/src/Os_Internal_Arch_Cfg.c ****  *
  16:Modules/OS/OSAL/src/Os_Internal_Arch_Cfg.c ****  * 2. Redistributions in binary form must reproduce the above copyright notice,
  17:Modules/OS/OSAL/src/Os_Internal_Arch_Cfg.c ****  *    this list of conditions and the following disclaimer in the documentation
  18:Modules/OS/OSAL/src/Os_Internal_Arch_Cfg.c ****  *    and/or other materials provided with the distribution.
  19:Modules/OS/OSAL/src/Os_Internal_Arch_Cfg.c ****  *
  20:Modules/OS/OSAL/src/Os_Internal_Arch_Cfg.c ****  * 3. Neither the name of the copyright holder nor the names of its
  21:Modules/OS/OSAL/src/Os_Internal_Arch_Cfg.c ****  *    contributors may be used to endorse or promote products derived from this
  22:Modules/OS/OSAL/src/Os_Internal_Arch_Cfg.c ****  *    software without specific prior written permission.
  23:Modules/OS/OSAL/src/Os_Internal_Arch_Cfg.c ****  *
  24:Modules/OS/OSAL/src/Os_Internal_Arch_Cfg.c ****  * THIS SOFTWARE IS PROVIDED BY THE COPYRIGHT HOLDERS AND CONTRIBUTORS "AS IS"
  25:Modules/OS/OSAL/src/Os_Internal_Arch_Cfg.c ****  * AND ANY EXPRESS OR IMPLIED WARRANTIES, INCLUDING, BUT NOT LIMITED TO, THE
  26:Modules/OS/OSAL/src/Os_Internal_Arch_Cfg.c ****  * IMPLIED WARRANTIES OF MERCHANTABILITY AND FITNESS FOR A PARTICULAR PURPOSE
  27:Modules/OS/OSAL/src/Os_Internal_Arch_Cfg.c ****  * ARE DISCLAIMED. IN NO EVENT SHALL THE COPYRIGHT HOLDER OR CONTRIBUTORS BE
  28:Modules/OS/OSAL/src/Os_Internal_Arch_Cfg.c ****  * LIABLE FOR ANY DIRECT, INDIRECT, INCIDENTAL, SPECIAL, EXEMPLARY, OR
  29:Modules/OS/OSAL/src/Os_Internal_Arch_Cfg.c ****  * CONSEQUENTIAL DAMAGES (INCLUDING, BUT NOT LIMITED TO, PROCUREMENT OF
  30:Modules/OS/OSAL/src/Os_Internal_Arch_Cfg.c ****  * SUBSTITUTE GOODS OR SERVICES; LOSS OF USE, DATA, OR PROFITS; OR BUSINESS
  31:Modules/OS/OSAL/src/Os_Internal_Arch_Cfg.c ****  * INTERRUPTION) HOWEVER CAUSED AND ON ANY THEORY OF LIABILITY, WHETHER IN
  32:Modules/OS/OSAL/src/Os_Internal_Arch_Cfg.c ****  * CONTRACT, STRICT LIABILITY, OR TORT (INCLUDING NEGLIGENCE OR OTHERWISE)
  33:Modules/OS/OSAL/src/Os_Internal_Arch_Cfg.c ****  * ARISING IN ANY WAY OUT OF THE USE OF THIS SOFTWARE, EVEN IF ADVISED OF THE
  34:Modules/OS/OSAL/src/Os_Internal_Arch_Cfg.c ****  * POSSIBILITY OF SUCH DAMAGE.
  35:Modules/OS/OSAL/src/Os_Internal_Arch_Cfg.c ****  *
  36:Modules/OS/OSAL/src/Os_Internal_Arch_Cfg.c ****  */
  37:Modules/OS/OSAL/src/Os_Internal_Arch_Cfg.c **** 
  38:Modules/OS/OSAL/src/Os_Internal_Arch_Cfg.c **** /** \brief FreeOSEK Os Generated Internal Achitecture Configuration Implementation File
  39:Modules/OS/OSAL/src/Os_Internal_Arch_Cfg.c ****  **
  40:Modules/OS/OSAL/src/Os_Internal_Arch_Cfg.c ****  ** \file cortexM4/Os_Internal_Arch_Cfg.c
  41:Modules/OS/OSAL/src/Os_Internal_Arch_Cfg.c ****  ** \arch cortexM4
  42:Modules/OS/OSAL/src/Os_Internal_Arch_Cfg.c ****  **/
  43:Modules/OS/OSAL/src/Os_Internal_Arch_Cfg.c **** 
  44:Modules/OS/OSAL/src/Os_Internal_Arch_Cfg.c **** /** \addtogroup FreeOSEK
  45:Modules/OS/OSAL/src/Os_Internal_Arch_Cfg.c ****  ** @{ */
  46:Modules/OS/OSAL/src/Os_Internal_Arch_Cfg.c **** /** \addtogroup FreeOSEK_Os
  47:Modules/OS/OSAL/src/Os_Internal_Arch_Cfg.c ****  ** @{ */
  48:Modules/OS/OSAL/src/Os_Internal_Arch_Cfg.c **** /** \addtogroup FreeOSEK_Os_Internal
  49:Modules/OS/OSAL/src/Os_Internal_Arch_Cfg.c ****  ** @{ */
  50:Modules/OS/OSAL/src/Os_Internal_Arch_Cfg.c **** 
  51:Modules/OS/OSAL/src/Os_Internal_Arch_Cfg.c **** /*
  52:Modules/OS/OSAL/src/Os_Internal_Arch_Cfg.c ****  * Initials     Name
  53:Modules/OS/OSAL/src/Os_Internal_Arch_Cfg.c ****  * ---------------------------
  54:Modules/OS/OSAL/src/Os_Internal_Arch_Cfg.c ****  * MaCe         Mariano Cerdeiro
  55:Modules/OS/OSAL/src/Os_Internal_Arch_Cfg.c ****  * PR           Pablo Ridolfi
  56:Modules/OS/OSAL/src/Os_Internal_Arch_Cfg.c ****  */
  57:Modules/OS/OSAL/src/Os_Internal_Arch_Cfg.c **** 
  58:Modules/OS/OSAL/src/Os_Internal_Arch_Cfg.c **** /*
  59:Modules/OS/OSAL/src/Os_Internal_Arch_Cfg.c ****  * modification history (new versions first)
  60:Modules/OS/OSAL/src/Os_Internal_Arch_Cfg.c ****  * -----------------------------------------------------------
  61:Modules/OS/OSAL/src/Os_Internal_Arch_Cfg.c ****  * v0.1.2 20160426 PR   Phuong Dang : change interrupt sources to STM32F4
  62:Modules/OS/OSAL/src/Os_Internal_Arch_Cfg.c ****  * v0.1.2 20141130 PR   Added ISR cat. 2 enabling and disabling functions.
  63:Modules/OS/OSAL/src/Os_Internal_Arch_Cfg.c ****  * v0.1.1 20141115 PR   added LPC43xx interrupt sources, spelling mistake fixed
  64:Modules/OS/OSAL/src/Os_Internal_Arch_Cfg.c ****  * v0.1.0 20141115 MaCe initial version
  65:Modules/OS/OSAL/src/Os_Internal_Arch_Cfg.c ****  */
  66:Modules/OS/OSAL/src/Os_Internal_Arch_Cfg.c **** 
  67:Modules/OS/OSAL/src/Os_Internal_Arch_Cfg.c **** /*==================[inclusions]=============================================*/
  68:Modules/OS/OSAL/src/Os_Internal_Arch_Cfg.c **** #include "Os_Internal.h"
  69:Modules/OS/OSAL/src/Os_Internal_Arch_Cfg.c **** // #include "stm32f4xx.h"
  70:Modules/OS/OSAL/src/Os_Internal_Arch_Cfg.c **** 
  71:Modules/OS/OSAL/src/Os_Internal_Arch_Cfg.c **** /*==================[macros and definitions]=================================*/
  72:Modules/OS/OSAL/src/Os_Internal_Arch_Cfg.c **** 
  73:Modules/OS/OSAL/src/Os_Internal_Arch_Cfg.c **** /*==================[internal data declaration]==============================*/
  74:Modules/OS/OSAL/src/Os_Internal_Arch_Cfg.c **** 
  75:Modules/OS/OSAL/src/Os_Internal_Arch_Cfg.c **** /*==================[internal functions declaration]=========================*/
  76:Modules/OS/OSAL/src/Os_Internal_Arch_Cfg.c **** 
  77:Modules/OS/OSAL/src/Os_Internal_Arch_Cfg.c **** /*==================[internal data definition]===============================*/
  78:Modules/OS/OSAL/src/Os_Internal_Arch_Cfg.c **** 
  79:Modules/OS/OSAL/src/Os_Internal_Arch_Cfg.c **** /*==================[external data definition]===============================*/
  80:Modules/OS/OSAL/src/Os_Internal_Arch_Cfg.c **** 
  81:Modules/OS/OSAL/src/Os_Internal_Arch_Cfg.c **** /* ResetISR is defined in cr_startup_lpc43xx.c */
  82:Modules/OS/OSAL/src/Os_Internal_Arch_Cfg.c **** extern void ResetISR(void);
  83:Modules/OS/OSAL/src/Os_Internal_Arch_Cfg.c **** 
  84:Modules/OS/OSAL/src/Os_Internal_Arch_Cfg.c **** /** \brief External declaration for the pointer to the stack top from the Linker Script */
  85:Modules/OS/OSAL/src/Os_Internal_Arch_Cfg.c **** extern void _vStackTop(void);
  86:Modules/OS/OSAL/src/Os_Internal_Arch_Cfg.c **** 
  87:Modules/OS/OSAL/src/Os_Internal_Arch_Cfg.c **** /** \brief Handlers used by OSEK */
  88:Modules/OS/OSAL/src/Os_Internal_Arch_Cfg.c **** extern void SysTick_Handler(void);
  89:Modules/OS/OSAL/src/Os_Internal_Arch_Cfg.c **** extern void PendSV_Handler(void);
  90:Modules/OS/OSAL/src/Os_Internal_Arch_Cfg.c **** 
  91:Modules/OS/OSAL/src/Os_Internal_Arch_Cfg.c **** 
  92:Modules/OS/OSAL/src/Os_Internal_Arch_Cfg.c **** asm
  93:Modules/OS/OSAL/src/Os_Internal_Arch_Cfg.c **** (
  94:Modules/OS/OSAL/src/Os_Internal_Arch_Cfg.c ****     ".thumb_func\n"
  95:Modules/OS/OSAL/src/Os_Internal_Arch_Cfg.c ****     ".syntax unified\n"
  96:Modules/OS/OSAL/src/Os_Internal_Arch_Cfg.c ****     ".global PendSV_Handler\n"
  97:Modules/OS/OSAL/src/Os_Internal_Arch_Cfg.c ****     ".extern Osek_OldTaskPtr_Arch,Osek_NewTaskPtr_Arch,CheckTerminatingTask_Arch\n"
  98:Modules/OS/OSAL/src/Os_Internal_Arch_Cfg.c **** "PendSV_Handler:\n"
  99:Modules/OS/OSAL/src/Os_Internal_Arch_Cfg.c **** 	"cpsid f\n"
 100:Modules/OS/OSAL/src/Os_Internal_Arch_Cfg.c ****    "push {lr}\n"
 101:Modules/OS/OSAL/src/Os_Internal_Arch_Cfg.c ****    "bl CheckTerminatingTask_Arch\n"
 102:Modules/OS/OSAL/src/Os_Internal_Arch_Cfg.c ****    "pop {lr}\n"
 103:Modules/OS/OSAL/src/Os_Internal_Arch_Cfg.c **** 	"tst lr,4\n"
 104:Modules/OS/OSAL/src/Os_Internal_Arch_Cfg.c **** 	"ite eq\n"
 105:Modules/OS/OSAL/src/Os_Internal_Arch_Cfg.c **** 	"mrseq r0,msp\n"
 106:Modules/OS/OSAL/src/Os_Internal_Arch_Cfg.c **** 	"mrsne r0,psp\n"
 107:Modules/OS/OSAL/src/Os_Internal_Arch_Cfg.c **** 	"stmdb r0!,{r4-r11,lr}\n"
 108:Modules/OS/OSAL/src/Os_Internal_Arch_Cfg.c **** 	"tst lr,4\n"
 109:Modules/OS/OSAL/src/Os_Internal_Arch_Cfg.c **** 	"it eq\n"
 110:Modules/OS/OSAL/src/Os_Internal_Arch_Cfg.c **** 	"msreq msp,r0\n"
 111:Modules/OS/OSAL/src/Os_Internal_Arch_Cfg.c **** 	"ldr r1,=Osek_OldTaskPtr_Arch\n"
 112:Modules/OS/OSAL/src/Os_Internal_Arch_Cfg.c **** 	"ldr r1,[r1]\n"
 113:Modules/OS/OSAL/src/Os_Internal_Arch_Cfg.c **** 	"cmp r1,0\n"
 114:Modules/OS/OSAL/src/Os_Internal_Arch_Cfg.c **** 	"it ne\n"
 115:Modules/OS/OSAL/src/Os_Internal_Arch_Cfg.c **** 	"strne r0,[r1]\n"
 116:Modules/OS/OSAL/src/Os_Internal_Arch_Cfg.c **** 
 117:Modules/OS/OSAL/src/Os_Internal_Arch_Cfg.c **** 	"ldr r1,=Osek_NewTaskPtr_Arch\n"
 118:Modules/OS/OSAL/src/Os_Internal_Arch_Cfg.c **** 	"ldr r1,[r1]\n"
 119:Modules/OS/OSAL/src/Os_Internal_Arch_Cfg.c **** 	"ldr r0,[r1]\n"
 120:Modules/OS/OSAL/src/Os_Internal_Arch_Cfg.c **** 	"ldmia r0!,{r4-r11,lr}\n"
 121:Modules/OS/OSAL/src/Os_Internal_Arch_Cfg.c **** 	"mrs r1,control\n"
 122:Modules/OS/OSAL/src/Os_Internal_Arch_Cfg.c **** 	"tst lr,4\n"
 123:Modules/OS/OSAL/src/Os_Internal_Arch_Cfg.c **** 	"ittee eq\n"
 124:Modules/OS/OSAL/src/Os_Internal_Arch_Cfg.c **** 	"biceq r1,3\n"
 125:Modules/OS/OSAL/src/Os_Internal_Arch_Cfg.c **** 	"msreq msp,r0\n"
 126:Modules/OS/OSAL/src/Os_Internal_Arch_Cfg.c **** 	"orrne r1,2\n"
 127:Modules/OS/OSAL/src/Os_Internal_Arch_Cfg.c **** 	"msrne psp,r0\n"
 128:Modules/OS/OSAL/src/Os_Internal_Arch_Cfg.c **** 	"msr control,r1\n"
 129:Modules/OS/OSAL/src/Os_Internal_Arch_Cfg.c **** 	"cpsie f\n"
 130:Modules/OS/OSAL/src/Os_Internal_Arch_Cfg.c **** 	"bx lr\n"
 131:Modules/OS/OSAL/src/Os_Internal_Arch_Cfg.c **** );
 132:Modules/OS/OSAL/src/Os_Internal_Arch_Cfg.c **** 
 133:Modules/OS/OSAL/src/Os_Internal_Arch_Cfg.c **** 
 134:Modules/OS/OSAL/src/Os_Internal_Arch_Cfg.c **** 
 135:Modules/OS/OSAL/src/Os_Internal_Arch_Cfg.c **** 
 136:Modules/OS/OSAL/src/Os_Internal_Arch_Cfg.c **** /*==================[internal functions definition]==========================*/
 137:Modules/OS/OSAL/src/Os_Internal_Arch_Cfg.c **** 
 138:Modules/OS/OSAL/src/Os_Internal_Arch_Cfg.c **** /* Default exception handlers. */
 139:Modules/OS/OSAL/src/Os_Internal_Arch_Cfg.c **** __attribute__ ((section(".text")))
 140:Modules/OS/OSAL/src/Os_Internal_Arch_Cfg.c **** void NMI_Handler(void) {
  69              		.loc 1 140 24
  70              		.cfi_startproc
  71              		@ args = 0, pretend = 0, frame = 0
  72              		@ frame_needed = 0, uses_anonymous_args = 0
  73              		@ link register save eliminated.
  74              	.L2:
 141:Modules/OS/OSAL/src/Os_Internal_Arch_Cfg.c ****     while (1) {
  75              		.loc 1 141 11 discriminator 1
  76 0060 FEE7     		b	.L2
  77              		.cfi_endproc
  78              	.LFE0:
  80              		.align	1
  81 0062 00BFAFF3 		.p2align 4,,15
  81      0080AFF3 
  81      0080AFF3 
  81      0080
  82              		.global	HardFault_Handler
  83              		.syntax unified
  84              		.thumb
  85              		.thumb_func
  87              	HardFault_Handler:
  88              	.LFB1:
 142:Modules/OS/OSAL/src/Os_Internal_Arch_Cfg.c ****     }
 143:Modules/OS/OSAL/src/Os_Internal_Arch_Cfg.c **** }
 144:Modules/OS/OSAL/src/Os_Internal_Arch_Cfg.c **** __attribute__ ((section(".text")))
 145:Modules/OS/OSAL/src/Os_Internal_Arch_Cfg.c **** void HardFault_Handler(void) {
  89              		.loc 1 145 30
  90              		.cfi_startproc
  91              		@ args = 0, pretend = 0, frame = 0
  92              		@ frame_needed = 0, uses_anonymous_args = 0
  93              		@ link register save eliminated.
  94              	.L4:
 146:Modules/OS/OSAL/src/Os_Internal_Arch_Cfg.c ****     while (1) {
  95              		.loc 1 146 11 discriminator 1
  96 0070 FEE7     		b	.L4
  97              		.cfi_endproc
  98              	.LFE1:
 100              		.align	1
 101 0072 00BFAFF3 		.p2align 4,,15
 101      0080AFF3 
 101      0080AFF3 
 101      0080
 102              		.global	MemManage_Handler
 103              		.syntax unified
 104              		.thumb
 105              		.thumb_func
 107              	MemManage_Handler:
 108              	.LFB2:
 147:Modules/OS/OSAL/src/Os_Internal_Arch_Cfg.c ****     }
 148:Modules/OS/OSAL/src/Os_Internal_Arch_Cfg.c **** }
 149:Modules/OS/OSAL/src/Os_Internal_Arch_Cfg.c **** __attribute__ ((section(".text")))
 150:Modules/OS/OSAL/src/Os_Internal_Arch_Cfg.c **** void MemManage_Handler(void) {
 109              		.loc 1 150 30
 110              		.cfi_startproc
 111              		@ args = 0, pretend = 0, frame = 0
 112              		@ frame_needed = 0, uses_anonymous_args = 0
 113              		@ link register save eliminated.
 114              	.L6:
 151:Modules/OS/OSAL/src/Os_Internal_Arch_Cfg.c ****     while (1) {
 115              		.loc 1 151 11 discriminator 1
 116 0080 FEE7     		b	.L6
 117              		.cfi_endproc
 118              	.LFE2:
 120              		.align	1
 121 0082 00BFAFF3 		.p2align 4,,15
 121      0080AFF3 
 121      0080AFF3 
 121      0080
 122              		.global	BusFault_Handler
 123              		.syntax unified
 124              		.thumb
 125              		.thumb_func
 127              	BusFault_Handler:
 128              	.LFB3:
 152:Modules/OS/OSAL/src/Os_Internal_Arch_Cfg.c ****     }
 153:Modules/OS/OSAL/src/Os_Internal_Arch_Cfg.c **** }
 154:Modules/OS/OSAL/src/Os_Internal_Arch_Cfg.c **** __attribute__ ((section(".text")))
 155:Modules/OS/OSAL/src/Os_Internal_Arch_Cfg.c **** void BusFault_Handler(void) {
 129              		.loc 1 155 29
 130              		.cfi_startproc
 131              		@ args = 0, pretend = 0, frame = 0
 132              		@ frame_needed = 0, uses_anonymous_args = 0
 133              		@ link register save eliminated.
 134              	.L8:
 156:Modules/OS/OSAL/src/Os_Internal_Arch_Cfg.c ****     while (1) {
 135              		.loc 1 156 11 discriminator 1
 136 0090 FEE7     		b	.L8
 137              		.cfi_endproc
 138              	.LFE3:
 140              		.align	1
 141 0092 00BFAFF3 		.p2align 4,,15
 141      0080AFF3 
 141      0080AFF3 
 141      0080
 142              		.global	UsageFault_Handler
 143              		.syntax unified
 144              		.thumb
 145              		.thumb_func
 147              	UsageFault_Handler:
 148              	.LFB4:
 157:Modules/OS/OSAL/src/Os_Internal_Arch_Cfg.c ****     }
 158:Modules/OS/OSAL/src/Os_Internal_Arch_Cfg.c **** }
 159:Modules/OS/OSAL/src/Os_Internal_Arch_Cfg.c **** __attribute__ ((section(".text")))
 160:Modules/OS/OSAL/src/Os_Internal_Arch_Cfg.c **** void UsageFault_Handler(void) {
 149              		.loc 1 160 31
 150              		.cfi_startproc
 151              		@ args = 0, pretend = 0, frame = 0
 152              		@ frame_needed = 0, uses_anonymous_args = 0
 153              		@ link register save eliminated.
 154              	.L10:
 161:Modules/OS/OSAL/src/Os_Internal_Arch_Cfg.c ****     while (1) {
 155              		.loc 1 161 11 discriminator 1
 156 00a0 FEE7     		b	.L10
 157              		.cfi_endproc
 158              	.LFE4:
 160              		.align	1
 161 00a2 00BFAFF3 		.p2align 4,,15
 161      0080AFF3 
 161      0080AFF3 
 161      0080
 162              		.global	SVC_Handler
 163              		.syntax unified
 164              		.thumb
 165              		.thumb_func
 167              	SVC_Handler:
 168              	.LFB5:
 162:Modules/OS/OSAL/src/Os_Internal_Arch_Cfg.c ****     }
 163:Modules/OS/OSAL/src/Os_Internal_Arch_Cfg.c **** }
 164:Modules/OS/OSAL/src/Os_Internal_Arch_Cfg.c **** __attribute__ ((section(".text")))
 165:Modules/OS/OSAL/src/Os_Internal_Arch_Cfg.c **** void SVC_Handler(void) {
 169              		.loc 1 165 24
 170              		.cfi_startproc
 171              		@ args = 0, pretend = 0, frame = 0
 172              		@ frame_needed = 0, uses_anonymous_args = 0
 173              		@ link register save eliminated.
 174              	.L12:
 166:Modules/OS/OSAL/src/Os_Internal_Arch_Cfg.c ****     while (1) {
 175              		.loc 1 166 11 discriminator 1
 176 00b0 FEE7     		b	.L12
 177              		.cfi_endproc
 178              	.LFE5:
 180              		.align	1
 181 00b2 00BFAFF3 		.p2align 4,,15
 181      0080AFF3 
 181      0080AFF3 
 181      0080
 182              		.global	DebugMon_Handler
 183              		.syntax unified
 184              		.thumb
 185              		.thumb_func
 187              	DebugMon_Handler:
 188              	.LFB6:
 167:Modules/OS/OSAL/src/Os_Internal_Arch_Cfg.c ****     }
 168:Modules/OS/OSAL/src/Os_Internal_Arch_Cfg.c **** }
 169:Modules/OS/OSAL/src/Os_Internal_Arch_Cfg.c **** __attribute__ ((section(".text")))
 170:Modules/OS/OSAL/src/Os_Internal_Arch_Cfg.c **** void DebugMon_Handler(void) {
 189              		.loc 1 170 29
 190              		.cfi_startproc
 191              		@ args = 0, pretend = 0, frame = 0
 192              		@ frame_needed = 0, uses_anonymous_args = 0
 193              		@ link register save eliminated.
 194              	.L14:
 171:Modules/OS/OSAL/src/Os_Internal_Arch_Cfg.c ****     while (1) {
 195              		.loc 1 171 11 discriminator 1
 196 00c0 FEE7     		b	.L14
 197              		.cfi_endproc
 198              	.LFE6:
 200              		.global	g_pfnVectors
 201              		.section	.isr_vector,"a"
 202              		.align	2
 205              	g_pfnVectors:
 206 0000 00000000 		.word	_vStackTop
 207 0004 00000000 		.word	ResetISR
 208 0008 00000000 		.word	NMI_Handler
 209 000c 00000000 		.word	HardFault_Handler
 210 0010 00000000 		.word	MemManage_Handler
 211 0014 00000000 		.word	BusFault_Handler
 212 0018 00000000 		.word	UsageFault_Handler
 213 001c 00000000 		.word	0
 214 0020 00000000 		.word	0
 215 0024 00000000 		.word	0
 216 0028 00000000 		.word	0
 217 002c 00000000 		.word	SVC_Handler
 218 0030 00000000 		.word	DebugMon_Handler
 219 0034 00000000 		.word	0
 220 0038 00000000 		.word	PendSV_Handler
 221 003c 00000000 		.word	SysTick_Handler
 222 0040 00000000 		.word	OSEK_ISR_NoHandler
 223 0044 00000000 		.word	OSEK_ISR_NoHandler
 224 0048 00000000 		.word	OSEK_ISR_NoHandler
 225 004c 00000000 		.word	OSEK_ISR_NoHandler
 226 0050 00000000 		.word	OSEK_ISR_NoHandler
 227 0054 00000000 		.word	OSEK_ISR_NoHandler
 228 0058 00000000 		.word	OSEK_ISR_NoHandler
 229 005c 00000000 		.word	OSEK_ISR_NoHandler
 230 0060 00000000 		.word	OSEK_ISR_NoHandler
 231 0064 00000000 		.word	OSEK_ISR_NoHandler
 232 0068 00000000 		.word	OSEK_ISR_NoHandler
 233 006c 00000000 		.word	OSEK_ISR_NoHandler
 234 0070 00000000 		.word	OSEK_ISR_NoHandler
 235 0074 00000000 		.word	OSEK_ISR_NoHandler
 236 0078 00000000 		.word	OSEK_ISR_NoHandler
 237 007c 00000000 		.word	OSEK_ISR_NoHandler
 238 0080 00000000 		.word	OSEK_ISR_NoHandler
 239 0084 00000000 		.word	OSEK_ISR_NoHandler
 240 0088 00000000 		.word	OSEK_ISR_NoHandler
 241 008c 00000000 		.word	OSEK_ISR_NoHandler
 242 0090 00000000 		.word	OSEK_ISR_NoHandler
 243 0094 00000000 		.word	OSEK_ISR_NoHandler
 244 0098 00000000 		.word	OSEK_ISR_NoHandler
 245 009c 00000000 		.word	OSEK_ISR_NoHandler
 246 00a0 00000000 		.word	OSEK_ISR_NoHandler
 247 00a4 00000000 		.word	OSEK_ISR_NoHandler
 248 00a8 00000000 		.word	OSEK_ISR_NoHandler
 249 00ac 00000000 		.word	OSEK_ISR_NoHandler
 250 00b0 00000000 		.word	OSEK_ISR_NoHandler
 251 00b4 00000000 		.word	OSEK_ISR_NoHandler
 252 00b8 00000000 		.word	OSEK_ISR_NoHandler
 253 00bc 00000000 		.word	OSEK_ISR_NoHandler
 254 00c0 00000000 		.word	OSEK_ISR_NoHandler
 255 00c4 00000000 		.word	OSEK_ISR_NoHandler
 256 00c8 00000000 		.word	OSEK_ISR_NoHandler
 257 00cc 00000000 		.word	OSEK_ISR_NoHandler
 258 00d0 00000000 		.word	OSEK_ISR_NoHandler
 259 00d4 00000000 		.word	OSEK_ISR_NoHandler
 260 00d8 00000000 		.word	OSEK_ISR_NoHandler
 261 00dc 00000000 		.word	OSEK_ISR_NoHandler
 262 00e0 00000000 		.word	OSEK_ISR_NoHandler
 263 00e4 00000000 		.word	OSEK_ISR_NoHandler
 264 00e8 00000000 		.word	OSEK_ISR_NoHandler
 265 00ec 00000000 		.word	OSEK_ISR_NoHandler
 266 00f0 00000000 		.word	OSEK_ISR_NoHandler
 267 00f4 00000000 		.word	OSEK_ISR_NoHandler
 268 00f8 00000000 		.word	OSEK_ISR_NoHandler
 269 00fc 00000000 		.word	OSEK_ISR_NoHandler
 270 0100 00000000 		.word	OSEK_ISR_NoHandler
 271 0104 00000000 		.word	OSEK_ISR_NoHandler
 272 0108 00000000 		.word	OSEK_ISR_NoHandler
 273 010c 00000000 		.word	OSEK_ISR_NoHandler
 274 0110 00000000 		.word	OSEK_ISR_NoHandler
 275 0114 00000000 		.word	OSEK_ISR_NoHandler
 276 0118 00000000 		.word	OSEK_ISR_NoHandler
 277 011c 00000000 		.word	OSEK_ISR_NoHandler
 278 0120 00000000 		.word	OSEK_ISR_NoHandler
 279 0124 00000000 		.word	OSEK_ISR_NoHandler
 280 0128 00000000 		.word	OSEK_ISR_NoHandler
 281 012c 00000000 		.word	OSEK_ISR_NoHandler
 282 0130 00000000 		.word	OSEK_ISR_NoHandler
 283 0134 00000000 		.word	OSEK_ISR_NoHandler
 284 0138 00000000 		.word	OSEK_ISR_NoHandler
 285 013c 00000000 		.word	OSEK_ISR_NoHandler
 286 0140 00000000 		.word	OSEK_ISR_NoHandler
 287 0144 00000000 		.word	OSEK_ISR_NoHandler
 288 0148 00000000 		.word	OSEK_ISR_NoHandler
 289 014c 00000000 		.word	OSEK_ISR_NoHandler
 290 0150 00000000 		.word	OSEK_ISR_NoHandler
 291 0154 00000000 		.word	OSEK_ISR_NoHandler
 292 0158 00000000 		.word	OSEK_ISR_NoHandler
 293 015c 00000000 		.word	OSEK_ISR_NoHandler
 294 0160 00000000 		.word	OSEK_ISR_NoHandler
 295 0164 00000000 		.word	OSEK_ISR_NoHandler
 296 0168 00000000 		.word	OSEK_ISR_NoHandler
 297 016c 00000000 		.word	OSEK_ISR_NoHandler
 298 0170 00000000 		.word	OSEK_ISR_NoHandler
 299 0174 00000000 		.word	OSEK_ISR_NoHandler
 300 0178 00000000 		.word	OSEK_ISR_NoHandler
 301 017c 00000000 		.word	OSEK_ISR_NoHandler
 302 0180 00000000 		.word	OSEK_ISR_NoHandler
 303 0184 00000000 		.word	OSEK_ISR_NoHandler
 304              		.section	.text.Enable_User_ISRs,"ax",%progbits
 305              		.align	1
 306              		.p2align 4,,15
 307              		.global	Enable_User_ISRs
 308              		.syntax unified
 309              		.thumb
 310              		.thumb_func
 312              	Enable_User_ISRs:
 313              	.LFB7:
 172:Modules/OS/OSAL/src/Os_Internal_Arch_Cfg.c ****     }
 173:Modules/OS/OSAL/src/Os_Internal_Arch_Cfg.c **** }
 174:Modules/OS/OSAL/src/Os_Internal_Arch_Cfg.c **** 
 175:Modules/OS/OSAL/src/Os_Internal_Arch_Cfg.c **** /*==================[external functions definition]==========================*/
 176:Modules/OS/OSAL/src/Os_Internal_Arch_Cfg.c **** 
 177:Modules/OS/OSAL/src/Os_Internal_Arch_Cfg.c **** /** \brief STM32F4 Interrupt vector */
 178:Modules/OS/OSAL/src/Os_Internal_Arch_Cfg.c **** __attribute__ ((section(".isr_vector")))
 179:Modules/OS/OSAL/src/Os_Internal_Arch_Cfg.c **** void (* const g_pfnVectors[])(void) = {
 180:Modules/OS/OSAL/src/Os_Internal_Arch_Cfg.c ****    /* Core Level - CM4 */
 181:Modules/OS/OSAL/src/Os_Internal_Arch_Cfg.c ****    &_vStackTop,                    /* The initial stack pointer  */
 182:Modules/OS/OSAL/src/Os_Internal_Arch_Cfg.c ****    ResetISR,                       /* The reset handler          */
 183:Modules/OS/OSAL/src/Os_Internal_Arch_Cfg.c ****    NMI_Handler,                    /* The NMI handler            */
 184:Modules/OS/OSAL/src/Os_Internal_Arch_Cfg.c ****    HardFault_Handler,              /* The hard fault handler     */
 185:Modules/OS/OSAL/src/Os_Internal_Arch_Cfg.c ****    MemManage_Handler,              /* The MPU fault handler      */
 186:Modules/OS/OSAL/src/Os_Internal_Arch_Cfg.c ****    BusFault_Handler,               /* The bus fault handler      */
 187:Modules/OS/OSAL/src/Os_Internal_Arch_Cfg.c ****    UsageFault_Handler,             /* The usage fault handler    */
 188:Modules/OS/OSAL/src/Os_Internal_Arch_Cfg.c ****    0,                              /* Reserved                   */
 189:Modules/OS/OSAL/src/Os_Internal_Arch_Cfg.c ****    0,                              /* Reserved                   */
 190:Modules/OS/OSAL/src/Os_Internal_Arch_Cfg.c ****    0,                              /* Reserved                   */
 191:Modules/OS/OSAL/src/Os_Internal_Arch_Cfg.c ****    0,                              /* Reserved                   */
 192:Modules/OS/OSAL/src/Os_Internal_Arch_Cfg.c ****    SVC_Handler,                    /* SVCall handler             */
 193:Modules/OS/OSAL/src/Os_Internal_Arch_Cfg.c ****    DebugMon_Handler,               /* Debug monitor handler      */
 194:Modules/OS/OSAL/src/Os_Internal_Arch_Cfg.c ****    0,                              /* Reserved                   */
 195:Modules/OS/OSAL/src/Os_Internal_Arch_Cfg.c ****    PendSV_Handler,                 /* The PendSV handler         */
 196:Modules/OS/OSAL/src/Os_Internal_Arch_Cfg.c ****    SysTick_Handler,                /* The SysTick handler        */
 197:Modules/OS/OSAL/src/Os_Internal_Arch_Cfg.c **** 
 198:Modules/OS/OSAL/src/Os_Internal_Arch_Cfg.c ****    /* Chip Level - STM32F4 (M4 core) */
 199:Modules/OS/OSAL/src/Os_Internal_Arch_Cfg.c ****    OSEK_ISR_NoHandler, /* No Handler set for ISR WWDG (IRQ 0) */
 200:Modules/OS/OSAL/src/Os_Internal_Arch_Cfg.c ****    OSEK_ISR_NoHandler, /* No Handler set for ISR PVD (IRQ 1) */
 201:Modules/OS/OSAL/src/Os_Internal_Arch_Cfg.c ****    OSEK_ISR_NoHandler, /* No Handler set for ISR TAMP_STAMP (IRQ 2) */
 202:Modules/OS/OSAL/src/Os_Internal_Arch_Cfg.c ****    OSEK_ISR_NoHandler, /* No Handler set for ISR RTC_WKUP (IRQ 3) */
 203:Modules/OS/OSAL/src/Os_Internal_Arch_Cfg.c ****    OSEK_ISR_NoHandler, /* No Handler set for ISR FLASH (IRQ 4) */
 204:Modules/OS/OSAL/src/Os_Internal_Arch_Cfg.c ****    OSEK_ISR_NoHandler, /* No Handler set for ISR RCC (IRQ 5) */
 205:Modules/OS/OSAL/src/Os_Internal_Arch_Cfg.c ****    OSEK_ISR_NoHandler, /* No Handler set for ISR EXTI0 (IRQ 6) */
 206:Modules/OS/OSAL/src/Os_Internal_Arch_Cfg.c ****    OSEK_ISR_NoHandler, /* No Handler set for ISR EXTI1 (IRQ 7) */
 207:Modules/OS/OSAL/src/Os_Internal_Arch_Cfg.c ****    OSEK_ISR_NoHandler, /* No Handler set for ISR EXTI2 (IRQ 8) */
 208:Modules/OS/OSAL/src/Os_Internal_Arch_Cfg.c ****    OSEK_ISR_NoHandler, /* No Handler set for ISR EXTI3 (IRQ 9) */
 209:Modules/OS/OSAL/src/Os_Internal_Arch_Cfg.c ****    OSEK_ISR_NoHandler, /* No Handler set for ISR EXTI4 (IRQ 10) */
 210:Modules/OS/OSAL/src/Os_Internal_Arch_Cfg.c ****    OSEK_ISR_NoHandler, /* No Handler set for ISR DMA1_Stream0 (IRQ 11) */
 211:Modules/OS/OSAL/src/Os_Internal_Arch_Cfg.c ****    OSEK_ISR_NoHandler, /* No Handler set for ISR DMA1_Stream1 (IRQ 12) */
 212:Modules/OS/OSAL/src/Os_Internal_Arch_Cfg.c ****    OSEK_ISR_NoHandler, /* No Handler set for ISR DMA1_Stream2 (IRQ 13) */
 213:Modules/OS/OSAL/src/Os_Internal_Arch_Cfg.c ****    OSEK_ISR_NoHandler, /* No Handler set for ISR DMA1_Stream3 (IRQ 14) */
 214:Modules/OS/OSAL/src/Os_Internal_Arch_Cfg.c ****    OSEK_ISR_NoHandler, /* No Handler set for ISR DMA1_Stream4 (IRQ 15) */
 215:Modules/OS/OSAL/src/Os_Internal_Arch_Cfg.c ****    OSEK_ISR_NoHandler, /* No Handler set for ISR DMA1_Stream5 (IRQ 16) */
 216:Modules/OS/OSAL/src/Os_Internal_Arch_Cfg.c ****    OSEK_ISR_NoHandler, /* No Handler set for ISR DMA1_Stream6 (IRQ 17) */
 217:Modules/OS/OSAL/src/Os_Internal_Arch_Cfg.c ****    OSEK_ISR_NoHandler, /* No Handler set for ISR ADC (IRQ 18) */
 218:Modules/OS/OSAL/src/Os_Internal_Arch_Cfg.c ****    OSEK_ISR_NoHandler, /* No Handler set for ISR CAN1_TX (IRQ 19) */
 219:Modules/OS/OSAL/src/Os_Internal_Arch_Cfg.c ****    OSEK_ISR_NoHandler, /* No Handler set for ISR CAN1_RX0 (IRQ 20) */
 220:Modules/OS/OSAL/src/Os_Internal_Arch_Cfg.c ****    OSEK_ISR_NoHandler, /* No Handler set for ISR CAN1_RX1 (IRQ 21) */
 221:Modules/OS/OSAL/src/Os_Internal_Arch_Cfg.c ****    OSEK_ISR_NoHandler, /* No Handler set for ISR CAN1_SCE (IRQ 22) */
 222:Modules/OS/OSAL/src/Os_Internal_Arch_Cfg.c ****    OSEK_ISR_NoHandler, /* No Handler set for ISR EXTI9_5 (IRQ 23) */
 223:Modules/OS/OSAL/src/Os_Internal_Arch_Cfg.c ****    OSEK_ISR_NoHandler, /* No Handler set for ISR TIM1_BRK_TIM9 (IRQ 24) */
 224:Modules/OS/OSAL/src/Os_Internal_Arch_Cfg.c ****    OSEK_ISR_NoHandler, /* No Handler set for ISR TIM1_UP_TIM10 (IRQ 25) */
 225:Modules/OS/OSAL/src/Os_Internal_Arch_Cfg.c ****    OSEK_ISR_NoHandler, /* No Handler set for ISR TIM1_TRG_COM_TIM11 (IRQ 26) */
 226:Modules/OS/OSAL/src/Os_Internal_Arch_Cfg.c ****    OSEK_ISR_NoHandler, /* No Handler set for ISR TIM1_CC (IRQ 27) */
 227:Modules/OS/OSAL/src/Os_Internal_Arch_Cfg.c ****    OSEK_ISR_NoHandler, /* No Handler set for ISR TIM2 (IRQ 28) */
 228:Modules/OS/OSAL/src/Os_Internal_Arch_Cfg.c ****    OSEK_ISR_NoHandler, /* No Handler set for ISR TIM3 (IRQ 29) */
 229:Modules/OS/OSAL/src/Os_Internal_Arch_Cfg.c ****    OSEK_ISR_NoHandler, /* No Handler set for ISR TIM4 (IRQ 30) */
 230:Modules/OS/OSAL/src/Os_Internal_Arch_Cfg.c ****    OSEK_ISR_NoHandler, /* No Handler set for ISR I2C1 (IRQ 31) */
 231:Modules/OS/OSAL/src/Os_Internal_Arch_Cfg.c ****    OSEK_ISR_NoHandler, /* No Handler set for ISR I2C1 (IRQ 32) */
 232:Modules/OS/OSAL/src/Os_Internal_Arch_Cfg.c ****    OSEK_ISR_NoHandler, /* No Handler set for ISR I2C2 (IRQ 33) */
 233:Modules/OS/OSAL/src/Os_Internal_Arch_Cfg.c ****    OSEK_ISR_NoHandler, /* No Handler set for ISR I2C2 (IRQ 34) */
 234:Modules/OS/OSAL/src/Os_Internal_Arch_Cfg.c ****    OSEK_ISR_NoHandler, /* No Handler set for ISR SPI1 (IRQ 35) */
 235:Modules/OS/OSAL/src/Os_Internal_Arch_Cfg.c ****    OSEK_ISR_NoHandler, /* No Handler set for ISR SPI2 (IRQ 36) */
 236:Modules/OS/OSAL/src/Os_Internal_Arch_Cfg.c ****    OSEK_ISR_NoHandler, /* No Handler set for ISR USART1 (IRQ 37) */
 237:Modules/OS/OSAL/src/Os_Internal_Arch_Cfg.c ****    OSEK_ISR_NoHandler, /* No Handler set for ISR USART2 (IRQ 38) */
 238:Modules/OS/OSAL/src/Os_Internal_Arch_Cfg.c ****    OSEK_ISR_NoHandler, /* No Handler set for ISR USART3 (IRQ 39) */
 239:Modules/OS/OSAL/src/Os_Internal_Arch_Cfg.c ****    OSEK_ISR_NoHandler, /* No Handler set for ISR EXTI15 (IRQ 40) */
 240:Modules/OS/OSAL/src/Os_Internal_Arch_Cfg.c ****    OSEK_ISR_NoHandler, /* No Handler set for ISR RTC_Alarm (IRQ 41) */
 241:Modules/OS/OSAL/src/Os_Internal_Arch_Cfg.c ****    OSEK_ISR_NoHandler, /* No Handler set for ISR OTG_FS_WKUP (IRQ 42) */
 242:Modules/OS/OSAL/src/Os_Internal_Arch_Cfg.c ****    OSEK_ISR_NoHandler, /* No Handler set for ISR TIM8_BRK_TIM12 (IRQ 43) */
 243:Modules/OS/OSAL/src/Os_Internal_Arch_Cfg.c ****    OSEK_ISR_NoHandler, /* No Handler set for ISR TIM8_UP_TIM13 (IRQ 44) */
 244:Modules/OS/OSAL/src/Os_Internal_Arch_Cfg.c ****    OSEK_ISR_NoHandler, /* No Handler set for ISR TIM8_TRG_COM_TIM14 (IRQ 45) */
 245:Modules/OS/OSAL/src/Os_Internal_Arch_Cfg.c ****    OSEK_ISR_NoHandler, /* No Handler set for ISR TIM8_CC (IRQ 46) */
 246:Modules/OS/OSAL/src/Os_Internal_Arch_Cfg.c ****    OSEK_ISR_NoHandler, /* No Handler set for ISR DMA1_Stream7 (IRQ 47) */
 247:Modules/OS/OSAL/src/Os_Internal_Arch_Cfg.c ****    OSEK_ISR_NoHandler, /* No Handler set for ISR FSMC (IRQ 48) */
 248:Modules/OS/OSAL/src/Os_Internal_Arch_Cfg.c ****    OSEK_ISR_NoHandler, /* No Handler set for ISR SDIO (IRQ 49) */
 249:Modules/OS/OSAL/src/Os_Internal_Arch_Cfg.c ****    OSEK_ISR_NoHandler, /* No Handler set for ISR TIM5 (IRQ 50) */
 250:Modules/OS/OSAL/src/Os_Internal_Arch_Cfg.c ****    OSEK_ISR_NoHandler, /* No Handler set for ISR SPI3 (IRQ 51) */
 251:Modules/OS/OSAL/src/Os_Internal_Arch_Cfg.c ****    OSEK_ISR_NoHandler, /* No Handler set for ISR UART4 (IRQ 52) */
 252:Modules/OS/OSAL/src/Os_Internal_Arch_Cfg.c ****    OSEK_ISR_NoHandler, /* No Handler set for ISR UART5 (IRQ 53) */
 253:Modules/OS/OSAL/src/Os_Internal_Arch_Cfg.c ****    OSEK_ISR_NoHandler, /* No Handler set for ISR TIM6_DAC (IRQ 54) */
 254:Modules/OS/OSAL/src/Os_Internal_Arch_Cfg.c ****    OSEK_ISR_NoHandler, /* No Handler set for ISR TIM7 (IRQ 55) */
 255:Modules/OS/OSAL/src/Os_Internal_Arch_Cfg.c ****    OSEK_ISR_NoHandler, /* No Handler set for ISR DMA2_Stream0 (IRQ 56) */
 256:Modules/OS/OSAL/src/Os_Internal_Arch_Cfg.c ****    OSEK_ISR_NoHandler, /* No Handler set for ISR DMA2_Stream1 (IRQ 57) */
 257:Modules/OS/OSAL/src/Os_Internal_Arch_Cfg.c ****    OSEK_ISR_NoHandler, /* No Handler set for ISR DMA2_Stream2 (IRQ 58) */
 258:Modules/OS/OSAL/src/Os_Internal_Arch_Cfg.c ****    OSEK_ISR_NoHandler, /* No Handler set for ISR DMA2_Stream3 (IRQ 59) */
 259:Modules/OS/OSAL/src/Os_Internal_Arch_Cfg.c ****    OSEK_ISR_NoHandler, /* No Handler set for ISR DMA2_Stream4 (IRQ 60) */
 260:Modules/OS/OSAL/src/Os_Internal_Arch_Cfg.c ****    OSEK_ISR_NoHandler, /* No Handler set for ISR ETH (IRQ 61) */
 261:Modules/OS/OSAL/src/Os_Internal_Arch_Cfg.c ****    OSEK_ISR_NoHandler, /* No Handler set for ISR ETH_WKUP (IRQ 62) */
 262:Modules/OS/OSAL/src/Os_Internal_Arch_Cfg.c ****    OSEK_ISR_NoHandler, /* No Handler set for ISR CAN2_TX (IRQ 63) */
 263:Modules/OS/OSAL/src/Os_Internal_Arch_Cfg.c ****    OSEK_ISR_NoHandler, /* No Handler set for ISR CAN2_RX0 (IRQ 64) */
 264:Modules/OS/OSAL/src/Os_Internal_Arch_Cfg.c ****    OSEK_ISR_NoHandler, /* No Handler set for ISR CAN2_RX1 (IRQ 65) */
 265:Modules/OS/OSAL/src/Os_Internal_Arch_Cfg.c ****    OSEK_ISR_NoHandler, /* No Handler set for ISR CAN2_SCE (IRQ 66) */
 266:Modules/OS/OSAL/src/Os_Internal_Arch_Cfg.c ****    OSEK_ISR_NoHandler, /* No Handler set for ISR OTG_FS (IRQ 67) */
 267:Modules/OS/OSAL/src/Os_Internal_Arch_Cfg.c ****    OSEK_ISR_NoHandler, /* No Handler set for ISR DMA2_Stream5 (IRQ 68) */
 268:Modules/OS/OSAL/src/Os_Internal_Arch_Cfg.c ****    OSEK_ISR_NoHandler, /* No Handler set for ISR DMA2_Stream6 (IRQ 69) */
 269:Modules/OS/OSAL/src/Os_Internal_Arch_Cfg.c ****    OSEK_ISR_NoHandler, /* No Handler set for ISR DMA2_Stream7 (IRQ 70) */
 270:Modules/OS/OSAL/src/Os_Internal_Arch_Cfg.c ****    OSEK_ISR_NoHandler, /* No Handler set for ISR USART6 (IRQ 71) */
 271:Modules/OS/OSAL/src/Os_Internal_Arch_Cfg.c ****    OSEK_ISR_NoHandler, /* No Handler set for ISR I2C3_EV (IRQ 72) */
 272:Modules/OS/OSAL/src/Os_Internal_Arch_Cfg.c ****    OSEK_ISR_NoHandler, /* No Handler set for ISR I2C3_ER (IRQ 73) */
 273:Modules/OS/OSAL/src/Os_Internal_Arch_Cfg.c ****    OSEK_ISR_NoHandler, /* No Handler set for ISR OTG_HS_EP1_OUT (IRQ 74) */
 274:Modules/OS/OSAL/src/Os_Internal_Arch_Cfg.c ****    OSEK_ISR_NoHandler, /* No Handler set for ISR OTG_HS_EP1_IN (IRQ 75) */
 275:Modules/OS/OSAL/src/Os_Internal_Arch_Cfg.c ****    OSEK_ISR_NoHandler, /* No Handler set for ISR OTG_HS_WKUP (IRQ 76) */
 276:Modules/OS/OSAL/src/Os_Internal_Arch_Cfg.c ****    OSEK_ISR_NoHandler, /* No Handler set for ISR OTG_HS (IRQ 77) */
 277:Modules/OS/OSAL/src/Os_Internal_Arch_Cfg.c ****    OSEK_ISR_NoHandler, /* No Handler set for ISR DCMI (IRQ 78) */
 278:Modules/OS/OSAL/src/Os_Internal_Arch_Cfg.c ****    OSEK_ISR_NoHandler, /* No Handler set for ISR CRYP (IRQ 79) */
 279:Modules/OS/OSAL/src/Os_Internal_Arch_Cfg.c ****    OSEK_ISR_NoHandler, /* No Handler set for ISR HASH_RNG (IRQ 80) */
 280:Modules/OS/OSAL/src/Os_Internal_Arch_Cfg.c ****    OSEK_ISR_NoHandler, /* No Handler set for ISR FPU (IRQ 81) */
 281:Modules/OS/OSAL/src/Os_Internal_Arch_Cfg.c **** };
 282:Modules/OS/OSAL/src/Os_Internal_Arch_Cfg.c **** 
 283:Modules/OS/OSAL/src/Os_Internal_Arch_Cfg.c **** /** \brief Interrupt enabling and priority setting function */
 284:Modules/OS/OSAL/src/Os_Internal_Arch_Cfg.c **** void Enable_User_ISRs(void)
 285:Modules/OS/OSAL/src/Os_Internal_Arch_Cfg.c **** {
 314              		.loc 1 285 1
 315              		.cfi_startproc
 316              		@ args = 0, pretend = 0, frame = 0
 317              		@ frame_needed = 0, uses_anonymous_args = 0
 318              		@ link register save eliminated.
 286:Modules/OS/OSAL/src/Os_Internal_Arch_Cfg.c **** }
 319              		.loc 1 286 1
 320 0000 00BF     		nop
 321 0002 7047     		bx	lr
 322              		.cfi_endproc
 323              	.LFE7:
 325              		.section	.text.Enable_ISR2_Arch,"ax",%progbits
 326              		.align	1
 327              		.p2align 4,,15
 328              		.global	Enable_ISR2_Arch
 329              		.syntax unified
 330              		.thumb
 331              		.thumb_func
 333              	Enable_ISR2_Arch:
 334              	.LFB8:
 287:Modules/OS/OSAL/src/Os_Internal_Arch_Cfg.c **** 
 288:Modules/OS/OSAL/src/Os_Internal_Arch_Cfg.c **** /** \brief Enable user defined category 2 ISRs */
 289:Modules/OS/OSAL/src/Os_Internal_Arch_Cfg.c **** void Enable_ISR2_Arch(void)
 290:Modules/OS/OSAL/src/Os_Internal_Arch_Cfg.c **** {
 335              		.loc 1 290 1
 336              		.cfi_startproc
 337              		@ args = 0, pretend = 0, frame = 0
 338              		@ frame_needed = 0, uses_anonymous_args = 0
 339              		@ link register save eliminated.
 291:Modules/OS/OSAL/src/Os_Internal_Arch_Cfg.c **** }
 340              		.loc 1 291 1
 341 0000 00BF     		nop
 342 0002 7047     		bx	lr
 343              		.cfi_endproc
 344              	.LFE8:
 346              		.section	.text.Disable_ISR2_Arch,"ax",%progbits
 347              		.align	1
 348              		.p2align 4,,15
 349              		.global	Disable_ISR2_Arch
 350              		.syntax unified
 351              		.thumb
 352              		.thumb_func
 354              	Disable_ISR2_Arch:
 355              	.LFB9:
 292:Modules/OS/OSAL/src/Os_Internal_Arch_Cfg.c **** 
 293:Modules/OS/OSAL/src/Os_Internal_Arch_Cfg.c **** /** \brief Disable user defined category 2 ISRs */
 294:Modules/OS/OSAL/src/Os_Internal_Arch_Cfg.c **** void Disable_ISR2_Arch(void)
 295:Modules/OS/OSAL/src/Os_Internal_Arch_Cfg.c **** {
 356              		.loc 1 295 1
 357              		.cfi_startproc
 358              		@ args = 0, pretend = 0, frame = 0
 359              		@ frame_needed = 0, uses_anonymous_args = 0
 360              		@ link register save eliminated.
 296:Modules/OS/OSAL/src/Os_Internal_Arch_Cfg.c **** }
 361              		.loc 1 296 1
 362 0000 00BF     		nop
 363 0002 7047     		bx	lr
 364              		.cfi_endproc
 365              	.LFE9:
 367              		.text
 368              	.Letext0: