   1              		.cpu cortex-m7
   2              		.arch armv7e-m
   3              		.fpu fpv5-d16
   4              		.eabi_attribute 28, 1
   5              		.eabi_attribute 20, 1
   6              		.eabi_attribute 21, 1
   7              		.eabi_attribute 23, 3
   8              		.eabi_attribute 24, 1
   9              		.eabi_attribute 25, 1
  10              		.eabi_attribute 26, 1
  11              		.eabi_attribute 30, 6
  12              		.eabi_attribute 34, 1
  13              		.eabi_attribute 18, 4
  14              		.file	"Os_Internal_Arch.c"
  15              		.text
  16              	.Ltext0:
  17              		.cfi_sections	.debug_frame
  18              		.global	Osek_NewTaskPtr_Arch
  19              		.section	.bss.Osek_NewTaskPtr_Arch,"aw",%nobits
  20              		.align	2
  23              	Osek_NewTaskPtr_Arch:
  24 0000 00000000 		.space	4
  25              		.global	Osek_OldTaskPtr_Arch
  26              		.section	.bss.Osek_OldTaskPtr_Arch,"aw",%nobits
  27              		.align	2
  30              	Osek_OldTaskPtr_Arch:
  31 0000 00000000 		.space	4
  32              		.global	TerminatingTask
  33              		.section	.data.TerminatingTask,"aw"
  36              	TerminatingTask:
  37 0000 FF       		.byte	-1
  38              		.global	WaitingTask
  39              		.section	.data.WaitingTask,"aw"
  42              	WaitingTask:
  43 0000 FF       		.byte	-1
  44              		.section	.text.ReturnHook_Arch,"ax",%progbits
  45              		.align	1
  46              		.p2align 4,,15
  47              		.global	ReturnHook_Arch
  48              		.syntax unified
  49              		.thumb
  50              		.thumb_func
  52              	ReturnHook_Arch:
  53              	.LFB0:
  54              		.file 1 "Modules/OS/OSAL/src/Os_Internal_Arch.c"
   1:Modules/OS/OSAL/src/Os_Internal_Arch.c **** /* Copyright 2014, Pablo Ridolfi (UTN-FRBA)
   2:Modules/OS/OSAL/src/Os_Internal_Arch.c ****  *
   3:Modules/OS/OSAL/src/Os_Internal_Arch.c ****  * This file is part of CIAA Firmware.
   4:Modules/OS/OSAL/src/Os_Internal_Arch.c ****  *
   5:Modules/OS/OSAL/src/Os_Internal_Arch.c ****  * Redistribution and use in source and binary forms, with or without
   6:Modules/OS/OSAL/src/Os_Internal_Arch.c ****  * modification, are permitted provided that the following conditions are met:
   7:Modules/OS/OSAL/src/Os_Internal_Arch.c ****  *
   8:Modules/OS/OSAL/src/Os_Internal_Arch.c ****  * 1. Redistributions of source code must retain the above copyright notice,
   9:Modules/OS/OSAL/src/Os_Internal_Arch.c ****  *    this list of conditions and the following disclaimer.
  10:Modules/OS/OSAL/src/Os_Internal_Arch.c ****  *
  11:Modules/OS/OSAL/src/Os_Internal_Arch.c ****  * 2. Redistributions in binary form must reproduce the above copyright notice,
  12:Modules/OS/OSAL/src/Os_Internal_Arch.c ****  *    this list of conditions and the following disclaimer in the documentation
  13:Modules/OS/OSAL/src/Os_Internal_Arch.c ****  *    and/or other materials provided with the distribution.
  14:Modules/OS/OSAL/src/Os_Internal_Arch.c ****  *
  15:Modules/OS/OSAL/src/Os_Internal_Arch.c ****  * 3. Neither the name of the copyright holder nor the names of its
  16:Modules/OS/OSAL/src/Os_Internal_Arch.c ****  *    contributors may be used to endorse or promote products derived from this
  17:Modules/OS/OSAL/src/Os_Internal_Arch.c ****  *    software without specific prior written permission.
  18:Modules/OS/OSAL/src/Os_Internal_Arch.c ****  *
  19:Modules/OS/OSAL/src/Os_Internal_Arch.c ****  * THIS SOFTWARE IS PROVIDED BY THE COPYRIGHT HOLDERS AND CONTRIBUTORS "AS IS"
  20:Modules/OS/OSAL/src/Os_Internal_Arch.c ****  * AND ANY EXPRESS OR IMPLIED WARRANTIES, INCLUDING, BUT NOT LIMITED TO, THE
  21:Modules/OS/OSAL/src/Os_Internal_Arch.c ****  * IMPLIED WARRANTIES OF MERCHANTABILITY AND FITNESS FOR A PARTICULAR PURPOSE
  22:Modules/OS/OSAL/src/Os_Internal_Arch.c ****  * ARE DISCLAIMED. IN NO EVENT SHALL THE COPYRIGHT HOLDER OR CONTRIBUTORS BE
  23:Modules/OS/OSAL/src/Os_Internal_Arch.c ****  * LIABLE FOR ANY DIRECT, INDIRECT, INCIDENTAL, SPECIAL, EXEMPLARY, OR
  24:Modules/OS/OSAL/src/Os_Internal_Arch.c ****  * CONSEQUENTIAL DAMAGES (INCLUDING, BUT NOT LIMITED TO, PROCUREMENT OF
  25:Modules/OS/OSAL/src/Os_Internal_Arch.c ****  * SUBSTITUTE GOODS OR SERVICES; LOSS OF USE, DATA, OR PROFITS; OR BUSINESS
  26:Modules/OS/OSAL/src/Os_Internal_Arch.c ****  * INTERRUPTION) HOWEVER CAUSED AND ON ANY THEORY OF LIABILITY, WHETHER IN
  27:Modules/OS/OSAL/src/Os_Internal_Arch.c ****  * CONTRACT, STRICT LIABILITY, OR TORT (INCLUDING NEGLIGENCE OR OTHERWISE)
  28:Modules/OS/OSAL/src/Os_Internal_Arch.c ****  * ARISING IN ANY WAY OUT OF THE USE OF THIS SOFTWARE, EVEN IF ADVISED OF THE
  29:Modules/OS/OSAL/src/Os_Internal_Arch.c ****  * POSSIBILITY OF SUCH DAMAGE.
  30:Modules/OS/OSAL/src/Os_Internal_Arch.c ****  *
  31:Modules/OS/OSAL/src/Os_Internal_Arch.c ****  */
  32:Modules/OS/OSAL/src/Os_Internal_Arch.c **** 
  33:Modules/OS/OSAL/src/Os_Internal_Arch.c **** /** \brief FreeOSEK Os Internal Arch Implementation File
  34:Modules/OS/OSAL/src/Os_Internal_Arch.c ****  **
  35:Modules/OS/OSAL/src/Os_Internal_Arch.c ****  ** \file cortexM4/Os_Internal_Arch.c
  36:Modules/OS/OSAL/src/Os_Internal_Arch.c ****  ** \arch cortexM4
  37:Modules/OS/OSAL/src/Os_Internal_Arch.c ****  **/
  38:Modules/OS/OSAL/src/Os_Internal_Arch.c **** 
  39:Modules/OS/OSAL/src/Os_Internal_Arch.c **** /** \addtogroup FreeOSEK
  40:Modules/OS/OSAL/src/Os_Internal_Arch.c ****  ** @{ */
  41:Modules/OS/OSAL/src/Os_Internal_Arch.c **** /** \addtogroup FreeOSEK_Os
  42:Modules/OS/OSAL/src/Os_Internal_Arch.c ****  ** @{ */
  43:Modules/OS/OSAL/src/Os_Internal_Arch.c **** /** \addtogroup FreeOSEK_Os_Internal
  44:Modules/OS/OSAL/src/Os_Internal_Arch.c ****  ** @{ */
  45:Modules/OS/OSAL/src/Os_Internal_Arch.c **** 
  46:Modules/OS/OSAL/src/Os_Internal_Arch.c **** /*
  47:Modules/OS/OSAL/src/Os_Internal_Arch.c ****  * Initials     Name
  48:Modules/OS/OSAL/src/Os_Internal_Arch.c ****  * ---------------------------
  49:Modules/OS/OSAL/src/Os_Internal_Arch.c ****  * PR		Pablo Ridolfi
  50:Modules/OS/OSAL/src/Os_Internal_Arch.c ****  */
  51:Modules/OS/OSAL/src/Os_Internal_Arch.c **** 
  52:Modules/OS/OSAL/src/Os_Internal_Arch.c **** /*
  53:Modules/OS/OSAL/src/Os_Internal_Arch.c ****  * modification history (new versions first)
  54:Modules/OS/OSAL/src/Os_Internal_Arch.c ****  * -----------------------------------------------------------
  55:Modules/OS/OSAL/src/Os_Internal_Arch.c ****  * 20140608 v0.1.0 PR	First version for Cortex-M processors.
  56:Modules/OS/OSAL/src/Os_Internal_Arch.c ****  */
  57:Modules/OS/OSAL/src/Os_Internal_Arch.c **** 
  58:Modules/OS/OSAL/src/Os_Internal_Arch.c **** /*==================[inclusions]=============================================*/
  59:Modules/OS/OSAL/src/Os_Internal_Arch.c **** #include "Os_Internal.h"
  60:Modules/OS/OSAL/src/Os_Internal_Arch.c **** 
  61:Modules/OS/OSAL/src/Os_Internal_Arch.c **** /*==================[macros and definitions]=================================*/
  62:Modules/OS/OSAL/src/Os_Internal_Arch.c **** 
  63:Modules/OS/OSAL/src/Os_Internal_Arch.c **** /*==================[internal data declaration]==============================*/
  64:Modules/OS/OSAL/src/Os_Internal_Arch.c **** 
  65:Modules/OS/OSAL/src/Os_Internal_Arch.c **** /*==================[internal functions declaration]=========================*/
  66:Modules/OS/OSAL/src/Os_Internal_Arch.c **** void* Osek_NewTaskPtr_Arch;
  67:Modules/OS/OSAL/src/Os_Internal_Arch.c **** 
  68:Modules/OS/OSAL/src/Os_Internal_Arch.c **** void* Osek_OldTaskPtr_Arch;
  69:Modules/OS/OSAL/src/Os_Internal_Arch.c **** 
  70:Modules/OS/OSAL/src/Os_Internal_Arch.c **** /*==================[internal data definition]===============================*/
  71:Modules/OS/OSAL/src/Os_Internal_Arch.c **** 
  72:Modules/OS/OSAL/src/Os_Internal_Arch.c **** TaskType TerminatingTask = INVALID_TASK;
  73:Modules/OS/OSAL/src/Os_Internal_Arch.c **** TaskType WaitingTask = INVALID_TASK;
  74:Modules/OS/OSAL/src/Os_Internal_Arch.c **** 
  75:Modules/OS/OSAL/src/Os_Internal_Arch.c **** /*==================[external data definition]===============================*/
  76:Modules/OS/OSAL/src/Os_Internal_Arch.c **** 
  77:Modules/OS/OSAL/src/Os_Internal_Arch.c **** /*==================[internal functions definition]==========================*/
  78:Modules/OS/OSAL/src/Os_Internal_Arch.c **** 
  79:Modules/OS/OSAL/src/Os_Internal_Arch.c **** /*==================[external functions definition]==========================*/
  80:Modules/OS/OSAL/src/Os_Internal_Arch.c **** 
  81:Modules/OS/OSAL/src/Os_Internal_Arch.c **** void ReturnHook_Arch(void)
  82:Modules/OS/OSAL/src/Os_Internal_Arch.c **** {
  55              		.loc 1 82 1
  56              		.cfi_startproc
  57              		@ args = 0, pretend = 0, frame = 0
  58              		@ frame_needed = 0, uses_anonymous_args = 0
  59              		@ link register save eliminated.
  60              	.L2:
  83:Modules/OS/OSAL/src/Os_Internal_Arch.c **** 	/* Tasks shouldn't return here... */
  84:Modules/OS/OSAL/src/Os_Internal_Arch.c **** 	while(1) osekpause();
  61              		.loc 1 84 11 discriminator 1
  62              		.syntax unified
  63              	@ 84 "Modules/OS/OSAL/src/Os_Internal_Arch.c" 1
  64 0000 30BF     		wfi
  65              	@ 0 "" 2
  66              		.thumb
  67              		.syntax unified
  68 0002 FDE7     		b	.L2
  69              		.cfi_endproc
  70              	.LFE0:
  72              		.section	.text.CheckTerminatingTask_Arch,"ax",%progbits
  73              		.align	1
  74              		.p2align 4,,15
  75              		.global	CheckTerminatingTask_Arch
  76              		.syntax unified
  77              		.thumb
  78              		.thumb_func
  80              	CheckTerminatingTask_Arch:
  81              	.LFB1:
  85:Modules/OS/OSAL/src/Os_Internal_Arch.c **** 
  86:Modules/OS/OSAL/src/Os_Internal_Arch.c **** }
  87:Modules/OS/OSAL/src/Os_Internal_Arch.c **** 
  88:Modules/OS/OSAL/src/Os_Internal_Arch.c **** void CheckTerminatingTask_Arch(void)
  89:Modules/OS/OSAL/src/Os_Internal_Arch.c **** {
  82              		.loc 1 89 1
  83              		.cfi_startproc
  84              		@ args = 0, pretend = 0, frame = 0
  85              		@ frame_needed = 0, uses_anonymous_args = 0
  86 0000 08B5     		push	{r3, lr}
  87              		.cfi_def_cfa_offset 8
  88              		.cfi_offset 3, -8
  89              		.cfi_offset 14, -4
  90:Modules/OS/OSAL/src/Os_Internal_Arch.c **** 	if(TerminatingTask != INVALID_TASK)
  90              		.loc 1 90 21
  91 0002 074B     		ldr	r3, .L5
  92 0004 1B78     		ldrb	r3, [r3]	@ zero_extendqisi2
  93              		.loc 1 90 4
  94 0006 FF2B     		cmp	r3, #255
  95 0008 04D0     		beq	.L4
  91:Modules/OS/OSAL/src/Os_Internal_Arch.c **** 	{
  92:Modules/OS/OSAL/src/Os_Internal_Arch.c **** //		int i;
  93:Modules/OS/OSAL/src/Os_Internal_Arch.c **** //		for(i=0; i<TasksConst[TerminatingTask].StackSize/4; i++)
  94:Modules/OS/OSAL/src/Os_Internal_Arch.c **** //			((uint32 *)TasksConst[TerminatingTask].StackPtr)[i] = 0;
  95:Modules/OS/OSAL/src/Os_Internal_Arch.c **** 		InitStack_Arch(TerminatingTask);
  96              		.loc 1 95 3
  97 000a 054B     		ldr	r3, .L5
  98 000c 1B78     		ldrb	r3, [r3]	@ zero_extendqisi2
  99 000e 1846     		mov	r0, r3
 100 0010 FFF7FEFF 		bl	InitStack_Arch
 101              	.L4:
  96:Modules/OS/OSAL/src/Os_Internal_Arch.c **** 	}
  97:Modules/OS/OSAL/src/Os_Internal_Arch.c **** 	TerminatingTask = INVALID_TASK;
 102              		.loc 1 97 18
 103 0014 024B     		ldr	r3, .L5
 104 0016 FF22     		movs	r2, #255
 105 0018 1A70     		strb	r2, [r3]
  98:Modules/OS/OSAL/src/Os_Internal_Arch.c **** }
 106              		.loc 1 98 1
 107 001a 00BF     		nop
 108 001c 08BD     		pop	{r3, pc}
 109              	.L6:
 110 001e 00BF     		.align	2
 111              	.L5:
 112 0020 00000000 		.word	TerminatingTask
 113              		.cfi_endproc
 114              	.LFE1:
 116              		.section	.text.InitStack_Arch,"ax",%progbits
 117              		.align	1
 118              		.p2align 4,,15
 119              		.global	InitStack_Arch
 120              		.syntax unified
 121              		.thumb
 122              		.thumb_func
 124              	InitStack_Arch:
 125              	.LFB2:
  99:Modules/OS/OSAL/src/Os_Internal_Arch.c **** 
 100:Modules/OS/OSAL/src/Os_Internal_Arch.c **** /* Task Stack Initialization */
 101:Modules/OS/OSAL/src/Os_Internal_Arch.c **** void InitStack_Arch(uint8 TaskID)
 102:Modules/OS/OSAL/src/Os_Internal_Arch.c **** {
 126              		.loc 1 102 1
 127              		.cfi_startproc
 128              		@ args = 0, pretend = 0, frame = 16
 129              		@ frame_needed = 0, uses_anonymous_args = 0
 130              		@ link register save eliminated.
 131 0000 84B0     		sub	sp, sp, #16
 132              		.cfi_def_cfa_offset 16
 133 0002 0346     		mov	r3, r0
 134 0004 8DF80730 		strb	r3, [sp, #7]
 103:Modules/OS/OSAL/src/Os_Internal_Arch.c **** 	
 104:Modules/OS/OSAL/src/Os_Internal_Arch.c **** 	// 堆栈指针
 105:Modules/OS/OSAL/src/Os_Internal_Arch.c **** 	uint32 * taskStack = (uint32 *)TasksConst[TaskID].StackPtr;
 135              		.loc 1 105 51
 136 0008 9DF80720 		ldrb	r2, [sp, #7]	@ zero_extendqisi2
 137              		.loc 1 105 11
 138 000c 2A49     		ldr	r1, .L8
 139 000e 1346     		mov	r3, r2
 140 0010 DB00     		lsls	r3, r3, #3
 141 0012 9B1A     		subs	r3, r3, r2
 142 0014 9B00     		lsls	r3, r3, #2
 143 0016 0B44     		add	r3, r3, r1
 144 0018 0833     		adds	r3, r3, #8
 145 001a 1B68     		ldr	r3, [r3]
 146 001c 0393     		str	r3, [sp, #12]
 106:Modules/OS/OSAL/src/Os_Internal_Arch.c **** 	// 堆栈字大小   字节/4
 107:Modules/OS/OSAL/src/Os_Internal_Arch.c **** 	int taskStackSizeWords = TasksConst[TaskID].StackSize/4;
 147              		.loc 1 107 45
 148 001e 9DF80720 		ldrb	r2, [sp, #7]	@ zero_extendqisi2
 149 0022 2549     		ldr	r1, .L8
 150 0024 1346     		mov	r3, r2
 151 0026 DB00     		lsls	r3, r3, #3
 152 0028 9B1A     		subs	r3, r3, r2
 153 002a 9B00     		lsls	r3, r3, #2
 154 002c 0B44     		add	r3, r3, r1
 155 002e 0C33     		adds	r3, r3, #12
 156 0030 1B88     		ldrh	r3, [r3]
 157              		.loc 1 107 55
 158 0032 9B08     		lsrs	r3, r3, #2
 159 0034 9BB2     		uxth	r3, r3
 160              		.loc 1 107 6
 161 0036 0293     		str	r3, [sp, #8]
 108:Modules/OS/OSAL/src/Os_Internal_Arch.c **** 	// 寄存器
 109:Modules/OS/OSAL/src/Os_Internal_Arch.c **** 	taskStack[taskStackSizeWords-1] = 1<<24; /* xPSR.T = 1 */
 162              		.loc 1 109 11
 163 0038 029A     		ldr	r2, [sp, #8]
 164 003a 6FF04043 		mvn	r3, #-1073741824
 165 003e 1344     		add	r3, r3, r2
 166 0040 9B00     		lsls	r3, r3, #2
 167 0042 039A     		ldr	r2, [sp, #12]
 168 0044 1344     		add	r3, r3, r2
 169              		.loc 1 109 34
 170 0046 4FF08072 		mov	r2, #16777216
 171 004a 1A60     		str	r2, [r3]
 110:Modules/OS/OSAL/src/Os_Internal_Arch.c **** 	taskStack[taskStackSizeWords-2] = (uint32) TasksConst[TaskID].EntryPoint; /*PC*/
 172              		.loc 1 110 63
 173 004c 9DF80720 		ldrb	r2, [sp, #7]	@ zero_extendqisi2
 174 0050 1949     		ldr	r1, .L8
 175 0052 1346     		mov	r3, r2
 176 0054 DB00     		lsls	r3, r3, #3
 177 0056 9B1A     		subs	r3, r3, r2
 178 0058 9B00     		lsls	r3, r3, #2
 179 005a 0B44     		add	r3, r3, r1
 180 005c 1968     		ldr	r1, [r3]
 181              		.loc 1 110 11
 182 005e 029A     		ldr	r2, [sp, #8]
 183 0060 164B     		ldr	r3, .L8+4
 184 0062 1344     		add	r3, r3, r2
 185 0064 9B00     		lsls	r3, r3, #2
 186 0066 039A     		ldr	r2, [sp, #12]
 187 0068 1344     		add	r3, r3, r2
 188              		.loc 1 110 36
 189 006a 0A46     		mov	r2, r1
 190              		.loc 1 110 34
 191 006c 1A60     		str	r2, [r3]
 111:Modules/OS/OSAL/src/Os_Internal_Arch.c **** 	taskStack[taskStackSizeWords-3] = (uint32) ReturnHook_Arch; /* stacked LR */
 192              		.loc 1 111 11
 193 006e 029A     		ldr	r2, [sp, #8]
 194 0070 134B     		ldr	r3, .L8+8
 195 0072 1344     		add	r3, r3, r2
 196 0074 9B00     		lsls	r3, r3, #2
 197 0076 039A     		ldr	r2, [sp, #12]
 198 0078 1344     		add	r3, r3, r2
 199              		.loc 1 111 36
 200 007a 124A     		ldr	r2, .L8+12
 201              		.loc 1 111 34
 202 007c 1A60     		str	r2, [r3]
 112:Modules/OS/OSAL/src/Os_Internal_Arch.c **** 	taskStack[taskStackSizeWords-9] = 0xFFFFFFFD; /* current LR, return using PSP */
 203              		.loc 1 112 11
 204 007e 029A     		ldr	r2, [sp, #8]
 205 0080 114B     		ldr	r3, .L8+16
 206 0082 1344     		add	r3, r3, r2
 207 0084 9B00     		lsls	r3, r3, #2
 208 0086 039A     		ldr	r2, [sp, #12]
 209 0088 1344     		add	r3, r3, r2
 210              		.loc 1 112 34
 211 008a 6FF00202 		mvn	r2, #2
 212 008e 1A60     		str	r2, [r3]
 113:Modules/OS/OSAL/src/Os_Internal_Arch.c **** 	// 上下文地址
 114:Modules/OS/OSAL/src/Os_Internal_Arch.c **** 	*(TasksConst[TaskID].TaskContext) = &(taskStack[taskStackSizeWords - 17]);
 213              		.loc 1 114 49
 214 0090 029A     		ldr	r2, [sp, #8]
 215 0092 0E4B     		ldr	r3, .L8+20
 216 0094 1344     		add	r3, r3, r2
 217 0096 9900     		lsls	r1, r3, #2
 218              		.loc 1 114 22
 219 0098 9DF80720 		ldrb	r2, [sp, #7]	@ zero_extendqisi2
 220 009c 0648     		ldr	r0, .L8
 221 009e 1346     		mov	r3, r2
 222 00a0 DB00     		lsls	r3, r3, #3
 223 00a2 9B1A     		subs	r3, r3, r2
 224 00a4 9B00     		lsls	r3, r3, #2
 225 00a6 0344     		add	r3, r3, r0
 226 00a8 0433     		adds	r3, r3, #4
 227 00aa 1B68     		ldr	r3, [r3]
 228              		.loc 1 114 38
 229 00ac 039A     		ldr	r2, [sp, #12]
 230 00ae 0A44     		add	r2, r2, r1
 231              		.loc 1 114 36
 232 00b0 1A60     		str	r2, [r3]
 115:Modules/OS/OSAL/src/Os_Internal_Arch.c **** 
 116:Modules/OS/OSAL/src/Os_Internal_Arch.c **** }
 233              		.loc 1 116 1
 234 00b2 00BF     		nop
 235 00b4 04B0     		add	sp, sp, #16
 236              		.cfi_def_cfa_offset 0
 237              		@ sp needed
 238 00b6 7047     		bx	lr
 239              	.L9:
 240              		.align	2
 241              	.L8:
 242 00b8 00000000 		.word	TasksConst
 243 00bc FEFFFF3F 		.word	1073741822
 244 00c0 FDFFFF3F 		.word	1073741821
 245 00c4 00000000 		.word	ReturnHook_Arch
 246 00c8 F7FFFF3F 		.word	1073741815
 247 00cc EFFFFF3F 		.word	1073741807
 248              		.cfi_endproc
 249              	.LFE2:
 251              		.section	.text.SysTick_Handler,"ax",%progbits
 252              		.align	1
 253              		.p2align 4,,15
 254              		.global	SysTick_Handler
 255              		.syntax unified
 256              		.thumb
 257              		.thumb_func
 259              	SysTick_Handler:
 260              	.LFB3:
 117:Modules/OS/OSAL/src/Os_Internal_Arch.c **** 
 118:Modules/OS/OSAL/src/Os_Internal_Arch.c **** /* Periodic Interrupt Timer, included in all Cortex-M4 processors */
 119:Modules/OS/OSAL/src/Os_Internal_Arch.c **** void SysTick_Handler(void)
 120:Modules/OS/OSAL/src/Os_Internal_Arch.c **** {
 261              		.loc 1 120 1
 262              		.cfi_startproc
 263              		@ args = 0, pretend = 0, frame = 8
 264              		@ frame_needed = 0, uses_anonymous_args = 0
 265 0000 00B5     		push	{lr}
 266              		.cfi_def_cfa_offset 4
 267              		.cfi_offset 14, -4
 268 0002 83B0     		sub	sp, sp, #12
 269              		.cfi_def_cfa_offset 16
 121:Modules/OS/OSAL/src/Os_Internal_Arch.c **** 	/* store the calling context in a variable */
 122:Modules/OS/OSAL/src/Os_Internal_Arch.c **** 	ContextType actualContext = GetCallingContext();
 270              		.loc 1 122 14
 271 0004 244B     		ldr	r3, .L14
 272 0006 1B78     		ldrb	r3, [r3]
 273 0008 8DF80730 		strb	r3, [sp, #7]
 123:Modules/OS/OSAL/src/Os_Internal_Arch.c **** 	/* set isr 2 context */
 124:Modules/OS/OSAL/src/Os_Internal_Arch.c **** 	SetActualContext(CONTEXT_ISR2);
 274              		.loc 1 124 2
 275 000c 224B     		ldr	r3, .L14
 276 000e 0322     		movs	r2, #3
 277 0010 1A70     		strb	r2, [r3]
 125:Modules/OS/OSAL/src/Os_Internal_Arch.c **** 
 126:Modules/OS/OSAL/src/Os_Internal_Arch.c **** #if (ALARMS_COUNT != 0)
 127:Modules/OS/OSAL/src/Os_Internal_Arch.c **** 	/* counter increment */
 128:Modules/OS/OSAL/src/Os_Internal_Arch.c **** 	static CounterIncrementType CounterIncrement = 1;
 129:Modules/OS/OSAL/src/Os_Internal_Arch.c **** //    (void)CounterIncrement; /* TODO remove me */
 130:Modules/OS/OSAL/src/Os_Internal_Arch.c **** 
 131:Modules/OS/OSAL/src/Os_Internal_Arch.c **** 	/* increment the disable interrupt conter to avoid enable the interrupts */
 132:Modules/OS/OSAL/src/Os_Internal_Arch.c **** 	IntSecure_Start();
 278              		.loc 1 132 2
 279 0012 224B     		ldr	r3, .L14+4
 280 0014 93F90030 		ldrsb	r3, [r3]
 281 0018 DBB2     		uxtb	r3, r3
 282 001a 0133     		adds	r3, r3, #1
 283 001c DBB2     		uxtb	r3, r3
 284 001e 5AB2     		sxtb	r2, r3
 285 0020 1E4B     		ldr	r3, .L14+4
 286 0022 1A70     		strb	r2, [r3]
 287              		.syntax unified
 288              	@ 132 "Modules/OS/OSAL/src/Os_Internal_Arch.c" 1
 289 0024 72B6     		cpsid i
 290              	@ 0 "" 2
 133:Modules/OS/OSAL/src/Os_Internal_Arch.c **** 
 134:Modules/OS/OSAL/src/Os_Internal_Arch.c ****     osal_inc_tick();
 291              		.loc 1 134 5
 292              		.thumb
 293              		.syntax unified
 294 0026 FFF7FEFF 		bl	osal_inc_tick
 135:Modules/OS/OSAL/src/Os_Internal_Arch.c **** 
 136:Modules/OS/OSAL/src/Os_Internal_Arch.c **** 	/* call counter interrupt handler */
 137:Modules/OS/OSAL/src/Os_Internal_Arch.c **** 	CounterIncrement = IncrementCounter(0, 1 /* CounterIncrement */); /* TODO FIXME */
 295              		.loc 1 137 21
 296 002a 0121     		movs	r1, #1
 297 002c 0020     		movs	r0, #0
 298 002e FFF7FEFF 		bl	IncrementCounter
 299 0032 0346     		mov	r3, r0
 300              		.loc 1 137 19
 301 0034 1A4A     		ldr	r2, .L14+8
 302 0036 1360     		str	r3, [r2]
 138:Modules/OS/OSAL/src/Os_Internal_Arch.c **** 
 139:Modules/OS/OSAL/src/Os_Internal_Arch.c **** 	/* set the disable interrupt counter back */
 140:Modules/OS/OSAL/src/Os_Internal_Arch.c **** 	IntSecure_End();
 303              		.loc 1 140 2
 304 0038 184B     		ldr	r3, .L14+4
 305 003a 93F90030 		ldrsb	r3, [r3]
 306 003e DBB2     		uxtb	r3, r3
 307 0040 013B     		subs	r3, r3, #1
 308 0042 DBB2     		uxtb	r3, r3
 309 0044 5AB2     		sxtb	r2, r3
 310 0046 154B     		ldr	r3, .L14+4
 311 0048 1A70     		strb	r2, [r3]
 312 004a 144B     		ldr	r3, .L14+4
 313 004c 93F90030 		ldrsb	r3, [r3]
 314 0050 002B     		cmp	r3, #0
 315 0052 03DC     		bgt	.L11
 316              		.loc 1 140 2 is_stmt 0 discriminator 1
 317 0054 114B     		ldr	r3, .L14+4
 318 0056 0022     		movs	r2, #0
 319 0058 1A70     		strb	r2, [r3]
 320              		.syntax unified
 321              	@ 140 "Modules/OS/OSAL/src/Os_Internal_Arch.c" 1
 322 005a 62B6     		cpsie i
 323              	@ 0 "" 2
 324              		.thumb
 325              		.syntax unified
 326              	.L11:
 141:Modules/OS/OSAL/src/Os_Internal_Arch.c **** 
 142:Modules/OS/OSAL/src/Os_Internal_Arch.c **** #endif /* #if (ALARMS_COUNT != 0) */
 143:Modules/OS/OSAL/src/Os_Internal_Arch.c **** 
 144:Modules/OS/OSAL/src/Os_Internal_Arch.c **** 	/* reset context */
 145:Modules/OS/OSAL/src/Os_Internal_Arch.c **** 	SetActualContext(actualContext);
 327              		.loc 1 145 2 is_stmt 1
 328 005c 0E4A     		ldr	r2, .L14
 329 005e 9DF80730 		ldrb	r3, [sp, #7]
 330 0062 1370     		strb	r3, [r2]
 146:Modules/OS/OSAL/src/Os_Internal_Arch.c **** 
 147:Modules/OS/OSAL/src/Os_Internal_Arch.c **** #if (NON_PREEMPTIVE == OSEK_DISABLE)
 148:Modules/OS/OSAL/src/Os_Internal_Arch.c ****    /* check if the actual task is preemptive */
 149:Modules/OS/OSAL/src/Os_Internal_Arch.c ****    if ( ( CONTEXT_TASK == actualContext ) &&
 331              		.loc 1 149 7
 332 0064 9DF80730 		ldrb	r3, [sp, #7]	@ zero_extendqisi2
 333 0068 012B     		cmp	r3, #1
 334 006a 11D1     		bne	.L13
 150:Modules/OS/OSAL/src/Os_Internal_Arch.c ****         ( TasksConst[GetRunningTask()].ConstFlags.Preemtive ) )
 335              		.loc 1 150 50 discriminator 1
 336 006c 0D4B     		ldr	r3, .L14+12
 337 006e 1B78     		ldrb	r3, [r3]	@ zero_extendqisi2
 338 0070 1946     		mov	r1, r3
 339 0072 0D4A     		ldr	r2, .L14+16
 340 0074 0B46     		mov	r3, r1
 341 0076 DB00     		lsls	r3, r3, #3
 342 0078 5B1A     		subs	r3, r3, r1
 343 007a 9B00     		lsls	r3, r3, #2
 344 007c 1344     		add	r3, r3, r2
 345 007e 1033     		adds	r3, r3, #16
 346 0080 1B78     		ldrb	r3, [r3]
 347 0082 C3F34003 		ubfx	r3, r3, #1, #1
 348 0086 DBB2     		uxtb	r3, r3
 149:Modules/OS/OSAL/src/Os_Internal_Arch.c ****         ( TasksConst[GetRunningTask()].ConstFlags.Preemtive ) )
 349              		.loc 1 149 43 discriminator 1
 350 0088 002B     		cmp	r3, #0
 351 008a 01D0     		beq	.L13
 151:Modules/OS/OSAL/src/Os_Internal_Arch.c ****    {
 152:Modules/OS/OSAL/src/Os_Internal_Arch.c ****       /* this shall force a call to the scheduler */
 153:Modules/OS/OSAL/src/Os_Internal_Arch.c ****       PostIsr2_Arch(isr);
 352              		.loc 1 153 7
 353 008c FFF7FEFF 		bl	Schedule
 354              	.L13:
 154:Modules/OS/OSAL/src/Os_Internal_Arch.c ****    }
 155:Modules/OS/OSAL/src/Os_Internal_Arch.c **** #endif /* #if (NON_PREEMPTIVE == OSEK_ENABLE) */
 156:Modules/OS/OSAL/src/Os_Internal_Arch.c **** }
 355              		.loc 1 156 1
 356 0090 00BF     		nop
 357 0092 03B0     		add	sp, sp, #12
 358              		.cfi_def_cfa_offset 4
 359              		@ sp needed
 360 0094 5DF804FB 		ldr	pc, [sp], #4
 361              	.L15:
 362              		.align	2
 363              	.L14:
 364 0098 00000000 		.word	ActualContext
 365 009c 00000000 		.word	SuspendAllInterrupts_Counter
 366 00a0 00000000 		.word	CounterIncrement.0
 367 00a4 00000000 		.word	RunningTask
 368 00a8 00000000 		.word	TasksConst
 369              		.cfi_endproc
 370              	.LFE3:
 372              		.section	.data.CounterIncrement.0,"aw"
 373              		.align	2
 376              	CounterIncrement.0:
 377 0000 01000000 		.word	1
 378              		.text
 379              	.Letext0:
 380              		.file 2 "d:\\project\\9388\\e1\\2023_7_27\\sr5e1_l9388_freeosek\\tools\\toolchain\\arm\\mingw64_nt
 381              		.file 3 "d:\\project\\9388\\e1\\2023_7_27\\sr5e1_l9388_freeosek\\tools\\toolchain\\arm\\mingw64_nt
 382              		.file 4 "d:\\project\\9388\\e1\\2023_7_27\\sr5e1_l9388_freeosek\\tools\\toolchain\\arm\\mingw64_nt
 383              		.file 5 "d:\\project\\9388\\e1\\2023_7_27\\sr5e1_l9388_freeosek\\modules\\os\\osal\\include\\Types
 384              		.file 6 "d:\\project\\9388\\e1\\2023_7_27\\sr5e1_l9388_freeosek\\modules\\os\\osal\\include\\Os_In
 385              		.file 7 "d:\\project\\9388\\e1\\2023_7_27\\sr5e1_l9388_freeosek\\modules\\os\\osal\\include\\os.h"
 386              		.file 8 "d:\\project\\9388\\e1\\2023_7_27\\sr5e1_l9388_freeosek\\modules\\os\\osal\\include\\Os_In
 387              		.file 9 "d:\\project\\9388\\e1\\2023_7_27\\sr5e1_l9388_freeosek\\modules\\os\\osal\\include\\Os_In
 388              		.file 10 "d:\\project\\9388\\e1\\2023_7_27\\sr5e1_l9388_freeosek\\modules\\os\\osal\\include\\os_i