   1              		.cpu cortex-m7
   2              		.arch armv7e-m
   3              		.fpu fpv5-d16
   4              		.eabi_attribute 28, 1
   5              		.eabi_attribute 20, 1
   6              		.eabi_attribute 21, 1
   7              		.eabi_attribute 23, 3
   8              		.eabi_attribute 24, 1
   9              		.eabi_attribute 25, 1
  10              		.eabi_attribute 26, 1
  11              		.eabi_attribute 30, 6
  12              		.eabi_attribute 34, 1
  13              		.eabi_attribute 18, 4
  14              		.file	"test_env.c"
  15              		.text
  16              	.Ltext0:
  17              		.cfi_sections	.debug_frame
  18              		.section	.text.gpio_set_pin_moder,"ax",%progbits
  19              		.align	1
  20              		.p2align 4,,15
  21              		.syntax unified
  22              		.thumb
  23              		.thumb_func
  25              	gpio_set_pin_moder:
  26              	.LFB396:
  27              		.file 1 "d:\\project\\9388\\e1\\2023_7_27\\sr5e1_l9388_freeosek\\modules\\drivers\\system\\gpio\\i
   1:d:\project\9388\e1\2023_7_27\sr5e1_l9388_freeosek\modules\drivers\system\gpio\include\gpio.h **** /****************************************************************************
   2:d:\project\9388\e1\2023_7_27\sr5e1_l9388_freeosek\modules\drivers\system\gpio\include\gpio.h ****  *
   3:d:\project\9388\e1\2023_7_27\sr5e1_l9388_freeosek\modules\drivers\system\gpio\include\gpio.h ****  * Copyright (c) 2022 STMicroelectronics - All Rights Reserved
   4:d:\project\9388\e1\2023_7_27\sr5e1_l9388_freeosek\modules\drivers\system\gpio\include\gpio.h ****  *
   5:d:\project\9388\e1\2023_7_27\sr5e1_l9388_freeosek\modules\drivers\system\gpio\include\gpio.h ****  * License terms: STMicroelectronics Proprietary in accordance with licensing
   6:d:\project\9388\e1\2023_7_27\sr5e1_l9388_freeosek\modules\drivers\system\gpio\include\gpio.h ****  * terms SLA0098 at www.st.com.
   7:d:\project\9388\e1\2023_7_27\sr5e1_l9388_freeosek\modules\drivers\system\gpio\include\gpio.h ****  *
   8:d:\project\9388\e1\2023_7_27\sr5e1_l9388_freeosek\modules\drivers\system\gpio\include\gpio.h ****  * THIS SOFTWARE IS DISTRIBUTED "AS IS," AND ALL WARRANTIES ARE DISCLAIMED,
   9:d:\project\9388\e1\2023_7_27\sr5e1_l9388_freeosek\modules\drivers\system\gpio\include\gpio.h ****  * INCLUDING MERCHANTABILITY AND FITNESS FOR A PARTICULAR PURPOSE.
  10:d:\project\9388\e1\2023_7_27\sr5e1_l9388_freeosek\modules\drivers\system\gpio\include\gpio.h ****  *
  11:d:\project\9388\e1\2023_7_27\sr5e1_l9388_freeosek\modules\drivers\system\gpio\include\gpio.h ****  *****************************************************************************/
  12:d:\project\9388\e1\2023_7_27\sr5e1_l9388_freeosek\modules\drivers\system\gpio\include\gpio.h **** /**
  13:d:\project\9388\e1\2023_7_27\sr5e1_l9388_freeosek\modules\drivers\system\gpio\include\gpio.h ****  * @file    gpio.h
  14:d:\project\9388\e1\2023_7_27\sr5e1_l9388_freeosek\modules\drivers\system\gpio\include\gpio.h ****  * @brief   GPIO driver header file.
  15:d:\project\9388\e1\2023_7_27\sr5e1_l9388_freeosek\modules\drivers\system\gpio\include\gpio.h ****  *
  16:d:\project\9388\e1\2023_7_27\sr5e1_l9388_freeosek\modules\drivers\system\gpio\include\gpio.h ****  * @addtogroup DRIVERS
  17:d:\project\9388\e1\2023_7_27\sr5e1_l9388_freeosek\modules\drivers\system\gpio\include\gpio.h ****  * @addtogroup SYSTEM
  18:d:\project\9388\e1\2023_7_27\sr5e1_l9388_freeosek\modules\drivers\system\gpio\include\gpio.h ****  * @ingroup DRIVERS
  19:d:\project\9388\e1\2023_7_27\sr5e1_l9388_freeosek\modules\drivers\system\gpio\include\gpio.h ****  * @addtogroup GPIO
  20:d:\project\9388\e1\2023_7_27\sr5e1_l9388_freeosek\modules\drivers\system\gpio\include\gpio.h ****  * @ingroup SYSTEM
  21:d:\project\9388\e1\2023_7_27\sr5e1_l9388_freeosek\modules\drivers\system\gpio\include\gpio.h ****  * @{
  22:d:\project\9388\e1\2023_7_27\sr5e1_l9388_freeosek\modules\drivers\system\gpio\include\gpio.h ****  */
  23:d:\project\9388\e1\2023_7_27\sr5e1_l9388_freeosek\modules\drivers\system\gpio\include\gpio.h **** 
  24:d:\project\9388\e1\2023_7_27\sr5e1_l9388_freeosek\modules\drivers\system\gpio\include\gpio.h **** #ifndef _GPIO_H_
  25:d:\project\9388\e1\2023_7_27\sr5e1_l9388_freeosek\modules\drivers\system\gpio\include\gpio.h **** #define _GPIO_H_
  26:d:\project\9388\e1\2023_7_27\sr5e1_l9388_freeosek\modules\drivers\system\gpio\include\gpio.h **** 
  27:d:\project\9388\e1\2023_7_27\sr5e1_l9388_freeosek\modules\drivers\system\gpio\include\gpio.h **** #include <platform.h>
  28:d:\project\9388\e1\2023_7_27\sr5e1_l9388_freeosek\modules\drivers\system\gpio\include\gpio.h **** #include <typedefs.h>
  29:d:\project\9388\e1\2023_7_27\sr5e1_l9388_freeosek\modules\drivers\system\gpio\include\gpio.h **** 
  30:d:\project\9388\e1\2023_7_27\sr5e1_l9388_freeosek\modules\drivers\system\gpio\include\gpio.h **** /*===========================================================================*/
  31:d:\project\9388\e1\2023_7_27\sr5e1_l9388_freeosek\modules\drivers\system\gpio\include\gpio.h **** /* Module constants.                                                         */
  32:d:\project\9388\e1\2023_7_27\sr5e1_l9388_freeosek\modules\drivers\system\gpio\include\gpio.h **** /*===========================================================================*/
  33:d:\project\9388\e1\2023_7_27\sr5e1_l9388_freeosek\modules\drivers\system\gpio\include\gpio.h **** 
  34:d:\project\9388\e1\2023_7_27\sr5e1_l9388_freeosek\modules\drivers\system\gpio\include\gpio.h **** /**
  35:d:\project\9388\e1\2023_7_27\sr5e1_l9388_freeosek\modules\drivers\system\gpio\include\gpio.h ****  * @name    GPIO Port identifiers
  36:d:\project\9388\e1\2023_7_27\sr5e1_l9388_freeosek\modules\drivers\system\gpio\include\gpio.h ****  * @{
  37:d:\project\9388\e1\2023_7_27\sr5e1_l9388_freeosek\modules\drivers\system\gpio\include\gpio.h ****  */
  38:d:\project\9388\e1\2023_7_27\sr5e1_l9388_freeosek\modules\drivers\system\gpio\include\gpio.h **** #define GPIO_PORT_A                    0U   /**< GPIO Port A */
  39:d:\project\9388\e1\2023_7_27\sr5e1_l9388_freeosek\modules\drivers\system\gpio\include\gpio.h **** #define GPIO_PORT_B                    1U   /**< GPIO Port B */
  40:d:\project\9388\e1\2023_7_27\sr5e1_l9388_freeosek\modules\drivers\system\gpio\include\gpio.h **** #define GPIO_PORT_C                    2U   /**< GPIO Port C */
  41:d:\project\9388\e1\2023_7_27\sr5e1_l9388_freeosek\modules\drivers\system\gpio\include\gpio.h **** #define GPIO_PORT_D                    3U   /**< GPIO Port D */
  42:d:\project\9388\e1\2023_7_27\sr5e1_l9388_freeosek\modules\drivers\system\gpio\include\gpio.h **** #define GPIO_PORT_E                    4U   /**< GPIO Port E */
  43:d:\project\9388\e1\2023_7_27\sr5e1_l9388_freeosek\modules\drivers\system\gpio\include\gpio.h **** #define GPIO_PORT_F                    5U   /**< GPIO Port F */
  44:d:\project\9388\e1\2023_7_27\sr5e1_l9388_freeosek\modules\drivers\system\gpio\include\gpio.h **** #define GPIO_PORT_G                    6U   /**< GPIO Port G */
  45:d:\project\9388\e1\2023_7_27\sr5e1_l9388_freeosek\modules\drivers\system\gpio\include\gpio.h **** #define GPIO_PORT_H                    7U   /**< GPIO Port G */
  46:d:\project\9388\e1\2023_7_27\sr5e1_l9388_freeosek\modules\drivers\system\gpio\include\gpio.h **** #define GPIO_PORT_I                    8U   /**< GPIO Port I */
  47:d:\project\9388\e1\2023_7_27\sr5e1_l9388_freeosek\modules\drivers\system\gpio\include\gpio.h **** #define GPIO_PORT_J                    9U   /**< GPIO Port J */
  48:d:\project\9388\e1\2023_7_27\sr5e1_l9388_freeosek\modules\drivers\system\gpio\include\gpio.h **** #define GPIO_PORT_K                    10U  /**< GPIO Port K */
  49:d:\project\9388\e1\2023_7_27\sr5e1_l9388_freeosek\modules\drivers\system\gpio\include\gpio.h **** #define GPIO_PORT_L                    11U  /**< GPIO Port L */
  50:d:\project\9388\e1\2023_7_27\sr5e1_l9388_freeosek\modules\drivers\system\gpio\include\gpio.h **** #define GPIO_PORT_M                    12U  /**< GPIO Port M */
  51:d:\project\9388\e1\2023_7_27\sr5e1_l9388_freeosek\modules\drivers\system\gpio\include\gpio.h **** #define GPIO_PORT_N                    13U  /**< GPIO Port N */
  52:d:\project\9388\e1\2023_7_27\sr5e1_l9388_freeosek\modules\drivers\system\gpio\include\gpio.h **** #define GPIO_PORT_Q                    14U  /**< GPIO Port Q */
  53:d:\project\9388\e1\2023_7_27\sr5e1_l9388_freeosek\modules\drivers\system\gpio\include\gpio.h **** #define GPIO_PORT_R                    15U  /**< GPIO Port R */
  54:d:\project\9388\e1\2023_7_27\sr5e1_l9388_freeosek\modules\drivers\system\gpio\include\gpio.h **** #define GPIO_PORT_S                    16U  /**< GPIO Port S */
  55:d:\project\9388\e1\2023_7_27\sr5e1_l9388_freeosek\modules\drivers\system\gpio\include\gpio.h **** #define GPIO_PORT_T                    17U  /**< GPIO Port T */
  56:d:\project\9388\e1\2023_7_27\sr5e1_l9388_freeosek\modules\drivers\system\gpio\include\gpio.h **** #define GPIO_PORT_V                    18U  /**< GPIO Port V */
  57:d:\project\9388\e1\2023_7_27\sr5e1_l9388_freeosek\modules\drivers\system\gpio\include\gpio.h **** #define GPIO_PORT_W                    19U  /**< GPIO Port W */
  58:d:\project\9388\e1\2023_7_27\sr5e1_l9388_freeosek\modules\drivers\system\gpio\include\gpio.h **** #define GPIO_PORT_X                    20U  /**< GPIO Port X */
  59:d:\project\9388\e1\2023_7_27\sr5e1_l9388_freeosek\modules\drivers\system\gpio\include\gpio.h **** #define GPIO_PORT_Y                    21U  /**< GPIO Port Y */
  60:d:\project\9388\e1\2023_7_27\sr5e1_l9388_freeosek\modules\drivers\system\gpio\include\gpio.h **** /** @} */
  61:d:\project\9388\e1\2023_7_27\sr5e1_l9388_freeosek\modules\drivers\system\gpio\include\gpio.h **** 
  62:d:\project\9388\e1\2023_7_27\sr5e1_l9388_freeosek\modules\drivers\system\gpio\include\gpio.h **** /**
  63:d:\project\9388\e1\2023_7_27\sr5e1_l9388_freeosek\modules\drivers\system\gpio\include\gpio.h ****  * @name    GPIO Pin identifiers
  64:d:\project\9388\e1\2023_7_27\sr5e1_l9388_freeosek\modules\drivers\system\gpio\include\gpio.h ****  * @{
  65:d:\project\9388\e1\2023_7_27\sr5e1_l9388_freeosek\modules\drivers\system\gpio\include\gpio.h ****  */
  66:d:\project\9388\e1\2023_7_27\sr5e1_l9388_freeosek\modules\drivers\system\gpio\include\gpio.h **** #define GPIO_PIN_0                     0U   /**< GPIO Pin 0  */
  67:d:\project\9388\e1\2023_7_27\sr5e1_l9388_freeosek\modules\drivers\system\gpio\include\gpio.h **** #define GPIO_PIN_1                     1U   /**< GPIO Pin 1  */
  68:d:\project\9388\e1\2023_7_27\sr5e1_l9388_freeosek\modules\drivers\system\gpio\include\gpio.h **** #define GPIO_PIN_2                     2U   /**< GPIO Pin 2  */
  69:d:\project\9388\e1\2023_7_27\sr5e1_l9388_freeosek\modules\drivers\system\gpio\include\gpio.h **** #define GPIO_PIN_3                     3U   /**< GPIO Pin 3  */
  70:d:\project\9388\e1\2023_7_27\sr5e1_l9388_freeosek\modules\drivers\system\gpio\include\gpio.h **** #define GPIO_PIN_4                     4U   /**< GPIO Pin 4  */
  71:d:\project\9388\e1\2023_7_27\sr5e1_l9388_freeosek\modules\drivers\system\gpio\include\gpio.h **** #define GPIO_PIN_5                     5U   /**< GPIO Pin 5  */
  72:d:\project\9388\e1\2023_7_27\sr5e1_l9388_freeosek\modules\drivers\system\gpio\include\gpio.h **** #define GPIO_PIN_6                     6U   /**< GPIO Pin 6  */
  73:d:\project\9388\e1\2023_7_27\sr5e1_l9388_freeosek\modules\drivers\system\gpio\include\gpio.h **** #define GPIO_PIN_7                     7U   /**< GPIO Pin 7  */
  74:d:\project\9388\e1\2023_7_27\sr5e1_l9388_freeosek\modules\drivers\system\gpio\include\gpio.h **** #define GPIO_PIN_8                     8U   /**< GPIO Pin 8  */
  75:d:\project\9388\e1\2023_7_27\sr5e1_l9388_freeosek\modules\drivers\system\gpio\include\gpio.h **** #define GPIO_PIN_9                     9U   /**< GPIO Pin 9  */
  76:d:\project\9388\e1\2023_7_27\sr5e1_l9388_freeosek\modules\drivers\system\gpio\include\gpio.h **** #define GPIO_PIN_10                    10U  /**< GPIO Pin 10 */
  77:d:\project\9388\e1\2023_7_27\sr5e1_l9388_freeosek\modules\drivers\system\gpio\include\gpio.h **** #define GPIO_PIN_11                    11U  /**< GPIO Pin 11 */
  78:d:\project\9388\e1\2023_7_27\sr5e1_l9388_freeosek\modules\drivers\system\gpio\include\gpio.h **** #define GPIO_PIN_12                    12U  /**< GPIO Pin 12 */
  79:d:\project\9388\e1\2023_7_27\sr5e1_l9388_freeosek\modules\drivers\system\gpio\include\gpio.h **** #define GPIO_PIN_13                    13U  /**< GPIO Pin 13 */
  80:d:\project\9388\e1\2023_7_27\sr5e1_l9388_freeosek\modules\drivers\system\gpio\include\gpio.h **** #define GPIO_PIN_14                    14U  /**< GPIO Pin 14 */
  81:d:\project\9388\e1\2023_7_27\sr5e1_l9388_freeosek\modules\drivers\system\gpio\include\gpio.h **** #define GPIO_PIN_15                    15U  /**< GPIO Pin 15 */
  82:d:\project\9388\e1\2023_7_27\sr5e1_l9388_freeosek\modules\drivers\system\gpio\include\gpio.h **** /** @} */
  83:d:\project\9388\e1\2023_7_27\sr5e1_l9388_freeosek\modules\drivers\system\gpio\include\gpio.h **** 
  84:d:\project\9388\e1\2023_7_27\sr5e1_l9388_freeosek\modules\drivers\system\gpio\include\gpio.h **** /**
  85:d:\project\9388\e1\2023_7_27\sr5e1_l9388_freeosek\modules\drivers\system\gpio\include\gpio.h ****  * @name    GPIO mode flags
  86:d:\project\9388\e1\2023_7_27\sr5e1_l9388_freeosek\modules\drivers\system\gpio\include\gpio.h ****  * @{
  87:d:\project\9388\e1\2023_7_27\sr5e1_l9388_freeosek\modules\drivers\system\gpio\include\gpio.h ****  */
  88:d:\project\9388\e1\2023_7_27\sr5e1_l9388_freeosek\modules\drivers\system\gpio\include\gpio.h **** #define GPIO_MODE_MODER_POS            (0U)
  89:d:\project\9388\e1\2023_7_27\sr5e1_l9388_freeosek\modules\drivers\system\gpio\include\gpio.h **** #define GPIO_MODE_MODER_MASK           (3UL << GPIO_MODE_MODER_POS)
  90:d:\project\9388\e1\2023_7_27\sr5e1_l9388_freeosek\modules\drivers\system\gpio\include\gpio.h **** #define GPIO_MODE_MODER_INPUT          (0UL << GPIO_MODE_MODER_POS)
  91:d:\project\9388\e1\2023_7_27\sr5e1_l9388_freeosek\modules\drivers\system\gpio\include\gpio.h **** #define GPIO_MODE_MODER_OUTPUT         (1UL << GPIO_MODE_MODER_POS)
  92:d:\project\9388\e1\2023_7_27\sr5e1_l9388_freeosek\modules\drivers\system\gpio\include\gpio.h **** #define GPIO_MODE_MODER_ALTERNATE      (2UL << GPIO_MODE_MODER_POS)
  93:d:\project\9388\e1\2023_7_27\sr5e1_l9388_freeosek\modules\drivers\system\gpio\include\gpio.h **** #define GPIO_MODE_MODER_ANALOG         (3UL << GPIO_MODE_MODER_POS)
  94:d:\project\9388\e1\2023_7_27\sr5e1_l9388_freeosek\modules\drivers\system\gpio\include\gpio.h **** 
  95:d:\project\9388\e1\2023_7_27\sr5e1_l9388_freeosek\modules\drivers\system\gpio\include\gpio.h **** #define GPIO_MODE_OTYPER_POS           (2U)
  96:d:\project\9388\e1\2023_7_27\sr5e1_l9388_freeosek\modules\drivers\system\gpio\include\gpio.h **** #define GPIO_MODE_OTYPER_MASK          (1UL << GPIO_MODE_OTYPER_POS)
  97:d:\project\9388\e1\2023_7_27\sr5e1_l9388_freeosek\modules\drivers\system\gpio\include\gpio.h **** #define GPIO_MODE_OTYPER_PUSHPULL      (0UL << GPIO_MODE_OTYPER_POS)
  98:d:\project\9388\e1\2023_7_27\sr5e1_l9388_freeosek\modules\drivers\system\gpio\include\gpio.h **** #define GPIO_MODE_OTYPER_OPENDRAIN     (1UL << GPIO_MODE_OTYPER_POS)
  99:d:\project\9388\e1\2023_7_27\sr5e1_l9388_freeosek\modules\drivers\system\gpio\include\gpio.h **** 
 100:d:\project\9388\e1\2023_7_27\sr5e1_l9388_freeosek\modules\drivers\system\gpio\include\gpio.h **** #define GPIO_MODE_OSPEEDR_POS          (3U)
 101:d:\project\9388\e1\2023_7_27\sr5e1_l9388_freeosek\modules\drivers\system\gpio\include\gpio.h **** #define GPIO_MODE_OSPEEDR_MASK         (3UL << GPIO_MODE_OSPEEDR_POS)
 102:d:\project\9388\e1\2023_7_27\sr5e1_l9388_freeosek\modules\drivers\system\gpio\include\gpio.h **** #define GPIO_MODE_OSPEEDR_LOW          (0UL << GPIO_MODE_OSPEEDR_POS)
 103:d:\project\9388\e1\2023_7_27\sr5e1_l9388_freeosek\modules\drivers\system\gpio\include\gpio.h **** #define GPIO_MODE_OSPEEDR_MEDIUM       (1UL << GPIO_MODE_OSPEEDR_POS)
 104:d:\project\9388\e1\2023_7_27\sr5e1_l9388_freeosek\modules\drivers\system\gpio\include\gpio.h **** #define GPIO_MODE_OSPEEDR_HIGH         (2UL << GPIO_MODE_OSPEEDR_POS)
 105:d:\project\9388\e1\2023_7_27\sr5e1_l9388_freeosek\modules\drivers\system\gpio\include\gpio.h **** #define GPIO_MODE_OSPEEDR_VERYHIGH     (3UL << GPIO_MODE_OSPEEDR_POS)
 106:d:\project\9388\e1\2023_7_27\sr5e1_l9388_freeosek\modules\drivers\system\gpio\include\gpio.h **** 
 107:d:\project\9388\e1\2023_7_27\sr5e1_l9388_freeosek\modules\drivers\system\gpio\include\gpio.h **** #define GPIO_MODE_PUPDR_POS            (5U)
 108:d:\project\9388\e1\2023_7_27\sr5e1_l9388_freeosek\modules\drivers\system\gpio\include\gpio.h **** #define GPIO_MODE_PUPDR_MASK           (3UL << GPIO_MODE_PUPDR_POS)
 109:d:\project\9388\e1\2023_7_27\sr5e1_l9388_freeosek\modules\drivers\system\gpio\include\gpio.h **** #define GPIO_MODE_PUPDR_FLOATING       (0UL << GPIO_MODE_PUPDR_POS)
 110:d:\project\9388\e1\2023_7_27\sr5e1_l9388_freeosek\modules\drivers\system\gpio\include\gpio.h **** #define GPIO_MODE_PUPDR_PULLUP         (1UL << GPIO_MODE_PUPDR_POS)
 111:d:\project\9388\e1\2023_7_27\sr5e1_l9388_freeosek\modules\drivers\system\gpio\include\gpio.h **** #define GPIO_MODE_PUPDR_PULLDOWN       (2UL << GPIO_MODE_PUPDR_POS)
 112:d:\project\9388\e1\2023_7_27\sr5e1_l9388_freeosek\modules\drivers\system\gpio\include\gpio.h **** 
 113:d:\project\9388\e1\2023_7_27\sr5e1_l9388_freeosek\modules\drivers\system\gpio\include\gpio.h **** #define GPIO_MODE_AFR_POS              (7U)
 114:d:\project\9388\e1\2023_7_27\sr5e1_l9388_freeosek\modules\drivers\system\gpio\include\gpio.h **** #define GPIO_MODE_AFR_MASK             (15UL << GPIO_MODE_AFR_POS)
 115:d:\project\9388\e1\2023_7_27\sr5e1_l9388_freeosek\modules\drivers\system\gpio\include\gpio.h **** #define GPIO_MODE_AFR(n)               ((uint32_t)(n) << GPIO_MODE_AFR_POS)
 116:d:\project\9388\e1\2023_7_27\sr5e1_l9388_freeosek\modules\drivers\system\gpio\include\gpio.h **** 
 117:d:\project\9388\e1\2023_7_27\sr5e1_l9388_freeosek\modules\drivers\system\gpio\include\gpio.h **** #define GPIO_MODE_IHYSTR_POS           (11U)
 118:d:\project\9388\e1\2023_7_27\sr5e1_l9388_freeosek\modules\drivers\system\gpio\include\gpio.h **** #define GPIO_MODE_IHYSTR_MASK          (3UL << GPIO_MODE_IHYSTR_POS)
 119:d:\project\9388\e1\2023_7_27\sr5e1_l9388_freeosek\modules\drivers\system\gpio\include\gpio.h **** #define GPIO_MODE_IHYSTR_CMOS          (0UL << GPIO_MODE_IHYSTR_POS)
 120:d:\project\9388\e1\2023_7_27\sr5e1_l9388_freeosek\modules\drivers\system\gpio\include\gpio.h **** #define GPIO_MODE_IHYSTR_AUTO          (1UL << GPIO_MODE_IHYSTR_POS)
 121:d:\project\9388\e1\2023_7_27\sr5e1_l9388_freeosek\modules\drivers\system\gpio\include\gpio.h **** #define GPIO_MODE_IHYSTR_TTL           (2UL << GPIO_MODE_IHYSTR_POS)
 122:d:\project\9388\e1\2023_7_27\sr5e1_l9388_freeosek\modules\drivers\system\gpio\include\gpio.h **** 
 123:d:\project\9388\e1\2023_7_27\sr5e1_l9388_freeosek\modules\drivers\system\gpio\include\gpio.h **** #define GPIO_MODE_TRIGENR_POS          (13U)
 124:d:\project\9388\e1\2023_7_27\sr5e1_l9388_freeosek\modules\drivers\system\gpio\include\gpio.h **** #define GPIO_MODE_TRIGENR_MASK         (1UL << GPIO_MODE_TRIGENR_POS)
 125:d:\project\9388\e1\2023_7_27\sr5e1_l9388_freeosek\modules\drivers\system\gpio\include\gpio.h **** #define GPIO_MODE_TRIGENR_IN_DISABLED  (0UL << GPIO_MODE_TRIGENR_POS)
 126:d:\project\9388\e1\2023_7_27\sr5e1_l9388_freeosek\modules\drivers\system\gpio\include\gpio.h **** #define GPIO_MODE_TRIGENR_IN_ENABLED   (1UL << GPIO_MODE_TRIGENR_POS)
 127:d:\project\9388\e1\2023_7_27\sr5e1_l9388_freeosek\modules\drivers\system\gpio\include\gpio.h **** 
 128:d:\project\9388\e1\2023_7_27\sr5e1_l9388_freeosek\modules\drivers\system\gpio\include\gpio.h **** #define GPIO_MODE_SAFESELR_POS         (14U)
 129:d:\project\9388\e1\2023_7_27\sr5e1_l9388_freeosek\modules\drivers\system\gpio\include\gpio.h **** #define GPIO_MODE_SAFESELR_MASK        (1UL << GPIO_MODE_SAFESELR_POS)
 130:d:\project\9388\e1\2023_7_27\sr5e1_l9388_freeosek\modules\drivers\system\gpio\include\gpio.h **** #define GPIO_MODE_SAFESELR_DISABLED    (0UL << GPIO_MODE_SAFESELR_POS)
 131:d:\project\9388\e1\2023_7_27\sr5e1_l9388_freeosek\modules\drivers\system\gpio\include\gpio.h **** #define GPIO_MODE_SAFESELR_ENABLED     (1UL << GPIO_MODE_SAFESELR_POS)
 132:d:\project\9388\e1\2023_7_27\sr5e1_l9388_freeosek\modules\drivers\system\gpio\include\gpio.h **** 
 133:d:\project\9388\e1\2023_7_27\sr5e1_l9388_freeosek\modules\drivers\system\gpio\include\gpio.h **** #define GPIO_MODE_SAFEVALR_POS         (15U)
 134:d:\project\9388\e1\2023_7_27\sr5e1_l9388_freeosek\modules\drivers\system\gpio\include\gpio.h **** #define GPIO_MODE_SAFEVALR_MASK        (1UL << GPIO_MODE_SAFEVALR_POS)
 135:d:\project\9388\e1\2023_7_27\sr5e1_l9388_freeosek\modules\drivers\system\gpio\include\gpio.h **** #define GPIO_MODE_SAFEVALR_LOW         (0UL << GPIO_MODE_SAFEVALR_POS)
 136:d:\project\9388\e1\2023_7_27\sr5e1_l9388_freeosek\modules\drivers\system\gpio\include\gpio.h **** #define GPIO_MODE_SAFEVALR_HIGH        (1UL << GPIO_MODE_SAFEVALR_POS)
 137:d:\project\9388\e1\2023_7_27\sr5e1_l9388_freeosek\modules\drivers\system\gpio\include\gpio.h **** /** @} */
 138:d:\project\9388\e1\2023_7_27\sr5e1_l9388_freeosek\modules\drivers\system\gpio\include\gpio.h **** 
 139:d:\project\9388\e1\2023_7_27\sr5e1_l9388_freeosek\modules\drivers\system\gpio\include\gpio.h **** /*===========================================================================*/
 140:d:\project\9388\e1\2023_7_27\sr5e1_l9388_freeosek\modules\drivers\system\gpio\include\gpio.h **** /* Module pre-compile time settings.                                         */
 141:d:\project\9388\e1\2023_7_27\sr5e1_l9388_freeosek\modules\drivers\system\gpio\include\gpio.h **** /*===========================================================================*/
 142:d:\project\9388\e1\2023_7_27\sr5e1_l9388_freeosek\modules\drivers\system\gpio\include\gpio.h **** 
 143:d:\project\9388\e1\2023_7_27\sr5e1_l9388_freeosek\modules\drivers\system\gpio\include\gpio.h **** /*===========================================================================*/
 144:d:\project\9388\e1\2023_7_27\sr5e1_l9388_freeosek\modules\drivers\system\gpio\include\gpio.h **** /* Derived constants and error checks.                                       */
 145:d:\project\9388\e1\2023_7_27\sr5e1_l9388_freeosek\modules\drivers\system\gpio\include\gpio.h **** /*===========================================================================*/
 146:d:\project\9388\e1\2023_7_27\sr5e1_l9388_freeosek\modules\drivers\system\gpio\include\gpio.h **** 
 147:d:\project\9388\e1\2023_7_27\sr5e1_l9388_freeosek\modules\drivers\system\gpio\include\gpio.h **** /*===========================================================================*/
 148:d:\project\9388\e1\2023_7_27\sr5e1_l9388_freeosek\modules\drivers\system\gpio\include\gpio.h **** /* Module data structures and types.                                         */
 149:d:\project\9388\e1\2023_7_27\sr5e1_l9388_freeosek\modules\drivers\system\gpio\include\gpio.h **** /*===========================================================================*/
 150:d:\project\9388\e1\2023_7_27\sr5e1_l9388_freeosek\modules\drivers\system\gpio\include\gpio.h **** 
 151:d:\project\9388\e1\2023_7_27\sr5e1_l9388_freeosek\modules\drivers\system\gpio\include\gpio.h **** /**
 152:d:\project\9388\e1\2023_7_27\sr5e1_l9388_freeosek\modules\drivers\system\gpio\include\gpio.h ****  * @brief   GPIO Port type.
 153:d:\project\9388\e1\2023_7_27\sr5e1_l9388_freeosek\modules\drivers\system\gpio\include\gpio.h ****  */
 154:d:\project\9388\e1\2023_7_27\sr5e1_l9388_freeosek\modules\drivers\system\gpio\include\gpio.h **** typedef uint8_t gpio_port_t;
 155:d:\project\9388\e1\2023_7_27\sr5e1_l9388_freeosek\modules\drivers\system\gpio\include\gpio.h **** 
 156:d:\project\9388\e1\2023_7_27\sr5e1_l9388_freeosek\modules\drivers\system\gpio\include\gpio.h **** /**
 157:d:\project\9388\e1\2023_7_27\sr5e1_l9388_freeosek\modules\drivers\system\gpio\include\gpio.h ****  * @brief   GPIO Pin type.
 158:d:\project\9388\e1\2023_7_27\sr5e1_l9388_freeosek\modules\drivers\system\gpio\include\gpio.h ****  */
 159:d:\project\9388\e1\2023_7_27\sr5e1_l9388_freeosek\modules\drivers\system\gpio\include\gpio.h **** typedef uint8_t gpio_pin_t;
 160:d:\project\9388\e1\2023_7_27\sr5e1_l9388_freeosek\modules\drivers\system\gpio\include\gpio.h **** 
 161:d:\project\9388\e1\2023_7_27\sr5e1_l9388_freeosek\modules\drivers\system\gpio\include\gpio.h **** /**
 162:d:\project\9388\e1\2023_7_27\sr5e1_l9388_freeosek\modules\drivers\system\gpio\include\gpio.h ****  * @brief   GPIO I/O type.
 163:d:\project\9388\e1\2023_7_27\sr5e1_l9388_freeosek\modules\drivers\system\gpio\include\gpio.h ****  */
 164:d:\project\9388\e1\2023_7_27\sr5e1_l9388_freeosek\modules\drivers\system\gpio\include\gpio.h **** typedef uint16_t gpio_io_t;
 165:d:\project\9388\e1\2023_7_27\sr5e1_l9388_freeosek\modules\drivers\system\gpio\include\gpio.h **** 
 166:d:\project\9388\e1\2023_7_27\sr5e1_l9388_freeosek\modules\drivers\system\gpio\include\gpio.h **** /**
 167:d:\project\9388\e1\2023_7_27\sr5e1_l9388_freeosek\modules\drivers\system\gpio\include\gpio.h ****  * @enum gpio_mode_t
 168:d:\project\9388\e1\2023_7_27\sr5e1_l9388_freeosek\modules\drivers\system\gpio\include\gpio.h ****  * GPIO Mode type.
 169:d:\project\9388\e1\2023_7_27\sr5e1_l9388_freeosek\modules\drivers\system\gpio\include\gpio.h ****  */
 170:d:\project\9388\e1\2023_7_27\sr5e1_l9388_freeosek\modules\drivers\system\gpio\include\gpio.h **** typedef enum {
 171:d:\project\9388\e1\2023_7_27\sr5e1_l9388_freeosek\modules\drivers\system\gpio\include\gpio.h ****     GPIO_MODER_INPUT,        /**< GPIO Mode Input              */
 172:d:\project\9388\e1\2023_7_27\sr5e1_l9388_freeosek\modules\drivers\system\gpio\include\gpio.h ****     GPIO_MODER_OUTPUT,       /**< GPIO Mode Output             */
 173:d:\project\9388\e1\2023_7_27\sr5e1_l9388_freeosek\modules\drivers\system\gpio\include\gpio.h ****     GPIO_MODER_ALTERNATE,    /**< GPIO Mode Alternate Function */
 174:d:\project\9388\e1\2023_7_27\sr5e1_l9388_freeosek\modules\drivers\system\gpio\include\gpio.h ****     GPIO_MODER_ANALOG        /**< GPIO Mode Analog             */
 175:d:\project\9388\e1\2023_7_27\sr5e1_l9388_freeosek\modules\drivers\system\gpio\include\gpio.h **** } gpio_mode_t;
 176:d:\project\9388\e1\2023_7_27\sr5e1_l9388_freeosek\modules\drivers\system\gpio\include\gpio.h **** 
 177:d:\project\9388\e1\2023_7_27\sr5e1_l9388_freeosek\modules\drivers\system\gpio\include\gpio.h **** /**
 178:d:\project\9388\e1\2023_7_27\sr5e1_l9388_freeosek\modules\drivers\system\gpio\include\gpio.h ****  * @enum gpio_otype_t
 179:d:\project\9388\e1\2023_7_27\sr5e1_l9388_freeosek\modules\drivers\system\gpio\include\gpio.h ****  * GPIO Output Type type.
 180:d:\project\9388\e1\2023_7_27\sr5e1_l9388_freeosek\modules\drivers\system\gpio\include\gpio.h ****  */
 181:d:\project\9388\e1\2023_7_27\sr5e1_l9388_freeosek\modules\drivers\system\gpio\include\gpio.h **** typedef enum {
 182:d:\project\9388\e1\2023_7_27\sr5e1_l9388_freeosek\modules\drivers\system\gpio\include\gpio.h ****     GPIO_OTYPER_PUSHPULL,    /**< GPIO Output Push-Pull  */
 183:d:\project\9388\e1\2023_7_27\sr5e1_l9388_freeosek\modules\drivers\system\gpio\include\gpio.h ****     GPIO_OTYPER_OPENDRAIN,   /**< GPIO Output Open-Drain */
 184:d:\project\9388\e1\2023_7_27\sr5e1_l9388_freeosek\modules\drivers\system\gpio\include\gpio.h **** } gpio_otype_t;
 185:d:\project\9388\e1\2023_7_27\sr5e1_l9388_freeosek\modules\drivers\system\gpio\include\gpio.h **** 
 186:d:\project\9388\e1\2023_7_27\sr5e1_l9388_freeosek\modules\drivers\system\gpio\include\gpio.h **** /**
 187:d:\project\9388\e1\2023_7_27\sr5e1_l9388_freeosek\modules\drivers\system\gpio\include\gpio.h ****  * @enum gpio_ospeed_t
 188:d:\project\9388\e1\2023_7_27\sr5e1_l9388_freeosek\modules\drivers\system\gpio\include\gpio.h ****  * GPIO Output Speed type.
 189:d:\project\9388\e1\2023_7_27\sr5e1_l9388_freeosek\modules\drivers\system\gpio\include\gpio.h ****  */
 190:d:\project\9388\e1\2023_7_27\sr5e1_l9388_freeosek\modules\drivers\system\gpio\include\gpio.h **** typedef enum {
 191:d:\project\9388\e1\2023_7_27\sr5e1_l9388_freeosek\modules\drivers\system\gpio\include\gpio.h ****     GPIO_OSPEEDR_LOW,        /**< GPIO Low Speed       */
 192:d:\project\9388\e1\2023_7_27\sr5e1_l9388_freeosek\modules\drivers\system\gpio\include\gpio.h ****     GPIO_OSPEEDR_MEDIUM,     /**< GPIO Medium Speed    */
 193:d:\project\9388\e1\2023_7_27\sr5e1_l9388_freeosek\modules\drivers\system\gpio\include\gpio.h ****     GPIO_OSPEEDR_HIGH,       /**< GPIO High Speed      */
 194:d:\project\9388\e1\2023_7_27\sr5e1_l9388_freeosek\modules\drivers\system\gpio\include\gpio.h ****     GPIO_OSPEEDR_VERYHIGH    /**< GPIO Very High Speed */
 195:d:\project\9388\e1\2023_7_27\sr5e1_l9388_freeosek\modules\drivers\system\gpio\include\gpio.h **** } gpio_ospeed_t;
 196:d:\project\9388\e1\2023_7_27\sr5e1_l9388_freeosek\modules\drivers\system\gpio\include\gpio.h **** 
 197:d:\project\9388\e1\2023_7_27\sr5e1_l9388_freeosek\modules\drivers\system\gpio\include\gpio.h **** /**
 198:d:\project\9388\e1\2023_7_27\sr5e1_l9388_freeosek\modules\drivers\system\gpio\include\gpio.h ****  * @enum gpio_pupd_t
 199:d:\project\9388\e1\2023_7_27\sr5e1_l9388_freeosek\modules\drivers\system\gpio\include\gpio.h ****  * GPIO Pull-up/Pull-down type.
 200:d:\project\9388\e1\2023_7_27\sr5e1_l9388_freeosek\modules\drivers\system\gpio\include\gpio.h ****  */
 201:d:\project\9388\e1\2023_7_27\sr5e1_l9388_freeosek\modules\drivers\system\gpio\include\gpio.h **** typedef enum {
 202:d:\project\9388\e1\2023_7_27\sr5e1_l9388_freeosek\modules\drivers\system\gpio\include\gpio.h ****     GPIO_PUPDR_FLOATING,     /**< GPIO No Pull-Up, No Pull-Down */
 203:d:\project\9388\e1\2023_7_27\sr5e1_l9388_freeosek\modules\drivers\system\gpio\include\gpio.h ****     GPIO_PUPDR_PULLUP,       /**< GPIO Pull-Up                  */
 204:d:\project\9388\e1\2023_7_27\sr5e1_l9388_freeosek\modules\drivers\system\gpio\include\gpio.h ****     GPIO_PUPDR_PULLDOWN      /**< GPIO Pull-Down                */
 205:d:\project\9388\e1\2023_7_27\sr5e1_l9388_freeosek\modules\drivers\system\gpio\include\gpio.h **** } gpio_pupd_t;
 206:d:\project\9388\e1\2023_7_27\sr5e1_l9388_freeosek\modules\drivers\system\gpio\include\gpio.h **** 
 207:d:\project\9388\e1\2023_7_27\sr5e1_l9388_freeosek\modules\drivers\system\gpio\include\gpio.h **** /**
 208:d:\project\9388\e1\2023_7_27\sr5e1_l9388_freeosek\modules\drivers\system\gpio\include\gpio.h ****  * @enum gpio_od_t
 209:d:\project\9388\e1\2023_7_27\sr5e1_l9388_freeosek\modules\drivers\system\gpio\include\gpio.h ****  * GPIO Output Data type.
 210:d:\project\9388\e1\2023_7_27\sr5e1_l9388_freeosek\modules\drivers\system\gpio\include\gpio.h ****  */
 211:d:\project\9388\e1\2023_7_27\sr5e1_l9388_freeosek\modules\drivers\system\gpio\include\gpio.h **** typedef enum {
 212:d:\project\9388\e1\2023_7_27\sr5e1_l9388_freeosek\modules\drivers\system\gpio\include\gpio.h ****     GPIO_ODR_LOW,            /**< GPIO Output Data Low  */
 213:d:\project\9388\e1\2023_7_27\sr5e1_l9388_freeosek\modules\drivers\system\gpio\include\gpio.h ****     GPIO_ODR_HIGH            /**< GPIO Output Data High */
 214:d:\project\9388\e1\2023_7_27\sr5e1_l9388_freeosek\modules\drivers\system\gpio\include\gpio.h **** } gpio_od_t;
 215:d:\project\9388\e1\2023_7_27\sr5e1_l9388_freeosek\modules\drivers\system\gpio\include\gpio.h **** 
 216:d:\project\9388\e1\2023_7_27\sr5e1_l9388_freeosek\modules\drivers\system\gpio\include\gpio.h **** /**
 217:d:\project\9388\e1\2023_7_27\sr5e1_l9388_freeosek\modules\drivers\system\gpio\include\gpio.h ****  * @brief   GPIO Alternate Function type.
 218:d:\project\9388\e1\2023_7_27\sr5e1_l9388_freeosek\modules\drivers\system\gpio\include\gpio.h ****  */
 219:d:\project\9388\e1\2023_7_27\sr5e1_l9388_freeosek\modules\drivers\system\gpio\include\gpio.h **** typedef uint8_t gpio_af_t;
 220:d:\project\9388\e1\2023_7_27\sr5e1_l9388_freeosek\modules\drivers\system\gpio\include\gpio.h **** 
 221:d:\project\9388\e1\2023_7_27\sr5e1_l9388_freeosek\modules\drivers\system\gpio\include\gpio.h **** /**
 222:d:\project\9388\e1\2023_7_27\sr5e1_l9388_freeosek\modules\drivers\system\gpio\include\gpio.h ****  * @enum gpio_ihyst_t
 223:d:\project\9388\e1\2023_7_27\sr5e1_l9388_freeosek\modules\drivers\system\gpio\include\gpio.h ****  * GPIO Port Hysteresis type.
 224:d:\project\9388\e1\2023_7_27\sr5e1_l9388_freeosek\modules\drivers\system\gpio\include\gpio.h ****  */
 225:d:\project\9388\e1\2023_7_27\sr5e1_l9388_freeosek\modules\drivers\system\gpio\include\gpio.h **** typedef enum {
 226:d:\project\9388\e1\2023_7_27\sr5e1_l9388_freeosek\modules\drivers\system\gpio\include\gpio.h ****     GPIO_IHYSTR_CMOS,        /**< GPIO Port Input Buffer Disabled */
 227:d:\project\9388\e1\2023_7_27\sr5e1_l9388_freeosek\modules\drivers\system\gpio\include\gpio.h ****     GPIO_IHYSTR_TTL,         /**< GPIO Port Input Buffer Enabled  */
 228:d:\project\9388\e1\2023_7_27\sr5e1_l9388_freeosek\modules\drivers\system\gpio\include\gpio.h ****     GPIO_IHYSTR_AUTO,        /**< GPIO Port Input Buffer Enabled  */
 229:d:\project\9388\e1\2023_7_27\sr5e1_l9388_freeosek\modules\drivers\system\gpio\include\gpio.h **** } gpio_ihyst_t;
 230:d:\project\9388\e1\2023_7_27\sr5e1_l9388_freeosek\modules\drivers\system\gpio\include\gpio.h **** 
 231:d:\project\9388\e1\2023_7_27\sr5e1_l9388_freeosek\modules\drivers\system\gpio\include\gpio.h **** /**
 232:d:\project\9388\e1\2023_7_27\sr5e1_l9388_freeosek\modules\drivers\system\gpio\include\gpio.h ****  * @enum gpio_trigen_t
 233:d:\project\9388\e1\2023_7_27\sr5e1_l9388_freeosek\modules\drivers\system\gpio\include\gpio.h ****  * GPIO Port Input Buffer Enable type.
 234:d:\project\9388\e1\2023_7_27\sr5e1_l9388_freeosek\modules\drivers\system\gpio\include\gpio.h ****  */
 235:d:\project\9388\e1\2023_7_27\sr5e1_l9388_freeosek\modules\drivers\system\gpio\include\gpio.h **** typedef enum {
 236:d:\project\9388\e1\2023_7_27\sr5e1_l9388_freeosek\modules\drivers\system\gpio\include\gpio.h ****     GPIO_TRIGENR_IN_DISABLED,     /**< GPIO Port Input Buffer Disabled */
 237:d:\project\9388\e1\2023_7_27\sr5e1_l9388_freeosek\modules\drivers\system\gpio\include\gpio.h ****     GPIO_TRIGENR_IN_ENABLED       /**< GPIO Port Input Buffer Enabled  */
 238:d:\project\9388\e1\2023_7_27\sr5e1_l9388_freeosek\modules\drivers\system\gpio\include\gpio.h **** } gpio_trigen_t;
 239:d:\project\9388\e1\2023_7_27\sr5e1_l9388_freeosek\modules\drivers\system\gpio\include\gpio.h **** 
 240:d:\project\9388\e1\2023_7_27\sr5e1_l9388_freeosek\modules\drivers\system\gpio\include\gpio.h **** /**
 241:d:\project\9388\e1\2023_7_27\sr5e1_l9388_freeosek\modules\drivers\system\gpio\include\gpio.h ****  * @enum gpio_safesel_t
 242:d:\project\9388\e1\2023_7_27\sr5e1_l9388_freeosek\modules\drivers\system\gpio\include\gpio.h ****  * GPIO Safe IO Selection Enable type.
 243:d:\project\9388\e1\2023_7_27\sr5e1_l9388_freeosek\modules\drivers\system\gpio\include\gpio.h ****  */
 244:d:\project\9388\e1\2023_7_27\sr5e1_l9388_freeosek\modules\drivers\system\gpio\include\gpio.h **** typedef enum {
 245:d:\project\9388\e1\2023_7_27\sr5e1_l9388_freeosek\modules\drivers\system\gpio\include\gpio.h ****     GPIO_SAFESEL_DISABLED,   /**< GPIO Safe IO Selection Disabled */
 246:d:\project\9388\e1\2023_7_27\sr5e1_l9388_freeosek\modules\drivers\system\gpio\include\gpio.h ****     GPIO_SAFESEL_ENABLED     /**< GPIO Safe IO Selection Enabled  */
 247:d:\project\9388\e1\2023_7_27\sr5e1_l9388_freeosek\modules\drivers\system\gpio\include\gpio.h **** } gpio_safesel_t;
 248:d:\project\9388\e1\2023_7_27\sr5e1_l9388_freeosek\modules\drivers\system\gpio\include\gpio.h **** 
 249:d:\project\9388\e1\2023_7_27\sr5e1_l9388_freeosek\modules\drivers\system\gpio\include\gpio.h **** /**
 250:d:\project\9388\e1\2023_7_27\sr5e1_l9388_freeosek\modules\drivers\system\gpio\include\gpio.h ****  * @enum gpio_safeval_t
 251:d:\project\9388\e1\2023_7_27\sr5e1_l9388_freeosek\modules\drivers\system\gpio\include\gpio.h ****  * GPIO Safe IO Selection value type.
 252:d:\project\9388\e1\2023_7_27\sr5e1_l9388_freeosek\modules\drivers\system\gpio\include\gpio.h ****  */
 253:d:\project\9388\e1\2023_7_27\sr5e1_l9388_freeosek\modules\drivers\system\gpio\include\gpio.h **** typedef enum {
 254:d:\project\9388\e1\2023_7_27\sr5e1_l9388_freeosek\modules\drivers\system\gpio\include\gpio.h ****     GPIO_SAFEVAL_LOW,        /**< GPIO Safe IO Selection Low  */
 255:d:\project\9388\e1\2023_7_27\sr5e1_l9388_freeosek\modules\drivers\system\gpio\include\gpio.h ****     GPIO_SAFEVAL_HIGT        /**< GPIO Safe IO Selection High */
 256:d:\project\9388\e1\2023_7_27\sr5e1_l9388_freeosek\modules\drivers\system\gpio\include\gpio.h **** } gpio_safeval_t;
 257:d:\project\9388\e1\2023_7_27\sr5e1_l9388_freeosek\modules\drivers\system\gpio\include\gpio.h **** 
 258:d:\project\9388\e1\2023_7_27\sr5e1_l9388_freeosek\modules\drivers\system\gpio\include\gpio.h **** /*===========================================================================*/
 259:d:\project\9388\e1\2023_7_27\sr5e1_l9388_freeosek\modules\drivers\system\gpio\include\gpio.h **** /* Module macros.                                                            */
 260:d:\project\9388\e1\2023_7_27\sr5e1_l9388_freeosek\modules\drivers\system\gpio\include\gpio.h **** /*===========================================================================*/
 261:d:\project\9388\e1\2023_7_27\sr5e1_l9388_freeosek\modules\drivers\system\gpio\include\gpio.h **** 
 262:d:\project\9388\e1\2023_7_27\sr5e1_l9388_freeosek\modules\drivers\system\gpio\include\gpio.h **** /**
 263:d:\project\9388\e1\2023_7_27\sr5e1_l9388_freeosek\modules\drivers\system\gpio\include\gpio.h ****  * @brief   Packs unique pin identifier.
 264:d:\project\9388\e1\2023_7_27\sr5e1_l9388_freeosek\modules\drivers\system\gpio\include\gpio.h ****  * @note    The low nibble contains the pin number, the high nibble the port
 265:d:\project\9388\e1\2023_7_27\sr5e1_l9388_freeosek\modules\drivers\system\gpio\include\gpio.h ****  *          number.
 266:d:\project\9388\e1\2023_7_27\sr5e1_l9388_freeosek\modules\drivers\system\gpio\include\gpio.h ****  *
 267:d:\project\9388\e1\2023_7_27\sr5e1_l9388_freeosek\modules\drivers\system\gpio\include\gpio.h ****  * @param[in] port      port number; it can be one of the following values:
 268:d:\project\9388\e1\2023_7_27\sr5e1_l9388_freeosek\modules\drivers\system\gpio\include\gpio.h ****  *            @arg @ref GPIO_PORT_A
 269:d:\project\9388\e1\2023_7_27\sr5e1_l9388_freeosek\modules\drivers\system\gpio\include\gpio.h ****  *            @arg @ref GPIO_PORT_B
 270:d:\project\9388\e1\2023_7_27\sr5e1_l9388_freeosek\modules\drivers\system\gpio\include\gpio.h ****  *            @arg @ref GPIO_PORT_C
 271:d:\project\9388\e1\2023_7_27\sr5e1_l9388_freeosek\modules\drivers\system\gpio\include\gpio.h ****  *            @arg @ref GPIO_PORT_D
 272:d:\project\9388\e1\2023_7_27\sr5e1_l9388_freeosek\modules\drivers\system\gpio\include\gpio.h ****  *            @arg @ref GPIO_PORT_E
 273:d:\project\9388\e1\2023_7_27\sr5e1_l9388_freeosek\modules\drivers\system\gpio\include\gpio.h ****  *            @arg @ref GPIO_PORT_F
 274:d:\project\9388\e1\2023_7_27\sr5e1_l9388_freeosek\modules\drivers\system\gpio\include\gpio.h ****  *            @arg @ref GPIO_PORT_G
 275:d:\project\9388\e1\2023_7_27\sr5e1_l9388_freeosek\modules\drivers\system\gpio\include\gpio.h ****  *            @arg @ref GPIO_PORT_H
 276:d:\project\9388\e1\2023_7_27\sr5e1_l9388_freeosek\modules\drivers\system\gpio\include\gpio.h ****  *            @arg @ref GPIO_PORT_I
 277:d:\project\9388\e1\2023_7_27\sr5e1_l9388_freeosek\modules\drivers\system\gpio\include\gpio.h ****  *            @arg @ref GPIO_PORT_J
 278:d:\project\9388\e1\2023_7_27\sr5e1_l9388_freeosek\modules\drivers\system\gpio\include\gpio.h ****  *            @arg @ref GPIO_PORT_K
 279:d:\project\9388\e1\2023_7_27\sr5e1_l9388_freeosek\modules\drivers\system\gpio\include\gpio.h ****  *            @arg @ref GPIO_PORT_L
 280:d:\project\9388\e1\2023_7_27\sr5e1_l9388_freeosek\modules\drivers\system\gpio\include\gpio.h ****  *            @arg @ref GPIO_PORT_M
 281:d:\project\9388\e1\2023_7_27\sr5e1_l9388_freeosek\modules\drivers\system\gpio\include\gpio.h ****  *            @arg @ref GPIO_PORT_N
 282:d:\project\9388\e1\2023_7_27\sr5e1_l9388_freeosek\modules\drivers\system\gpio\include\gpio.h ****  *            @arg @ref GPIO_PORT_Q
 283:d:\project\9388\e1\2023_7_27\sr5e1_l9388_freeosek\modules\drivers\system\gpio\include\gpio.h ****  *            @arg @ref GPIO_PORT_R
 284:d:\project\9388\e1\2023_7_27\sr5e1_l9388_freeosek\modules\drivers\system\gpio\include\gpio.h ****  *            @arg @ref GPIO_PORT_S
 285:d:\project\9388\e1\2023_7_27\sr5e1_l9388_freeosek\modules\drivers\system\gpio\include\gpio.h ****  *            @arg @ref GPIO_PORT_T
 286:d:\project\9388\e1\2023_7_27\sr5e1_l9388_freeosek\modules\drivers\system\gpio\include\gpio.h ****  *            @arg @ref GPIO_PORT_V
 287:d:\project\9388\e1\2023_7_27\sr5e1_l9388_freeosek\modules\drivers\system\gpio\include\gpio.h ****  *            @arg @ref GPIO_PORT_W
 288:d:\project\9388\e1\2023_7_27\sr5e1_l9388_freeosek\modules\drivers\system\gpio\include\gpio.h ****  *            @arg @ref GPIO_PORT_X
 289:d:\project\9388\e1\2023_7_27\sr5e1_l9388_freeosek\modules\drivers\system\gpio\include\gpio.h ****  *            @arg @ref GPIO_PORT_Y
 290:d:\project\9388\e1\2023_7_27\sr5e1_l9388_freeosek\modules\drivers\system\gpio\include\gpio.h ****  * @param[in] pin       pin number; it can be one of the following values:
 291:d:\project\9388\e1\2023_7_27\sr5e1_l9388_freeosek\modules\drivers\system\gpio\include\gpio.h ****  *            @arg @ref GPIO_PIN_0
 292:d:\project\9388\e1\2023_7_27\sr5e1_l9388_freeosek\modules\drivers\system\gpio\include\gpio.h ****  *            @arg @ref GPIO_PIN_1
 293:d:\project\9388\e1\2023_7_27\sr5e1_l9388_freeosek\modules\drivers\system\gpio\include\gpio.h ****  *            @arg @ref GPIO_PIN_2
 294:d:\project\9388\e1\2023_7_27\sr5e1_l9388_freeosek\modules\drivers\system\gpio\include\gpio.h ****  *            @arg @ref GPIO_PIN_3
 295:d:\project\9388\e1\2023_7_27\sr5e1_l9388_freeosek\modules\drivers\system\gpio\include\gpio.h ****  *            @arg @ref GPIO_PIN_4
 296:d:\project\9388\e1\2023_7_27\sr5e1_l9388_freeosek\modules\drivers\system\gpio\include\gpio.h ****  *            @arg @ref GPIO_PIN_5
 297:d:\project\9388\e1\2023_7_27\sr5e1_l9388_freeosek\modules\drivers\system\gpio\include\gpio.h ****  *            @arg @ref GPIO_PIN_6
 298:d:\project\9388\e1\2023_7_27\sr5e1_l9388_freeosek\modules\drivers\system\gpio\include\gpio.h ****  *            @arg @ref GPIO_PIN_7
 299:d:\project\9388\e1\2023_7_27\sr5e1_l9388_freeosek\modules\drivers\system\gpio\include\gpio.h ****  *            @arg @ref GPIO_PIN_8
 300:d:\project\9388\e1\2023_7_27\sr5e1_l9388_freeosek\modules\drivers\system\gpio\include\gpio.h ****  *            @arg @ref GPIO_PIN_9
 301:d:\project\9388\e1\2023_7_27\sr5e1_l9388_freeosek\modules\drivers\system\gpio\include\gpio.h ****  *            @arg @ref GPIO_PIN_10
 302:d:\project\9388\e1\2023_7_27\sr5e1_l9388_freeosek\modules\drivers\system\gpio\include\gpio.h ****  *            @arg @ref GPIO_PIN_11
 303:d:\project\9388\e1\2023_7_27\sr5e1_l9388_freeosek\modules\drivers\system\gpio\include\gpio.h ****  *            @arg @ref GPIO_PIN_12
 304:d:\project\9388\e1\2023_7_27\sr5e1_l9388_freeosek\modules\drivers\system\gpio\include\gpio.h ****  *            @arg @ref GPIO_PIN_13
 305:d:\project\9388\e1\2023_7_27\sr5e1_l9388_freeosek\modules\drivers\system\gpio\include\gpio.h ****  *            @arg @ref GPIO_PIN_14
 306:d:\project\9388\e1\2023_7_27\sr5e1_l9388_freeosek\modules\drivers\system\gpio\include\gpio.h ****  *            @arg @ref GPIO_PIN_15
 307:d:\project\9388\e1\2023_7_27\sr5e1_l9388_freeosek\modules\drivers\system\gpio\include\gpio.h ****  * @return              unique pin identifier
 308:d:\project\9388\e1\2023_7_27\sr5e1_l9388_freeosek\modules\drivers\system\gpio\include\gpio.h ****  *
 309:d:\project\9388\e1\2023_7_27\sr5e1_l9388_freeosek\modules\drivers\system\gpio\include\gpio.h ****  * @api
 310:d:\project\9388\e1\2023_7_27\sr5e1_l9388_freeosek\modules\drivers\system\gpio\include\gpio.h ****  */
 311:d:\project\9388\e1\2023_7_27\sr5e1_l9388_freeosek\modules\drivers\system\gpio\include\gpio.h **** #define gpio_iopack(_port_, _pin_)                                             \
 312:d:\project\9388\e1\2023_7_27\sr5e1_l9388_freeosek\modules\drivers\system\gpio\include\gpio.h ****     ((gpio_io_t)((((uint32_t)(_port_)) << 4U) | (((uint32_t)(_pin_)) & 0x0FU)))
 313:d:\project\9388\e1\2023_7_27\sr5e1_l9388_freeosek\modules\drivers\system\gpio\include\gpio.h **** 
 314:d:\project\9388\e1\2023_7_27\sr5e1_l9388_freeosek\modules\drivers\system\gpio\include\gpio.h **** /**
 315:d:\project\9388\e1\2023_7_27\sr5e1_l9388_freeosek\modules\drivers\system\gpio\include\gpio.h ****  * @brief   Unpacks unique pin identifier.
 316:d:\project\9388\e1\2023_7_27\sr5e1_l9388_freeosek\modules\drivers\system\gpio\include\gpio.h ****  * @note    Returns port number related to the unique pin identifier.
 317:d:\project\9388\e1\2023_7_27\sr5e1_l9388_freeosek\modules\drivers\system\gpio\include\gpio.h ****  *
 318:d:\project\9388\e1\2023_7_27\sr5e1_l9388_freeosek\modules\drivers\system\gpio\include\gpio.h ****  * @param[in]           unique pin identifier
 319:d:\project\9388\e1\2023_7_27\sr5e1_l9388_freeosek\modules\drivers\system\gpio\include\gpio.h ****  * @return              port number; it can be one of the following values:
 320:d:\project\9388\e1\2023_7_27\sr5e1_l9388_freeosek\modules\drivers\system\gpio\include\gpio.h ****  *            @arg @ref GPIO_PORT_A
 321:d:\project\9388\e1\2023_7_27\sr5e1_l9388_freeosek\modules\drivers\system\gpio\include\gpio.h ****  *            @arg @ref GPIO_PORT_B
 322:d:\project\9388\e1\2023_7_27\sr5e1_l9388_freeosek\modules\drivers\system\gpio\include\gpio.h ****  *            @arg @ref GPIO_PORT_C
 323:d:\project\9388\e1\2023_7_27\sr5e1_l9388_freeosek\modules\drivers\system\gpio\include\gpio.h ****  *            @arg @ref GPIO_PORT_D
 324:d:\project\9388\e1\2023_7_27\sr5e1_l9388_freeosek\modules\drivers\system\gpio\include\gpio.h ****  *            @arg @ref GPIO_PORT_E
 325:d:\project\9388\e1\2023_7_27\sr5e1_l9388_freeosek\modules\drivers\system\gpio\include\gpio.h ****  *            @arg @ref GPIO_PORT_F
 326:d:\project\9388\e1\2023_7_27\sr5e1_l9388_freeosek\modules\drivers\system\gpio\include\gpio.h ****  *            @arg @ref GPIO_PORT_G
 327:d:\project\9388\e1\2023_7_27\sr5e1_l9388_freeosek\modules\drivers\system\gpio\include\gpio.h ****  *            @arg @ref GPIO_PORT_H
 328:d:\project\9388\e1\2023_7_27\sr5e1_l9388_freeosek\modules\drivers\system\gpio\include\gpio.h ****  *            @arg @ref GPIO_PORT_I
 329:d:\project\9388\e1\2023_7_27\sr5e1_l9388_freeosek\modules\drivers\system\gpio\include\gpio.h ****  *            @arg @ref GPIO_PORT_J
 330:d:\project\9388\e1\2023_7_27\sr5e1_l9388_freeosek\modules\drivers\system\gpio\include\gpio.h ****  *            @arg @ref GPIO_PORT_K
 331:d:\project\9388\e1\2023_7_27\sr5e1_l9388_freeosek\modules\drivers\system\gpio\include\gpio.h ****  *            @arg @ref GPIO_PORT_L
 332:d:\project\9388\e1\2023_7_27\sr5e1_l9388_freeosek\modules\drivers\system\gpio\include\gpio.h ****  *            @arg @ref GPIO_PORT_M
 333:d:\project\9388\e1\2023_7_27\sr5e1_l9388_freeosek\modules\drivers\system\gpio\include\gpio.h ****  *            @arg @ref GPIO_PORT_N
 334:d:\project\9388\e1\2023_7_27\sr5e1_l9388_freeosek\modules\drivers\system\gpio\include\gpio.h ****  *            @arg @ref GPIO_PORT_Q
 335:d:\project\9388\e1\2023_7_27\sr5e1_l9388_freeosek\modules\drivers\system\gpio\include\gpio.h ****  *            @arg @ref GPIO_PORT_R
 336:d:\project\9388\e1\2023_7_27\sr5e1_l9388_freeosek\modules\drivers\system\gpio\include\gpio.h ****  *            @arg @ref GPIO_PORT_S
 337:d:\project\9388\e1\2023_7_27\sr5e1_l9388_freeosek\modules\drivers\system\gpio\include\gpio.h ****  *            @arg @ref GPIO_PORT_T
 338:d:\project\9388\e1\2023_7_27\sr5e1_l9388_freeosek\modules\drivers\system\gpio\include\gpio.h ****  *            @arg @ref GPIO_PORT_V
 339:d:\project\9388\e1\2023_7_27\sr5e1_l9388_freeosek\modules\drivers\system\gpio\include\gpio.h ****  *            @arg @ref GPIO_PORT_W
 340:d:\project\9388\e1\2023_7_27\sr5e1_l9388_freeosek\modules\drivers\system\gpio\include\gpio.h ****  *            @arg @ref GPIO_PORT_X
 341:d:\project\9388\e1\2023_7_27\sr5e1_l9388_freeosek\modules\drivers\system\gpio\include\gpio.h ****  *            @arg @ref GPIO_PORT_Y
 342:d:\project\9388\e1\2023_7_27\sr5e1_l9388_freeosek\modules\drivers\system\gpio\include\gpio.h ****  *
 343:d:\project\9388\e1\2023_7_27\sr5e1_l9388_freeosek\modules\drivers\system\gpio\include\gpio.h ****  * @api
 344:d:\project\9388\e1\2023_7_27\sr5e1_l9388_freeosek\modules\drivers\system\gpio\include\gpio.h ****  */
 345:d:\project\9388\e1\2023_7_27\sr5e1_l9388_freeosek\modules\drivers\system\gpio\include\gpio.h **** #define gpio_iounpack_port(_io_)                                               \
 346:d:\project\9388\e1\2023_7_27\sr5e1_l9388_freeosek\modules\drivers\system\gpio\include\gpio.h ****     ((gpio_port_t)(((uint32_t)(_io_)) >> 4U))
 347:d:\project\9388\e1\2023_7_27\sr5e1_l9388_freeosek\modules\drivers\system\gpio\include\gpio.h **** 
 348:d:\project\9388\e1\2023_7_27\sr5e1_l9388_freeosek\modules\drivers\system\gpio\include\gpio.h **** /**
 349:d:\project\9388\e1\2023_7_27\sr5e1_l9388_freeosek\modules\drivers\system\gpio\include\gpio.h ****  * @brief   Unpacks unique pin identifier.
 350:d:\project\9388\e1\2023_7_27\sr5e1_l9388_freeosek\modules\drivers\system\gpio\include\gpio.h ****  * @note    Returns pin number related to the unique pin identifier.
 351:d:\project\9388\e1\2023_7_27\sr5e1_l9388_freeosek\modules\drivers\system\gpio\include\gpio.h ****  *
 352:d:\project\9388\e1\2023_7_27\sr5e1_l9388_freeosek\modules\drivers\system\gpio\include\gpio.h ****  * @param[in]           unique pin identifier
 353:d:\project\9388\e1\2023_7_27\sr5e1_l9388_freeosek\modules\drivers\system\gpio\include\gpio.h ****  * @return              pin number; it can be one of the following values:
 354:d:\project\9388\e1\2023_7_27\sr5e1_l9388_freeosek\modules\drivers\system\gpio\include\gpio.h ****  *            @arg @ref GPIO_PIN_0
 355:d:\project\9388\e1\2023_7_27\sr5e1_l9388_freeosek\modules\drivers\system\gpio\include\gpio.h ****  *            @arg @ref GPIO_PIN_1
 356:d:\project\9388\e1\2023_7_27\sr5e1_l9388_freeosek\modules\drivers\system\gpio\include\gpio.h ****  *            @arg @ref GPIO_PIN_2
 357:d:\project\9388\e1\2023_7_27\sr5e1_l9388_freeosek\modules\drivers\system\gpio\include\gpio.h ****  *            @arg @ref GPIO_PIN_3
 358:d:\project\9388\e1\2023_7_27\sr5e1_l9388_freeosek\modules\drivers\system\gpio\include\gpio.h ****  *            @arg @ref GPIO_PIN_4
 359:d:\project\9388\e1\2023_7_27\sr5e1_l9388_freeosek\modules\drivers\system\gpio\include\gpio.h ****  *            @arg @ref GPIO_PIN_5
 360:d:\project\9388\e1\2023_7_27\sr5e1_l9388_freeosek\modules\drivers\system\gpio\include\gpio.h ****  *            @arg @ref GPIO_PIN_6
 361:d:\project\9388\e1\2023_7_27\sr5e1_l9388_freeosek\modules\drivers\system\gpio\include\gpio.h ****  *            @arg @ref GPIO_PIN_7
 362:d:\project\9388\e1\2023_7_27\sr5e1_l9388_freeosek\modules\drivers\system\gpio\include\gpio.h ****  *            @arg @ref GPIO_PIN_8
 363:d:\project\9388\e1\2023_7_27\sr5e1_l9388_freeosek\modules\drivers\system\gpio\include\gpio.h ****  *            @arg @ref GPIO_PIN_9
 364:d:\project\9388\e1\2023_7_27\sr5e1_l9388_freeosek\modules\drivers\system\gpio\include\gpio.h ****  *            @arg @ref GPIO_PIN_10
 365:d:\project\9388\e1\2023_7_27\sr5e1_l9388_freeosek\modules\drivers\system\gpio\include\gpio.h ****  *            @arg @ref GPIO_PIN_11
 366:d:\project\9388\e1\2023_7_27\sr5e1_l9388_freeosek\modules\drivers\system\gpio\include\gpio.h ****  *            @arg @ref GPIO_PIN_12
 367:d:\project\9388\e1\2023_7_27\sr5e1_l9388_freeosek\modules\drivers\system\gpio\include\gpio.h ****  *            @arg @ref GPIO_PIN_13
 368:d:\project\9388\e1\2023_7_27\sr5e1_l9388_freeosek\modules\drivers\system\gpio\include\gpio.h ****  *            @arg @ref GPIO_PIN_14
 369:d:\project\9388\e1\2023_7_27\sr5e1_l9388_freeosek\modules\drivers\system\gpio\include\gpio.h ****  *            @arg @ref GPIO_PIN_15
 370:d:\project\9388\e1\2023_7_27\sr5e1_l9388_freeosek\modules\drivers\system\gpio\include\gpio.h ****  *
 371:d:\project\9388\e1\2023_7_27\sr5e1_l9388_freeosek\modules\drivers\system\gpio\include\gpio.h ****  * @api
 372:d:\project\9388\e1\2023_7_27\sr5e1_l9388_freeosek\modules\drivers\system\gpio\include\gpio.h ****  */
 373:d:\project\9388\e1\2023_7_27\sr5e1_l9388_freeosek\modules\drivers\system\gpio\include\gpio.h **** #define gpio_iounpack_pin(_io_)                                                \
 374:d:\project\9388\e1\2023_7_27\sr5e1_l9388_freeosek\modules\drivers\system\gpio\include\gpio.h ****     ((gpio_pin_t)(((uint32_t)(_io_)) & 0x0FU));
 375:d:\project\9388\e1\2023_7_27\sr5e1_l9388_freeosek\modules\drivers\system\gpio\include\gpio.h **** 
 376:d:\project\9388\e1\2023_7_27\sr5e1_l9388_freeosek\modules\drivers\system\gpio\include\gpio.h **** /*===========================================================================*/
 377:d:\project\9388\e1\2023_7_27\sr5e1_l9388_freeosek\modules\drivers\system\gpio\include\gpio.h **** /* External declarations.                                                    */
 378:d:\project\9388\e1\2023_7_27\sr5e1_l9388_freeosek\modules\drivers\system\gpio\include\gpio.h **** /*===========================================================================*/
 379:d:\project\9388\e1\2023_7_27\sr5e1_l9388_freeosek\modules\drivers\system\gpio\include\gpio.h **** 
 380:d:\project\9388\e1\2023_7_27\sr5e1_l9388_freeosek\modules\drivers\system\gpio\include\gpio.h **** /* Export driver modules.*/
 381:d:\project\9388\e1\2023_7_27\sr5e1_l9388_freeosek\modules\drivers\system\gpio\include\gpio.h **** #include <gpio_dev.h>
 382:d:\project\9388\e1\2023_7_27\sr5e1_l9388_freeosek\modules\drivers\system\gpio\include\gpio.h **** 
 383:d:\project\9388\e1\2023_7_27\sr5e1_l9388_freeosek\modules\drivers\system\gpio\include\gpio.h **** #ifdef __cplusplus
 384:d:\project\9388\e1\2023_7_27\sr5e1_l9388_freeosek\modules\drivers\system\gpio\include\gpio.h **** extern "C" {
 385:d:\project\9388\e1\2023_7_27\sr5e1_l9388_freeosek\modules\drivers\system\gpio\include\gpio.h **** #endif
 386:d:\project\9388\e1\2023_7_27\sr5e1_l9388_freeosek\modules\drivers\system\gpio\include\gpio.h **** 
 387:d:\project\9388\e1\2023_7_27\sr5e1_l9388_freeosek\modules\drivers\system\gpio\include\gpio.h **** /**
 388:d:\project\9388\e1\2023_7_27\sr5e1_l9388_freeosek\modules\drivers\system\gpio\include\gpio.h ****  * @brief   Initializes GPIO instances.
 389:d:\project\9388\e1\2023_7_27\sr5e1_l9388_freeosek\modules\drivers\system\gpio\include\gpio.h ****  *
 390:d:\project\9388\e1\2023_7_27\sr5e1_l9388_freeosek\modules\drivers\system\gpio\include\gpio.h ****  * @api
 391:d:\project\9388\e1\2023_7_27\sr5e1_l9388_freeosek\modules\drivers\system\gpio\include\gpio.h ****  */
 392:d:\project\9388\e1\2023_7_27\sr5e1_l9388_freeosek\modules\drivers\system\gpio\include\gpio.h **** void gpio_init(void);
 393:d:\project\9388\e1\2023_7_27\sr5e1_l9388_freeosek\modules\drivers\system\gpio\include\gpio.h **** 
 394:d:\project\9388\e1\2023_7_27\sr5e1_l9388_freeosek\modules\drivers\system\gpio\include\gpio.h **** #ifdef __cplusplus
 395:d:\project\9388\e1\2023_7_27\sr5e1_l9388_freeosek\modules\drivers\system\gpio\include\gpio.h **** }
 396:d:\project\9388\e1\2023_7_27\sr5e1_l9388_freeosek\modules\drivers\system\gpio\include\gpio.h **** #endif
 397:d:\project\9388\e1\2023_7_27\sr5e1_l9388_freeosek\modules\drivers\system\gpio\include\gpio.h **** 
 398:d:\project\9388\e1\2023_7_27\sr5e1_l9388_freeosek\modules\drivers\system\gpio\include\gpio.h **** /*===========================================================================*/
 399:d:\project\9388\e1\2023_7_27\sr5e1_l9388_freeosek\modules\drivers\system\gpio\include\gpio.h **** /* Module inline functions.                                                  */
 400:d:\project\9388\e1\2023_7_27\sr5e1_l9388_freeosek\modules\drivers\system\gpio\include\gpio.h **** /*===========================================================================*/
 401:d:\project\9388\e1\2023_7_27\sr5e1_l9388_freeosek\modules\drivers\system\gpio\include\gpio.h **** 
 402:d:\project\9388\e1\2023_7_27\sr5e1_l9388_freeosek\modules\drivers\system\gpio\include\gpio.h **** /**
 403:d:\project\9388\e1\2023_7_27\sr5e1_l9388_freeosek\modules\drivers\system\gpio\include\gpio.h ****  * @brief   Sets Mode Register pin value.
 404:d:\project\9388\e1\2023_7_27\sr5e1_l9388_freeosek\modules\drivers\system\gpio\include\gpio.h ****  * @note    Sets Mode value of the pin related to the unique pin identifier.
 405:d:\project\9388\e1\2023_7_27\sr5e1_l9388_freeosek\modules\drivers\system\gpio\include\gpio.h ****  *
 406:d:\project\9388\e1\2023_7_27\sr5e1_l9388_freeosek\modules\drivers\system\gpio\include\gpio.h ****  * @param[in] io        unique pin identifier
 407:d:\project\9388\e1\2023_7_27\sr5e1_l9388_freeosek\modules\drivers\system\gpio\include\gpio.h ****  * @param[in] mode      mode value; it can be one of the following values:
 408:d:\project\9388\e1\2023_7_27\sr5e1_l9388_freeosek\modules\drivers\system\gpio\include\gpio.h ****  *            @arg @ref GPIO_MODER_INPUT
 409:d:\project\9388\e1\2023_7_27\sr5e1_l9388_freeosek\modules\drivers\system\gpio\include\gpio.h ****  *            @arg @ref GPIO_MODER_OUTPUT
 410:d:\project\9388\e1\2023_7_27\sr5e1_l9388_freeosek\modules\drivers\system\gpio\include\gpio.h ****  *            @arg @ref GPIO_MODER_ALTERNATE
 411:d:\project\9388\e1\2023_7_27\sr5e1_l9388_freeosek\modules\drivers\system\gpio\include\gpio.h ****  *            @arg @ref GPIO_MODER_ANALOG
 412:d:\project\9388\e1\2023_7_27\sr5e1_l9388_freeosek\modules\drivers\system\gpio\include\gpio.h ****  *
 413:d:\project\9388\e1\2023_7_27\sr5e1_l9388_freeosek\modules\drivers\system\gpio\include\gpio.h ****  * @api
 414:d:\project\9388\e1\2023_7_27\sr5e1_l9388_freeosek\modules\drivers\system\gpio\include\gpio.h ****  */
 415:d:\project\9388\e1\2023_7_27\sr5e1_l9388_freeosek\modules\drivers\system\gpio\include\gpio.h **** __STATIC_INLINE void gpio_set_pin_moder(gpio_io_t io,
 416:d:\project\9388\e1\2023_7_27\sr5e1_l9388_freeosek\modules\drivers\system\gpio\include\gpio.h ****                                         gpio_mode_t mode) {
  28              		.loc 1 416 59
  29              		.cfi_startproc
  30              		@ args = 0, pretend = 0, frame = 16
  31              		@ frame_needed = 0, uses_anonymous_args = 0
  32 0000 00B5     		push	{lr}
  33              		.cfi_def_cfa_offset 4
  34              		.cfi_offset 14, -4
  35 0002 85B0     		sub	sp, sp, #20
  36              		.cfi_def_cfa_offset 24
  37 0004 0346     		mov	r3, r0
  38 0006 0A46     		mov	r2, r1
  39 0008 ADF80630 		strh	r3, [sp, #6]	@ movhi
  40 000c 1346     		mov	r3, r2
  41 000e 8DF80530 		strb	r3, [sp, #5]
 417:d:\project\9388\e1\2023_7_27\sr5e1_l9388_freeosek\modules\drivers\system\gpio\include\gpio.h **** 
 418:d:\project\9388\e1\2023_7_27\sr5e1_l9388_freeosek\modules\drivers\system\gpio\include\gpio.h **** 
 419:d:\project\9388\e1\2023_7_27\sr5e1_l9388_freeosek\modules\drivers\system\gpio\include\gpio.h ****     gpio_port_t port = gpio_iounpack_port(io);
  42              		.loc 1 419 24
  43 0012 BDF80630 		ldrh	r3, [sp, #6]
  44 0016 1B09     		lsrs	r3, r3, #4
  45 0018 9BB2     		uxth	r3, r3
  46              		.loc 1 419 17
  47 001a 8DF80F30 		strb	r3, [sp, #15]
 420:d:\project\9388\e1\2023_7_27\sr5e1_l9388_freeosek\modules\drivers\system\gpio\include\gpio.h ****     gpio_pin_t pin   = gpio_iounpack_pin(io);
  48              		.loc 1 420 24
  49 001e BDF80630 		ldrh	r3, [sp, #6]	@ movhi
  50 0022 DBB2     		uxtb	r3, r3
  51              		.loc 1 420 16
  52 0024 03F00F03 		and	r3, r3, #15
  53 0028 8DF80E30 		strb	r3, [sp, #14]
 421:d:\project\9388\e1\2023_7_27\sr5e1_l9388_freeosek\modules\drivers\system\gpio\include\gpio.h ****     GPIO_TypeDef *p  = gpio_dev_get_port_reg_ptr(port);
  54              		.loc 1 421 24
  55 002c 9DF80F30 		ldrb	r3, [sp, #15]	@ zero_extendqisi2
  56 0030 1846     		mov	r0, r3
  57 0032 FFF7FEFF 		bl	gpio_dev_get_port_reg_ptr
  58 0036 0290     		str	r0, [sp, #8]
 422:d:\project\9388\e1\2023_7_27\sr5e1_l9388_freeosek\modules\drivers\system\gpio\include\gpio.h **** 
 423:d:\project\9388\e1\2023_7_27\sr5e1_l9388_freeosek\modules\drivers\system\gpio\include\gpio.h ****     if (p != NULL) {
  59              		.loc 1 423 8
  60 0038 029B     		ldr	r3, [sp, #8]
  61 003a 002B     		cmp	r3, #0
  62 003c 19D0     		beq	.L3
 424:d:\project\9388\e1\2023_7_27\sr5e1_l9388_freeosek\modules\drivers\system\gpio\include\gpio.h ****         p->MODER &= (uint32_t)(~(0x3U << (2 * pin)));
  63              		.loc 1 424 18
  64 003e 029B     		ldr	r3, [sp, #8]
  65 0040 1A68     		ldr	r2, [r3]
  66              		.loc 1 424 45
  67 0042 9DF80E30 		ldrb	r3, [sp, #14]	@ zero_extendqisi2
  68 0046 5B00     		lsls	r3, r3, #1
  69              		.loc 1 424 39
  70 0048 0321     		movs	r1, #3
  71 004a 01FA03F3 		lsl	r3, r1, r3
  72              		.loc 1 424 32
  73 004e DB43     		mvns	r3, r3
  74              		.loc 1 424 18
  75 0050 1A40     		ands	r2, r2, r3
  76 0052 029B     		ldr	r3, [sp, #8]
  77 0054 1A60     		str	r2, [r3]
 425:d:\project\9388\e1\2023_7_27\sr5e1_l9388_freeosek\modules\drivers\system\gpio\include\gpio.h ****         p->MODER |= (uint32_t)((mode & 0x3U) << (2 * pin));
  78              		.loc 1 425 18
  79 0056 029B     		ldr	r3, [sp, #8]
  80 0058 1A68     		ldr	r2, [r3]
  81              		.loc 1 425 38
  82 005a 9DF80530 		ldrb	r3, [sp, #5]	@ zero_extendqisi2
  83 005e 03F00301 		and	r1, r3, #3
  84              		.loc 1 425 52
  85 0062 9DF80E30 		ldrb	r3, [sp, #14]	@ zero_extendqisi2
  86 0066 5B00     		lsls	r3, r3, #1
  87              		.loc 1 425 46
  88 0068 01FA03F3 		lsl	r3, r1, r3
  89              		.loc 1 425 18
  90 006c 1A43     		orrs	r2, r2, r3
  91 006e 029B     		ldr	r3, [sp, #8]
  92 0070 1A60     		str	r2, [r3]
  93              	.L3:
 426:d:\project\9388\e1\2023_7_27\sr5e1_l9388_freeosek\modules\drivers\system\gpio\include\gpio.h ****     }
 427:d:\project\9388\e1\2023_7_27\sr5e1_l9388_freeosek\modules\drivers\system\gpio\include\gpio.h **** }
  94              		.loc 1 427 1
  95 0072 00BF     		nop
  96 0074 05B0     		add	sp, sp, #20
  97              		.cfi_def_cfa_offset 4
  98              		@ sp needed
  99 0076 5DF804FB 		ldr	pc, [sp], #4
 100              		.cfi_endproc
 101              	.LFE396:
 103 007a 00BF     		.section	.text.gpio_set_pin_otyper,"ax",%progbits
 104              		.align	1
 105              		.p2align 4,,15
 106              		.syntax unified
 107              		.thumb
 108              		.thumb_func
 110              	gpio_set_pin_otyper:
 111              	.LFB397:
 428:d:\project\9388\e1\2023_7_27\sr5e1_l9388_freeosek\modules\drivers\system\gpio\include\gpio.h **** 
 429:d:\project\9388\e1\2023_7_27\sr5e1_l9388_freeosek\modules\drivers\system\gpio\include\gpio.h **** /**
 430:d:\project\9388\e1\2023_7_27\sr5e1_l9388_freeosek\modules\drivers\system\gpio\include\gpio.h ****  * @brief   Sets Output Type pin value.
 431:d:\project\9388\e1\2023_7_27\sr5e1_l9388_freeosek\modules\drivers\system\gpio\include\gpio.h ****  * @note    Sets Output Type value of the pin related to the unique pin
 432:d:\project\9388\e1\2023_7_27\sr5e1_l9388_freeosek\modules\drivers\system\gpio\include\gpio.h ****  *          identifier.
 433:d:\project\9388\e1\2023_7_27\sr5e1_l9388_freeosek\modules\drivers\system\gpio\include\gpio.h ****  *
 434:d:\project\9388\e1\2023_7_27\sr5e1_l9388_freeosek\modules\drivers\system\gpio\include\gpio.h ****  * @param[in] io        unique pin identifier
 435:d:\project\9388\e1\2023_7_27\sr5e1_l9388_freeosek\modules\drivers\system\gpio\include\gpio.h ****  * @param[in] otype     output type value; it can be one of the following
 436:d:\project\9388\e1\2023_7_27\sr5e1_l9388_freeosek\modules\drivers\system\gpio\include\gpio.h ****  *                      values:
 437:d:\project\9388\e1\2023_7_27\sr5e1_l9388_freeosek\modules\drivers\system\gpio\include\gpio.h ****  *            @arg @ref GPIO_OTYPER_PUSHPULL
 438:d:\project\9388\e1\2023_7_27\sr5e1_l9388_freeosek\modules\drivers\system\gpio\include\gpio.h ****  *            @arg @ref GPIO_OTYPER_OPENDRAIN
 439:d:\project\9388\e1\2023_7_27\sr5e1_l9388_freeosek\modules\drivers\system\gpio\include\gpio.h ****  *
 440:d:\project\9388\e1\2023_7_27\sr5e1_l9388_freeosek\modules\drivers\system\gpio\include\gpio.h ****  * @api
 441:d:\project\9388\e1\2023_7_27\sr5e1_l9388_freeosek\modules\drivers\system\gpio\include\gpio.h ****  */
 442:d:\project\9388\e1\2023_7_27\sr5e1_l9388_freeosek\modules\drivers\system\gpio\include\gpio.h **** __STATIC_INLINE void gpio_set_pin_otyper(gpio_io_t io,
 443:d:\project\9388\e1\2023_7_27\sr5e1_l9388_freeosek\modules\drivers\system\gpio\include\gpio.h ****                                          gpio_otype_t otype) {
 112              		.loc 1 443 62
 113              		.cfi_startproc
 114              		@ args = 0, pretend = 0, frame = 16
 115              		@ frame_needed = 0, uses_anonymous_args = 0
 116 0000 00B5     		push	{lr}
 117              		.cfi_def_cfa_offset 4
 118              		.cfi_offset 14, -4
 119 0002 85B0     		sub	sp, sp, #20
 120              		.cfi_def_cfa_offset 24
 121 0004 0346     		mov	r3, r0
 122 0006 0A46     		mov	r2, r1
 123 0008 ADF80630 		strh	r3, [sp, #6]	@ movhi
 124 000c 1346     		mov	r3, r2
 125 000e 8DF80530 		strb	r3, [sp, #5]
 444:d:\project\9388\e1\2023_7_27\sr5e1_l9388_freeosek\modules\drivers\system\gpio\include\gpio.h **** 
 445:d:\project\9388\e1\2023_7_27\sr5e1_l9388_freeosek\modules\drivers\system\gpio\include\gpio.h ****     gpio_port_t port = gpio_iounpack_port(io);
 126              		.loc 1 445 24
 127 0012 BDF80630 		ldrh	r3, [sp, #6]
 128 0016 1B09     		lsrs	r3, r3, #4
 129 0018 9BB2     		uxth	r3, r3
 130              		.loc 1 445 17
 131 001a 8DF80F30 		strb	r3, [sp, #15]
 446:d:\project\9388\e1\2023_7_27\sr5e1_l9388_freeosek\modules\drivers\system\gpio\include\gpio.h ****     gpio_pin_t pin   = gpio_iounpack_pin(io);
 132              		.loc 1 446 24
 133 001e BDF80630 		ldrh	r3, [sp, #6]	@ movhi
 134 0022 DBB2     		uxtb	r3, r3
 135              		.loc 1 446 16
 136 0024 03F00F03 		and	r3, r3, #15
 137 0028 8DF80E30 		strb	r3, [sp, #14]
 447:d:\project\9388\e1\2023_7_27\sr5e1_l9388_freeosek\modules\drivers\system\gpio\include\gpio.h ****     GPIO_TypeDef *p  = gpio_dev_get_port_reg_ptr(port);
 138              		.loc 1 447 24
 139 002c 9DF80F30 		ldrb	r3, [sp, #15]	@ zero_extendqisi2
 140 0030 1846     		mov	r0, r3
 141 0032 FFF7FEFF 		bl	gpio_dev_get_port_reg_ptr
 142 0036 0290     		str	r0, [sp, #8]
 448:d:\project\9388\e1\2023_7_27\sr5e1_l9388_freeosek\modules\drivers\system\gpio\include\gpio.h **** 
 449:d:\project\9388\e1\2023_7_27\sr5e1_l9388_freeosek\modules\drivers\system\gpio\include\gpio.h ****     if (p != NULL) {
 143              		.loc 1 449 8
 144 0038 029B     		ldr	r3, [sp, #8]
 145 003a 002B     		cmp	r3, #0
 146 003c 17D0     		beq	.L6
 450:d:\project\9388\e1\2023_7_27\sr5e1_l9388_freeosek\modules\drivers\system\gpio\include\gpio.h ****         p->OTYPER &= (uint32_t)((~(0x1U << pin)));
 147              		.loc 1 450 19
 148 003e 029B     		ldr	r3, [sp, #8]
 149 0040 5A68     		ldr	r2, [r3, #4]
 150              		.loc 1 450 41
 151 0042 9DF80E30 		ldrb	r3, [sp, #14]	@ zero_extendqisi2
 152 0046 0121     		movs	r1, #1
 153 0048 01FA03F3 		lsl	r3, r1, r3
 154              		.loc 1 450 34
 155 004c DB43     		mvns	r3, r3
 156              		.loc 1 450 19
 157 004e 1A40     		ands	r2, r2, r3
 158 0050 029B     		ldr	r3, [sp, #8]
 159 0052 5A60     		str	r2, [r3, #4]
 451:d:\project\9388\e1\2023_7_27\sr5e1_l9388_freeosek\modules\drivers\system\gpio\include\gpio.h ****         p->OTYPER |= (uint32_t)((otype & 0x1U) << pin);
 160              		.loc 1 451 19
 161 0054 029B     		ldr	r3, [sp, #8]
 162 0056 5A68     		ldr	r2, [r3, #4]
 163              		.loc 1 451 40
 164 0058 9DF80530 		ldrb	r3, [sp, #5]	@ zero_extendqisi2
 165 005c 03F00101 		and	r1, r3, #1
 166              		.loc 1 451 22
 167 0060 9DF80E30 		ldrb	r3, [sp, #14]	@ zero_extendqisi2
 168              		.loc 1 451 48
 169 0064 01FA03F3 		lsl	r3, r1, r3
 170              		.loc 1 451 19
 171 0068 1A43     		orrs	r2, r2, r3
 172 006a 029B     		ldr	r3, [sp, #8]
 173 006c 5A60     		str	r2, [r3, #4]
 174              	.L6:
 452:d:\project\9388\e1\2023_7_27\sr5e1_l9388_freeosek\modules\drivers\system\gpio\include\gpio.h ****     }
 453:d:\project\9388\e1\2023_7_27\sr5e1_l9388_freeosek\modules\drivers\system\gpio\include\gpio.h **** }
 175              		.loc 1 453 1
 176 006e 00BF     		nop
 177 0070 05B0     		add	sp, sp, #20
 178              		.cfi_def_cfa_offset 4
 179              		@ sp needed
 180 0072 5DF804FB 		ldr	pc, [sp], #4
 181              		.cfi_endproc
 182              	.LFE397:
 184 0076 00BF     		.section	.text.gpio_set_pin_ospeedr,"ax",%progbits
 185              		.align	1
 186              		.p2align 4,,15
 187              		.syntax unified
 188              		.thumb
 189              		.thumb_func
 191              	gpio_set_pin_ospeedr:
 192              	.LFB398:
 454:d:\project\9388\e1\2023_7_27\sr5e1_l9388_freeosek\modules\drivers\system\gpio\include\gpio.h **** 
 455:d:\project\9388\e1\2023_7_27\sr5e1_l9388_freeosek\modules\drivers\system\gpio\include\gpio.h **** /**
 456:d:\project\9388\e1\2023_7_27\sr5e1_l9388_freeosek\modules\drivers\system\gpio\include\gpio.h ****  * @brief   Sets Output Speed pin value.
 457:d:\project\9388\e1\2023_7_27\sr5e1_l9388_freeosek\modules\drivers\system\gpio\include\gpio.h ****  * @note    Sets Output Speed value of the pin related to the unique pin
 458:d:\project\9388\e1\2023_7_27\sr5e1_l9388_freeosek\modules\drivers\system\gpio\include\gpio.h ****  *          identifier.
 459:d:\project\9388\e1\2023_7_27\sr5e1_l9388_freeosek\modules\drivers\system\gpio\include\gpio.h ****  *
 460:d:\project\9388\e1\2023_7_27\sr5e1_l9388_freeosek\modules\drivers\system\gpio\include\gpio.h ****  * @param[in] io        unique pin identifier
 461:d:\project\9388\e1\2023_7_27\sr5e1_l9388_freeosek\modules\drivers\system\gpio\include\gpio.h ****  * @param[in] ospeed    output speed value; it can be one of the following
 462:d:\project\9388\e1\2023_7_27\sr5e1_l9388_freeosek\modules\drivers\system\gpio\include\gpio.h ****  *                      values:
 463:d:\project\9388\e1\2023_7_27\sr5e1_l9388_freeosek\modules\drivers\system\gpio\include\gpio.h ****  *            @arg @ref GPIO_OSPEEDR_LOW
 464:d:\project\9388\e1\2023_7_27\sr5e1_l9388_freeosek\modules\drivers\system\gpio\include\gpio.h ****  *            @arg @ref GPIO_OSPEEDR_MEDIUM
 465:d:\project\9388\e1\2023_7_27\sr5e1_l9388_freeosek\modules\drivers\system\gpio\include\gpio.h ****  *            @arg @ref GPIO_OSPEEDR_HIGH
 466:d:\project\9388\e1\2023_7_27\sr5e1_l9388_freeosek\modules\drivers\system\gpio\include\gpio.h ****  *            @arg @ref GPIO_OSPEEDR_VERYHIGH
 467:d:\project\9388\e1\2023_7_27\sr5e1_l9388_freeosek\modules\drivers\system\gpio\include\gpio.h ****  *
 468:d:\project\9388\e1\2023_7_27\sr5e1_l9388_freeosek\modules\drivers\system\gpio\include\gpio.h ****  * @api
 469:d:\project\9388\e1\2023_7_27\sr5e1_l9388_freeosek\modules\drivers\system\gpio\include\gpio.h ****  */
 470:d:\project\9388\e1\2023_7_27\sr5e1_l9388_freeosek\modules\drivers\system\gpio\include\gpio.h **** __STATIC_INLINE void gpio_set_pin_ospeedr(gpio_io_t io,
 471:d:\project\9388\e1\2023_7_27\sr5e1_l9388_freeosek\modules\drivers\system\gpio\include\gpio.h ****                                           gpio_ospeed_t ospeed) {
 193              		.loc 1 471 65
 194              		.cfi_startproc
 195              		@ args = 0, pretend = 0, frame = 16
 196              		@ frame_needed = 0, uses_anonymous_args = 0
 197 0000 00B5     		push	{lr}
 198              		.cfi_def_cfa_offset 4
 199              		.cfi_offset 14, -4
 200 0002 85B0     		sub	sp, sp, #20
 201              		.cfi_def_cfa_offset 24
 202 0004 0346     		mov	r3, r0
 203 0006 0A46     		mov	r2, r1
 204 0008 ADF80630 		strh	r3, [sp, #6]	@ movhi
 205 000c 1346     		mov	r3, r2
 206 000e 8DF80530 		strb	r3, [sp, #5]
 472:d:\project\9388\e1\2023_7_27\sr5e1_l9388_freeosek\modules\drivers\system\gpio\include\gpio.h **** 
 473:d:\project\9388\e1\2023_7_27\sr5e1_l9388_freeosek\modules\drivers\system\gpio\include\gpio.h ****     gpio_port_t port = gpio_iounpack_port(io);
 207              		.loc 1 473 24
 208 0012 BDF80630 		ldrh	r3, [sp, #6]
 209 0016 1B09     		lsrs	r3, r3, #4
 210 0018 9BB2     		uxth	r3, r3
 211              		.loc 1 473 17
 212 001a 8DF80F30 		strb	r3, [sp, #15]
 474:d:\project\9388\e1\2023_7_27\sr5e1_l9388_freeosek\modules\drivers\system\gpio\include\gpio.h ****     gpio_pin_t pin   = gpio_iounpack_pin(io);
 213              		.loc 1 474 24
 214 001e BDF80630 		ldrh	r3, [sp, #6]	@ movhi
 215 0022 DBB2     		uxtb	r3, r3
 216              		.loc 1 474 16
 217 0024 03F00F03 		and	r3, r3, #15
 218 0028 8DF80E30 		strb	r3, [sp, #14]
 475:d:\project\9388\e1\2023_7_27\sr5e1_l9388_freeosek\modules\drivers\system\gpio\include\gpio.h ****     GPIO_TypeDef *p  = gpio_dev_get_port_reg_ptr(port);
 219              		.loc 1 475 24
 220 002c 9DF80F30 		ldrb	r3, [sp, #15]	@ zero_extendqisi2
 221 0030 1846     		mov	r0, r3
 222 0032 FFF7FEFF 		bl	gpio_dev_get_port_reg_ptr
 223 0036 0290     		str	r0, [sp, #8]
 476:d:\project\9388\e1\2023_7_27\sr5e1_l9388_freeosek\modules\drivers\system\gpio\include\gpio.h **** 
 477:d:\project\9388\e1\2023_7_27\sr5e1_l9388_freeosek\modules\drivers\system\gpio\include\gpio.h ****     if (p != NULL) {
 224              		.loc 1 477 8
 225 0038 029B     		ldr	r3, [sp, #8]
 226 003a 002B     		cmp	r3, #0
 227 003c 19D0     		beq	.L9
 478:d:\project\9388\e1\2023_7_27\sr5e1_l9388_freeosek\modules\drivers\system\gpio\include\gpio.h ****         p->OSPEEDR &= (uint32_t)(~(0x3U << (2 * pin)));
 228              		.loc 1 478 20
 229 003e 029B     		ldr	r3, [sp, #8]
 230 0040 9A68     		ldr	r2, [r3, #8]
 231              		.loc 1 478 47
 232 0042 9DF80E30 		ldrb	r3, [sp, #14]	@ zero_extendqisi2
 233 0046 5B00     		lsls	r3, r3, #1
 234              		.loc 1 478 41
 235 0048 0321     		movs	r1, #3
 236 004a 01FA03F3 		lsl	r3, r1, r3
 237              		.loc 1 478 34
 238 004e DB43     		mvns	r3, r3
 239              		.loc 1 478 20
 240 0050 1A40     		ands	r2, r2, r3
 241 0052 029B     		ldr	r3, [sp, #8]
 242 0054 9A60     		str	r2, [r3, #8]
 479:d:\project\9388\e1\2023_7_27\sr5e1_l9388_freeosek\modules\drivers\system\gpio\include\gpio.h ****         p->OSPEEDR |= (uint32_t)((ospeed & 0x3U) << (2 * pin));
 243              		.loc 1 479 20
 244 0056 029B     		ldr	r3, [sp, #8]
 245 0058 9A68     		ldr	r2, [r3, #8]
 246              		.loc 1 479 42
 247 005a 9DF80530 		ldrb	r3, [sp, #5]	@ zero_extendqisi2
 248 005e 03F00301 		and	r1, r3, #3
 249              		.loc 1 479 56
 250 0062 9DF80E30 		ldrb	r3, [sp, #14]	@ zero_extendqisi2
 251 0066 5B00     		lsls	r3, r3, #1
 252              		.loc 1 479 50
 253 0068 01FA03F3 		lsl	r3, r1, r3
 254              		.loc 1 479 20
 255 006c 1A43     		orrs	r2, r2, r3
 256 006e 029B     		ldr	r3, [sp, #8]
 257 0070 9A60     		str	r2, [r3, #8]
 258              	.L9:
 480:d:\project\9388\e1\2023_7_27\sr5e1_l9388_freeosek\modules\drivers\system\gpio\include\gpio.h ****     }
 481:d:\project\9388\e1\2023_7_27\sr5e1_l9388_freeosek\modules\drivers\system\gpio\include\gpio.h **** }
 259              		.loc 1 481 1
 260 0072 00BF     		nop
 261 0074 05B0     		add	sp, sp, #20
 262              		.cfi_def_cfa_offset 4
 263              		@ sp needed
 264 0076 5DF804FB 		ldr	pc, [sp], #4
 265              		.cfi_endproc
 266              	.LFE398:
 268 007a 00BF     		.section	.text.gpio_set_pin_pupdr,"ax",%progbits
 269              		.align	1
 270              		.p2align 4,,15
 271              		.syntax unified
 272              		.thumb
 273              		.thumb_func
 275              	gpio_set_pin_pupdr:
 276              	.LFB399:
 482:d:\project\9388\e1\2023_7_27\sr5e1_l9388_freeosek\modules\drivers\system\gpio\include\gpio.h **** 
 483:d:\project\9388\e1\2023_7_27\sr5e1_l9388_freeosek\modules\drivers\system\gpio\include\gpio.h **** /**
 484:d:\project\9388\e1\2023_7_27\sr5e1_l9388_freeosek\modules\drivers\system\gpio\include\gpio.h ****  * @brief   Sets Pull-up/Pull-down pin value.
 485:d:\project\9388\e1\2023_7_27\sr5e1_l9388_freeosek\modules\drivers\system\gpio\include\gpio.h ****  * @note    Sets Pull-up/Pull-down value of the pin related to the unique pin
 486:d:\project\9388\e1\2023_7_27\sr5e1_l9388_freeosek\modules\drivers\system\gpio\include\gpio.h ****  *          identifier.
 487:d:\project\9388\e1\2023_7_27\sr5e1_l9388_freeosek\modules\drivers\system\gpio\include\gpio.h ****  *
 488:d:\project\9388\e1\2023_7_27\sr5e1_l9388_freeosek\modules\drivers\system\gpio\include\gpio.h ****  * @param[in] io        unique pin identifier
 489:d:\project\9388\e1\2023_7_27\sr5e1_l9388_freeosek\modules\drivers\system\gpio\include\gpio.h ****  * @param[in] pupd      pull-up/pull-down value; it can be one of the following
 490:d:\project\9388\e1\2023_7_27\sr5e1_l9388_freeosek\modules\drivers\system\gpio\include\gpio.h ****  *                      values:
 491:d:\project\9388\e1\2023_7_27\sr5e1_l9388_freeosek\modules\drivers\system\gpio\include\gpio.h ****  *            @arg @ref GPIO_PUPDR_FLOATING
 492:d:\project\9388\e1\2023_7_27\sr5e1_l9388_freeosek\modules\drivers\system\gpio\include\gpio.h ****  *            @arg @ref GPIO_PUPDR_PULLUP
 493:d:\project\9388\e1\2023_7_27\sr5e1_l9388_freeosek\modules\drivers\system\gpio\include\gpio.h ****  *            @arg @ref GPIO_PUPDR_PULLDOWN
 494:d:\project\9388\e1\2023_7_27\sr5e1_l9388_freeosek\modules\drivers\system\gpio\include\gpio.h ****  *
 495:d:\project\9388\e1\2023_7_27\sr5e1_l9388_freeosek\modules\drivers\system\gpio\include\gpio.h ****  * @api
 496:d:\project\9388\e1\2023_7_27\sr5e1_l9388_freeosek\modules\drivers\system\gpio\include\gpio.h ****  */
 497:d:\project\9388\e1\2023_7_27\sr5e1_l9388_freeosek\modules\drivers\system\gpio\include\gpio.h **** __STATIC_INLINE void gpio_set_pin_pupdr(gpio_io_t io,
 498:d:\project\9388\e1\2023_7_27\sr5e1_l9388_freeosek\modules\drivers\system\gpio\include\gpio.h ****                                         gpio_pupd_t pupd) {
 277              		.loc 1 498 59
 278              		.cfi_startproc
 279              		@ args = 0, pretend = 0, frame = 16
 280              		@ frame_needed = 0, uses_anonymous_args = 0
 281 0000 00B5     		push	{lr}
 282              		.cfi_def_cfa_offset 4
 283              		.cfi_offset 14, -4
 284 0002 85B0     		sub	sp, sp, #20
 285              		.cfi_def_cfa_offset 24
 286 0004 0346     		mov	r3, r0
 287 0006 0A46     		mov	r2, r1
 288 0008 ADF80630 		strh	r3, [sp, #6]	@ movhi
 289 000c 1346     		mov	r3, r2
 290 000e 8DF80530 		strb	r3, [sp, #5]
 499:d:\project\9388\e1\2023_7_27\sr5e1_l9388_freeosek\modules\drivers\system\gpio\include\gpio.h **** 
 500:d:\project\9388\e1\2023_7_27\sr5e1_l9388_freeosek\modules\drivers\system\gpio\include\gpio.h ****     gpio_port_t port = gpio_iounpack_port(io);
 291              		.loc 1 500 24
 292 0012 BDF80630 		ldrh	r3, [sp, #6]
 293 0016 1B09     		lsrs	r3, r3, #4
 294 0018 9BB2     		uxth	r3, r3
 295              		.loc 1 500 17
 296 001a 8DF80F30 		strb	r3, [sp, #15]
 501:d:\project\9388\e1\2023_7_27\sr5e1_l9388_freeosek\modules\drivers\system\gpio\include\gpio.h ****     gpio_pin_t pin   = gpio_iounpack_pin(io);
 297              		.loc 1 501 24
 298 001e BDF80630 		ldrh	r3, [sp, #6]	@ movhi
 299 0022 DBB2     		uxtb	r3, r3
 300              		.loc 1 501 16
 301 0024 03F00F03 		and	r3, r3, #15
 302 0028 8DF80E30 		strb	r3, [sp, #14]
 502:d:\project\9388\e1\2023_7_27\sr5e1_l9388_freeosek\modules\drivers\system\gpio\include\gpio.h ****     GPIO_TypeDef *p  = gpio_dev_get_port_reg_ptr(port);
 303              		.loc 1 502 24
 304 002c 9DF80F30 		ldrb	r3, [sp, #15]	@ zero_extendqisi2
 305 0030 1846     		mov	r0, r3
 306 0032 FFF7FEFF 		bl	gpio_dev_get_port_reg_ptr
 307 0036 0290     		str	r0, [sp, #8]
 503:d:\project\9388\e1\2023_7_27\sr5e1_l9388_freeosek\modules\drivers\system\gpio\include\gpio.h **** 
 504:d:\project\9388\e1\2023_7_27\sr5e1_l9388_freeosek\modules\drivers\system\gpio\include\gpio.h ****     if (p != NULL) {
 308              		.loc 1 504 8
 309 0038 029B     		ldr	r3, [sp, #8]
 310 003a 002B     		cmp	r3, #0
 311 003c 19D0     		beq	.L12
 505:d:\project\9388\e1\2023_7_27\sr5e1_l9388_freeosek\modules\drivers\system\gpio\include\gpio.h ****         p->PUPDR &= (uint32_t)((~(0x3U << (2 * pin))));
 312              		.loc 1 505 18
 313 003e 029B     		ldr	r3, [sp, #8]
 314 0040 DA68     		ldr	r2, [r3, #12]
 315              		.loc 1 505 46
 316 0042 9DF80E30 		ldrb	r3, [sp, #14]	@ zero_extendqisi2
 317 0046 5B00     		lsls	r3, r3, #1
 318              		.loc 1 505 40
 319 0048 0321     		movs	r1, #3
 320 004a 01FA03F3 		lsl	r3, r1, r3
 321              		.loc 1 505 33
 322 004e DB43     		mvns	r3, r3
 323              		.loc 1 505 18
 324 0050 1A40     		ands	r2, r2, r3
 325 0052 029B     		ldr	r3, [sp, #8]
 326 0054 DA60     		str	r2, [r3, #12]
 506:d:\project\9388\e1\2023_7_27\sr5e1_l9388_freeosek\modules\drivers\system\gpio\include\gpio.h ****         p->PUPDR |= (uint32_t)((pupd & 0x3U) << (2 * pin));
 327              		.loc 1 506 18
 328 0056 029B     		ldr	r3, [sp, #8]
 329 0058 DA68     		ldr	r2, [r3, #12]
 330              		.loc 1 506 38
 331 005a 9DF80530 		ldrb	r3, [sp, #5]	@ zero_extendqisi2
 332 005e 03F00301 		and	r1, r3, #3
 333              		.loc 1 506 52
 334 0062 9DF80E30 		ldrb	r3, [sp, #14]	@ zero_extendqisi2
 335 0066 5B00     		lsls	r3, r3, #1
 336              		.loc 1 506 46
 337 0068 01FA03F3 		lsl	r3, r1, r3
 338              		.loc 1 506 18
 339 006c 1A43     		orrs	r2, r2, r3
 340 006e 029B     		ldr	r3, [sp, #8]
 341 0070 DA60     		str	r2, [r3, #12]
 342              	.L12:
 507:d:\project\9388\e1\2023_7_27\sr5e1_l9388_freeosek\modules\drivers\system\gpio\include\gpio.h ****     }
 508:d:\project\9388\e1\2023_7_27\sr5e1_l9388_freeosek\modules\drivers\system\gpio\include\gpio.h **** }
 343              		.loc 1 508 1
 344 0072 00BF     		nop
 345 0074 05B0     		add	sp, sp, #20
 346              		.cfi_def_cfa_offset 4
 347              		@ sp needed
 348 0076 5DF804FB 		ldr	pc, [sp], #4
 349              		.cfi_endproc
 350              	.LFE399:
 352 007a 00BF     		.section	.text.gpio_set_pin_afr,"ax",%progbits
 353              		.align	1
 354              		.p2align 4,,15
 355              		.syntax unified
 356              		.thumb
 357              		.thumb_func
 359              	gpio_set_pin_afr:
 360              	.LFB401:
 509:d:\project\9388\e1\2023_7_27\sr5e1_l9388_freeosek\modules\drivers\system\gpio\include\gpio.h **** 
 510:d:\project\9388\e1\2023_7_27\sr5e1_l9388_freeosek\modules\drivers\system\gpio\include\gpio.h **** /**
 511:d:\project\9388\e1\2023_7_27\sr5e1_l9388_freeosek\modules\drivers\system\gpio\include\gpio.h ****  * @brief   Sets Output Data pin value.
 512:d:\project\9388\e1\2023_7_27\sr5e1_l9388_freeosek\modules\drivers\system\gpio\include\gpio.h ****  * @note    Sets Output Data value of the pin related to the unique pin
 513:d:\project\9388\e1\2023_7_27\sr5e1_l9388_freeosek\modules\drivers\system\gpio\include\gpio.h ****  *          identifier.
 514:d:\project\9388\e1\2023_7_27\sr5e1_l9388_freeosek\modules\drivers\system\gpio\include\gpio.h ****  *
 515:d:\project\9388\e1\2023_7_27\sr5e1_l9388_freeosek\modules\drivers\system\gpio\include\gpio.h ****  * @param[in] io        unique pin identifier
 516:d:\project\9388\e1\2023_7_27\sr5e1_l9388_freeosek\modules\drivers\system\gpio\include\gpio.h ****  * @param[in] od        output data value; it can be one of the following
 517:d:\project\9388\e1\2023_7_27\sr5e1_l9388_freeosek\modules\drivers\system\gpio\include\gpio.h ****  *                      values:
 518:d:\project\9388\e1\2023_7_27\sr5e1_l9388_freeosek\modules\drivers\system\gpio\include\gpio.h ****  *            @arg @ref GPIO_ODR_LOW
 519:d:\project\9388\e1\2023_7_27\sr5e1_l9388_freeosek\modules\drivers\system\gpio\include\gpio.h ****  *            @arg @ref GPIO_ODR_HIGH
 520:d:\project\9388\e1\2023_7_27\sr5e1_l9388_freeosek\modules\drivers\system\gpio\include\gpio.h ****  *
 521:d:\project\9388\e1\2023_7_27\sr5e1_l9388_freeosek\modules\drivers\system\gpio\include\gpio.h ****  * @api
 522:d:\project\9388\e1\2023_7_27\sr5e1_l9388_freeosek\modules\drivers\system\gpio\include\gpio.h ****  */
 523:d:\project\9388\e1\2023_7_27\sr5e1_l9388_freeosek\modules\drivers\system\gpio\include\gpio.h **** __STATIC_INLINE void gpio_set_pin_odr(gpio_io_t io,
 524:d:\project\9388\e1\2023_7_27\sr5e1_l9388_freeosek\modules\drivers\system\gpio\include\gpio.h ****                                       gpio_od_t od) {
 525:d:\project\9388\e1\2023_7_27\sr5e1_l9388_freeosek\modules\drivers\system\gpio\include\gpio.h **** 
 526:d:\project\9388\e1\2023_7_27\sr5e1_l9388_freeosek\modules\drivers\system\gpio\include\gpio.h ****     gpio_port_t port = gpio_iounpack_port(io);
 527:d:\project\9388\e1\2023_7_27\sr5e1_l9388_freeosek\modules\drivers\system\gpio\include\gpio.h ****     gpio_pin_t pin   = gpio_iounpack_pin(io);
 528:d:\project\9388\e1\2023_7_27\sr5e1_l9388_freeosek\modules\drivers\system\gpio\include\gpio.h ****     GPIO_TypeDef *p  = gpio_dev_get_port_reg_ptr(port);
 529:d:\project\9388\e1\2023_7_27\sr5e1_l9388_freeosek\modules\drivers\system\gpio\include\gpio.h **** 
 530:d:\project\9388\e1\2023_7_27\sr5e1_l9388_freeosek\modules\drivers\system\gpio\include\gpio.h ****     if (p != NULL) {
 531:d:\project\9388\e1\2023_7_27\sr5e1_l9388_freeosek\modules\drivers\system\gpio\include\gpio.h ****         p->ODR &= (uint32_t)((~(0x1U << pin)));
 532:d:\project\9388\e1\2023_7_27\sr5e1_l9388_freeosek\modules\drivers\system\gpio\include\gpio.h ****         p->ODR |= (uint32_t)((od & 0x1U) << pin);
 533:d:\project\9388\e1\2023_7_27\sr5e1_l9388_freeosek\modules\drivers\system\gpio\include\gpio.h ****     }
 534:d:\project\9388\e1\2023_7_27\sr5e1_l9388_freeosek\modules\drivers\system\gpio\include\gpio.h **** }
 535:d:\project\9388\e1\2023_7_27\sr5e1_l9388_freeosek\modules\drivers\system\gpio\include\gpio.h **** 
 536:d:\project\9388\e1\2023_7_27\sr5e1_l9388_freeosek\modules\drivers\system\gpio\include\gpio.h **** /**
 537:d:\project\9388\e1\2023_7_27\sr5e1_l9388_freeosek\modules\drivers\system\gpio\include\gpio.h ****  * @brief   Sets Alternate Function pin value.
 538:d:\project\9388\e1\2023_7_27\sr5e1_l9388_freeosek\modules\drivers\system\gpio\include\gpio.h ****  * @note    Sets Alternate Function value of the pin related to the unique pin
 539:d:\project\9388\e1\2023_7_27\sr5e1_l9388_freeosek\modules\drivers\system\gpio\include\gpio.h ****  *          identifier.
 540:d:\project\9388\e1\2023_7_27\sr5e1_l9388_freeosek\modules\drivers\system\gpio\include\gpio.h ****  *
 541:d:\project\9388\e1\2023_7_27\sr5e1_l9388_freeosek\modules\drivers\system\gpio\include\gpio.h ****  * @param[in] io        unique pin identifier
 542:d:\project\9388\e1\2023_7_27\sr5e1_l9388_freeosek\modules\drivers\system\gpio\include\gpio.h ****  * @param[in] af        alternate function value
 543:d:\project\9388\e1\2023_7_27\sr5e1_l9388_freeosek\modules\drivers\system\gpio\include\gpio.h ****  *
 544:d:\project\9388\e1\2023_7_27\sr5e1_l9388_freeosek\modules\drivers\system\gpio\include\gpio.h ****  * @api
 545:d:\project\9388\e1\2023_7_27\sr5e1_l9388_freeosek\modules\drivers\system\gpio\include\gpio.h ****  */
 546:d:\project\9388\e1\2023_7_27\sr5e1_l9388_freeosek\modules\drivers\system\gpio\include\gpio.h **** __STATIC_INLINE void gpio_set_pin_afr(gpio_io_t io,
 547:d:\project\9388\e1\2023_7_27\sr5e1_l9388_freeosek\modules\drivers\system\gpio\include\gpio.h ****                                       gpio_af_t af) {
 361              		.loc 1 547 53
 362              		.cfi_startproc
 363              		@ args = 0, pretend = 0, frame = 16
 364              		@ frame_needed = 0, uses_anonymous_args = 0
 365 0000 00B5     		push	{lr}
 366              		.cfi_def_cfa_offset 4
 367              		.cfi_offset 14, -4
 368 0002 85B0     		sub	sp, sp, #20
 369              		.cfi_def_cfa_offset 24
 370 0004 0346     		mov	r3, r0
 371 0006 0A46     		mov	r2, r1
 372 0008 ADF80630 		strh	r3, [sp, #6]	@ movhi
 373 000c 1346     		mov	r3, r2
 374 000e 8DF80530 		strb	r3, [sp, #5]
 548:d:\project\9388\e1\2023_7_27\sr5e1_l9388_freeosek\modules\drivers\system\gpio\include\gpio.h **** 
 549:d:\project\9388\e1\2023_7_27\sr5e1_l9388_freeosek\modules\drivers\system\gpio\include\gpio.h ****     gpio_port_t port = gpio_iounpack_port(io);
 375              		.loc 1 549 24
 376 0012 BDF80630 		ldrh	r3, [sp, #6]
 377 0016 1B09     		lsrs	r3, r3, #4
 378 0018 9BB2     		uxth	r3, r3
 379              		.loc 1 549 17
 380 001a 8DF80F30 		strb	r3, [sp, #15]
 550:d:\project\9388\e1\2023_7_27\sr5e1_l9388_freeosek\modules\drivers\system\gpio\include\gpio.h ****     gpio_pin_t pin   = gpio_iounpack_pin(io);
 381              		.loc 1 550 24
 382 001e BDF80630 		ldrh	r3, [sp, #6]	@ movhi
 383 0022 DBB2     		uxtb	r3, r3
 384              		.loc 1 550 16
 385 0024 03F00F03 		and	r3, r3, #15
 386 0028 8DF80E30 		strb	r3, [sp, #14]
 551:d:\project\9388\e1\2023_7_27\sr5e1_l9388_freeosek\modules\drivers\system\gpio\include\gpio.h ****     GPIO_TypeDef *p  = gpio_dev_get_port_reg_ptr(port);
 387              		.loc 1 551 24
 388 002c 9DF80F30 		ldrb	r3, [sp, #15]	@ zero_extendqisi2
 389 0030 1846     		mov	r0, r3
 390 0032 FFF7FEFF 		bl	gpio_dev_get_port_reg_ptr
 391 0036 0290     		str	r0, [sp, #8]
 552:d:\project\9388\e1\2023_7_27\sr5e1_l9388_freeosek\modules\drivers\system\gpio\include\gpio.h **** 
 553:d:\project\9388\e1\2023_7_27\sr5e1_l9388_freeosek\modules\drivers\system\gpio\include\gpio.h ****     if (p != NULL) {
 392              		.loc 1 553 8
 393 0038 029B     		ldr	r3, [sp, #8]
 394 003a 002B     		cmp	r3, #0
 395 003c 3AD0     		beq	.L16
 554:d:\project\9388\e1\2023_7_27\sr5e1_l9388_freeosek\modules\drivers\system\gpio\include\gpio.h ****         if (pin < 8U) {
 396              		.loc 1 554 12
 397 003e 9DF80E30 		ldrb	r3, [sp, #14]	@ zero_extendqisi2
 398 0042 072B     		cmp	r3, #7
 399 0044 1AD8     		bhi	.L15
 555:d:\project\9388\e1\2023_7_27\sr5e1_l9388_freeosek\modules\drivers\system\gpio\include\gpio.h ****             p->AFR[0] &= (uint32_t)(~(0xFU << (4 * pin)));
 400              		.loc 1 555 23
 401 0046 029B     		ldr	r3, [sp, #8]
 402 0048 1A6A     		ldr	r2, [r3, #32]
 403              		.loc 1 555 50
 404 004a 9DF80E30 		ldrb	r3, [sp, #14]	@ zero_extendqisi2
 405 004e 9B00     		lsls	r3, r3, #2
 406              		.loc 1 555 44
 407 0050 0F21     		movs	r1, #15
 408 0052 01FA03F3 		lsl	r3, r1, r3
 409              		.loc 1 555 37
 410 0056 DB43     		mvns	r3, r3
 411              		.loc 1 555 23
 412 0058 1A40     		ands	r2, r2, r3
 413 005a 029B     		ldr	r3, [sp, #8]
 414 005c 1A62     		str	r2, [r3, #32]
 556:d:\project\9388\e1\2023_7_27\sr5e1_l9388_freeosek\modules\drivers\system\gpio\include\gpio.h ****             p->AFR[0] |= (uint32_t)((af & 0xFU) << (4 * pin));
 415              		.loc 1 556 23
 416 005e 029B     		ldr	r3, [sp, #8]
 417 0060 1A6A     		ldr	r2, [r3, #32]
 418              		.loc 1 556 41
 419 0062 9DF80530 		ldrb	r3, [sp, #5]	@ zero_extendqisi2
 420 0066 03F00F01 		and	r1, r3, #15
 421              		.loc 1 556 55
 422 006a 9DF80E30 		ldrb	r3, [sp, #14]	@ zero_extendqisi2
 423 006e 9B00     		lsls	r3, r3, #2
 424              		.loc 1 556 49
 425 0070 01FA03F3 		lsl	r3, r1, r3
 426              		.loc 1 556 23
 427 0074 1A43     		orrs	r2, r2, r3
 428 0076 029B     		ldr	r3, [sp, #8]
 429 0078 1A62     		str	r2, [r3, #32]
 557:d:\project\9388\e1\2023_7_27\sr5e1_l9388_freeosek\modules\drivers\system\gpio\include\gpio.h ****         } else {
 558:d:\project\9388\e1\2023_7_27\sr5e1_l9388_freeosek\modules\drivers\system\gpio\include\gpio.h ****             p->AFR[1] &= (uint32_t)(~(0xFU << (4 * (pin - 8))));
 559:d:\project\9388\e1\2023_7_27\sr5e1_l9388_freeosek\modules\drivers\system\gpio\include\gpio.h ****             p->AFR[1] |= (uint32_t)((af & 0xFU) << (4 * (pin - 8)));
 560:d:\project\9388\e1\2023_7_27\sr5e1_l9388_freeosek\modules\drivers\system\gpio\include\gpio.h ****         }
 561:d:\project\9388\e1\2023_7_27\sr5e1_l9388_freeosek\modules\drivers\system\gpio\include\gpio.h ****     }
 562:d:\project\9388\e1\2023_7_27\sr5e1_l9388_freeosek\modules\drivers\system\gpio\include\gpio.h **** }
 430              		.loc 1 562 1
 431 007a 1BE0     		b	.L16
 432              	.L15:
 558:d:\project\9388\e1\2023_7_27\sr5e1_l9388_freeosek\modules\drivers\system\gpio\include\gpio.h ****             p->AFR[1] |= (uint32_t)((af & 0xFU) << (4 * (pin - 8)));
 433              		.loc 1 558 23
 434 007c 029B     		ldr	r3, [sp, #8]
 435 007e 5A6A     		ldr	r2, [r3, #36]
 558:d:\project\9388\e1\2023_7_27\sr5e1_l9388_freeosek\modules\drivers\system\gpio\include\gpio.h ****             p->AFR[1] |= (uint32_t)((af & 0xFU) << (4 * (pin - 8)));
 436              		.loc 1 558 57
 437 0080 9DF80E30 		ldrb	r3, [sp, #14]	@ zero_extendqisi2
 438 0084 083B     		subs	r3, r3, #8
 558:d:\project\9388\e1\2023_7_27\sr5e1_l9388_freeosek\modules\drivers\system\gpio\include\gpio.h ****             p->AFR[1] |= (uint32_t)((af & 0xFU) << (4 * (pin - 8)));
 439              		.loc 1 558 50
 440 0086 9B00     		lsls	r3, r3, #2
 558:d:\project\9388\e1\2023_7_27\sr5e1_l9388_freeosek\modules\drivers\system\gpio\include\gpio.h ****             p->AFR[1] |= (uint32_t)((af & 0xFU) << (4 * (pin - 8)));
 441              		.loc 1 558 44
 442 0088 0F21     		movs	r1, #15
 443 008a 01FA03F3 		lsl	r3, r1, r3
 558:d:\project\9388\e1\2023_7_27\sr5e1_l9388_freeosek\modules\drivers\system\gpio\include\gpio.h ****             p->AFR[1] |= (uint32_t)((af & 0xFU) << (4 * (pin - 8)));
 444              		.loc 1 558 37
 445 008e DB43     		mvns	r3, r3
 558:d:\project\9388\e1\2023_7_27\sr5e1_l9388_freeosek\modules\drivers\system\gpio\include\gpio.h ****             p->AFR[1] |= (uint32_t)((af & 0xFU) << (4 * (pin - 8)));
 446              		.loc 1 558 23
 447 0090 1A40     		ands	r2, r2, r3
 448 0092 029B     		ldr	r3, [sp, #8]
 449 0094 5A62     		str	r2, [r3, #36]
 559:d:\project\9388\e1\2023_7_27\sr5e1_l9388_freeosek\modules\drivers\system\gpio\include\gpio.h ****         }
 450              		.loc 1 559 23
 451 0096 029B     		ldr	r3, [sp, #8]
 452 0098 5A6A     		ldr	r2, [r3, #36]
 559:d:\project\9388\e1\2023_7_27\sr5e1_l9388_freeosek\modules\drivers\system\gpio\include\gpio.h ****         }
 453              		.loc 1 559 41
 454 009a 9DF80530 		ldrb	r3, [sp, #5]	@ zero_extendqisi2
 455 009e 03F00F01 		and	r1, r3, #15
 559:d:\project\9388\e1\2023_7_27\sr5e1_l9388_freeosek\modules\drivers\system\gpio\include\gpio.h ****         }
 456              		.loc 1 559 62
 457 00a2 9DF80E30 		ldrb	r3, [sp, #14]	@ zero_extendqisi2
 458 00a6 083B     		subs	r3, r3, #8
 559:d:\project\9388\e1\2023_7_27\sr5e1_l9388_freeosek\modules\drivers\system\gpio\include\gpio.h ****         }
 459              		.loc 1 559 55
 460 00a8 9B00     		lsls	r3, r3, #2
 559:d:\project\9388\e1\2023_7_27\sr5e1_l9388_freeosek\modules\drivers\system\gpio\include\gpio.h ****         }
 461              		.loc 1 559 49
 462 00aa 01FA03F3 		lsl	r3, r1, r3
 559:d:\project\9388\e1\2023_7_27\sr5e1_l9388_freeosek\modules\drivers\system\gpio\include\gpio.h ****         }
 463              		.loc 1 559 23
 464 00ae 1A43     		orrs	r2, r2, r3
 465 00b0 029B     		ldr	r3, [sp, #8]
 466 00b2 5A62     		str	r2, [r3, #36]
 467              	.L16:
 468              		.loc 1 562 1
 469 00b4 00BF     		nop
 470 00b6 05B0     		add	sp, sp, #20
 471              		.cfi_def_cfa_offset 4
 472              		@ sp needed
 473 00b8 5DF804FB 		ldr	pc, [sp], #4
 474              		.cfi_endproc
 475              	.LFE401:
 477              		.section	.text.gpio_set_pin_ihystr,"ax",%progbits
 478              		.align	1
 479              		.p2align 4,,15
 480              		.syntax unified
 481              		.thumb
 482              		.thumb_func
 484              	gpio_set_pin_ihystr:
 485              	.LFB402:
 563:d:\project\9388\e1\2023_7_27\sr5e1_l9388_freeosek\modules\drivers\system\gpio\include\gpio.h **** 
 564:d:\project\9388\e1\2023_7_27\sr5e1_l9388_freeosek\modules\drivers\system\gpio\include\gpio.h **** /**
 565:d:\project\9388\e1\2023_7_27\sr5e1_l9388_freeosek\modules\drivers\system\gpio\include\gpio.h ****  * @brief   Sets Hysteresis pin value.
 566:d:\project\9388\e1\2023_7_27\sr5e1_l9388_freeosek\modules\drivers\system\gpio\include\gpio.h ****  * @note    Sets Hysteresis value of the pin related to the unique pin
 567:d:\project\9388\e1\2023_7_27\sr5e1_l9388_freeosek\modules\drivers\system\gpio\include\gpio.h ****  *          identifier.
 568:d:\project\9388\e1\2023_7_27\sr5e1_l9388_freeosek\modules\drivers\system\gpio\include\gpio.h ****  *
 569:d:\project\9388\e1\2023_7_27\sr5e1_l9388_freeosek\modules\drivers\system\gpio\include\gpio.h ****  * @param[in] io        unique pin identifier
 570:d:\project\9388\e1\2023_7_27\sr5e1_l9388_freeosek\modules\drivers\system\gpio\include\gpio.h ****  * @param[in] ihyst     pin hysteresis value; it can be one of the following
 571:d:\project\9388\e1\2023_7_27\sr5e1_l9388_freeosek\modules\drivers\system\gpio\include\gpio.h ****  *                      values:
 572:d:\project\9388\e1\2023_7_27\sr5e1_l9388_freeosek\modules\drivers\system\gpio\include\gpio.h ****  *            @arg @ref GPIO_IHYSTR_CMOS
 573:d:\project\9388\e1\2023_7_27\sr5e1_l9388_freeosek\modules\drivers\system\gpio\include\gpio.h ****  *            @arg @ref GPIO_IHYSTR_TTL
 574:d:\project\9388\e1\2023_7_27\sr5e1_l9388_freeosek\modules\drivers\system\gpio\include\gpio.h ****  *            @arg @ref GPIO_IHYSTR_AUTO
 575:d:\project\9388\e1\2023_7_27\sr5e1_l9388_freeosek\modules\drivers\system\gpio\include\gpio.h ****  *
 576:d:\project\9388\e1\2023_7_27\sr5e1_l9388_freeosek\modules\drivers\system\gpio\include\gpio.h ****  * @api
 577:d:\project\9388\e1\2023_7_27\sr5e1_l9388_freeosek\modules\drivers\system\gpio\include\gpio.h ****  */
 578:d:\project\9388\e1\2023_7_27\sr5e1_l9388_freeosek\modules\drivers\system\gpio\include\gpio.h **** __STATIC_INLINE void gpio_set_pin_ihystr(gpio_io_t io,
 579:d:\project\9388\e1\2023_7_27\sr5e1_l9388_freeosek\modules\drivers\system\gpio\include\gpio.h ****                                          gpio_ihyst_t ihyst) {
 486              		.loc 1 579 62
 487              		.cfi_startproc
 488              		@ args = 0, pretend = 0, frame = 16
 489              		@ frame_needed = 0, uses_anonymous_args = 0
 490 0000 00B5     		push	{lr}
 491              		.cfi_def_cfa_offset 4
 492              		.cfi_offset 14, -4
 493 0002 85B0     		sub	sp, sp, #20
 494              		.cfi_def_cfa_offset 24
 495 0004 0346     		mov	r3, r0
 496 0006 0A46     		mov	r2, r1
 497 0008 ADF80630 		strh	r3, [sp, #6]	@ movhi
 498 000c 1346     		mov	r3, r2
 499 000e 8DF80530 		strb	r3, [sp, #5]
 580:d:\project\9388\e1\2023_7_27\sr5e1_l9388_freeosek\modules\drivers\system\gpio\include\gpio.h **** 
 581:d:\project\9388\e1\2023_7_27\sr5e1_l9388_freeosek\modules\drivers\system\gpio\include\gpio.h ****     gpio_port_t port = gpio_iounpack_port(io);
 500              		.loc 1 581 24
 501 0012 BDF80630 		ldrh	r3, [sp, #6]
 502 0016 1B09     		lsrs	r3, r3, #4
 503 0018 9BB2     		uxth	r3, r3
 504              		.loc 1 581 17
 505 001a 8DF80F30 		strb	r3, [sp, #15]
 582:d:\project\9388\e1\2023_7_27\sr5e1_l9388_freeosek\modules\drivers\system\gpio\include\gpio.h ****     gpio_pin_t pin   = gpio_iounpack_pin(io);
 506              		.loc 1 582 24
 507 001e BDF80630 		ldrh	r3, [sp, #6]	@ movhi
 508 0022 DBB2     		uxtb	r3, r3
 509              		.loc 1 582 16
 510 0024 03F00F03 		and	r3, r3, #15
 511 0028 8DF80E30 		strb	r3, [sp, #14]
 583:d:\project\9388\e1\2023_7_27\sr5e1_l9388_freeosek\modules\drivers\system\gpio\include\gpio.h ****     GPIO_TypeDef *p  = gpio_dev_get_port_reg_ptr(port);
 512              		.loc 1 583 24
 513 002c 9DF80F30 		ldrb	r3, [sp, #15]	@ zero_extendqisi2
 514 0030 1846     		mov	r0, r3
 515 0032 FFF7FEFF 		bl	gpio_dev_get_port_reg_ptr
 516 0036 0290     		str	r0, [sp, #8]
 584:d:\project\9388\e1\2023_7_27\sr5e1_l9388_freeosek\modules\drivers\system\gpio\include\gpio.h **** 
 585:d:\project\9388\e1\2023_7_27\sr5e1_l9388_freeosek\modules\drivers\system\gpio\include\gpio.h ****     if (p != NULL) {
 517              		.loc 1 585 8
 518 0038 029B     		ldr	r3, [sp, #8]
 519 003a 002B     		cmp	r3, #0
 520 003c 19D0     		beq	.L19
 586:d:\project\9388\e1\2023_7_27\sr5e1_l9388_freeosek\modules\drivers\system\gpio\include\gpio.h ****         p->IHYSTR &= (uint32_t)((~(0x3U << (2 * pin))));
 521              		.loc 1 586 19
 522 003e 029B     		ldr	r3, [sp, #8]
 523 0040 9A6A     		ldr	r2, [r3, #40]
 524              		.loc 1 586 47
 525 0042 9DF80E30 		ldrb	r3, [sp, #14]	@ zero_extendqisi2
 526 0046 5B00     		lsls	r3, r3, #1
 527              		.loc 1 586 41
 528 0048 0321     		movs	r1, #3
 529 004a 01FA03F3 		lsl	r3, r1, r3
 530              		.loc 1 586 34
 531 004e DB43     		mvns	r3, r3
 532              		.loc 1 586 19
 533 0050 1A40     		ands	r2, r2, r3
 534 0052 029B     		ldr	r3, [sp, #8]
 535 0054 9A62     		str	r2, [r3, #40]
 587:d:\project\9388\e1\2023_7_27\sr5e1_l9388_freeosek\modules\drivers\system\gpio\include\gpio.h ****         p->IHYSTR |= (uint32_t)((ihyst & 0x3U) << (2 * pin));
 536              		.loc 1 587 19
 537 0056 029B     		ldr	r3, [sp, #8]
 538 0058 9A6A     		ldr	r2, [r3, #40]
 539              		.loc 1 587 40
 540 005a 9DF80530 		ldrb	r3, [sp, #5]	@ zero_extendqisi2
 541 005e 03F00301 		and	r1, r3, #3
 542              		.loc 1 587 54
 543 0062 9DF80E30 		ldrb	r3, [sp, #14]	@ zero_extendqisi2
 544 0066 5B00     		lsls	r3, r3, #1
 545              		.loc 1 587 48
 546 0068 01FA03F3 		lsl	r3, r1, r3
 547              		.loc 1 587 19
 548 006c 1A43     		orrs	r2, r2, r3
 549 006e 029B     		ldr	r3, [sp, #8]
 550 0070 9A62     		str	r2, [r3, #40]
 551              	.L19:
 588:d:\project\9388\e1\2023_7_27\sr5e1_l9388_freeosek\modules\drivers\system\gpio\include\gpio.h ****     }
 589:d:\project\9388\e1\2023_7_27\sr5e1_l9388_freeosek\modules\drivers\system\gpio\include\gpio.h **** }
 552              		.loc 1 589 1
 553 0072 00BF     		nop
 554 0074 05B0     		add	sp, sp, #20
 555              		.cfi_def_cfa_offset 4
 556              		@ sp needed
 557 0076 5DF804FB 		ldr	pc, [sp], #4
 558              		.cfi_endproc
 559              	.LFE402:
 561 007a 00BF     		.section	.text.gpio_set_pin_trigenr,"ax",%progbits
 562              		.align	1
 563              		.p2align 4,,15
 564              		.syntax unified
 565              		.thumb
 566              		.thumb_func
 568              	gpio_set_pin_trigenr:
 569              	.LFB403:
 590:d:\project\9388\e1\2023_7_27\sr5e1_l9388_freeosek\modules\drivers\system\gpio\include\gpio.h **** 
 591:d:\project\9388\e1\2023_7_27\sr5e1_l9388_freeosek\modules\drivers\system\gpio\include\gpio.h **** /**
 592:d:\project\9388\e1\2023_7_27\sr5e1_l9388_freeosek\modules\drivers\system\gpio\include\gpio.h ****  * @brief   Sets Port Input Buffer Enable pin value.
 593:d:\project\9388\e1\2023_7_27\sr5e1_l9388_freeosek\modules\drivers\system\gpio\include\gpio.h ****  * @note    Sets Port Input Buffer Enable value of the pin related to the
 594:d:\project\9388\e1\2023_7_27\sr5e1_l9388_freeosek\modules\drivers\system\gpio\include\gpio.h ****  *          unique pin identifier.
 595:d:\project\9388\e1\2023_7_27\sr5e1_l9388_freeosek\modules\drivers\system\gpio\include\gpio.h ****  *
 596:d:\project\9388\e1\2023_7_27\sr5e1_l9388_freeosek\modules\drivers\system\gpio\include\gpio.h ****  * @param[in] io        unique pin identifier
 597:d:\project\9388\e1\2023_7_27\sr5e1_l9388_freeosek\modules\drivers\system\gpio\include\gpio.h ****  * @param[in] trigen    pin input buffer enable value; it can be one of the
 598:d:\project\9388\e1\2023_7_27\sr5e1_l9388_freeosek\modules\drivers\system\gpio\include\gpio.h ****  *                      following values:
 599:d:\project\9388\e1\2023_7_27\sr5e1_l9388_freeosek\modules\drivers\system\gpio\include\gpio.h ****  *            @arg @ref GPIO_TRIGENR_IN_DISABLED
 600:d:\project\9388\e1\2023_7_27\sr5e1_l9388_freeosek\modules\drivers\system\gpio\include\gpio.h ****  *            @arg @ref GPIO_TRIGENR_IN_ENABLED
 601:d:\project\9388\e1\2023_7_27\sr5e1_l9388_freeosek\modules\drivers\system\gpio\include\gpio.h ****  *
 602:d:\project\9388\e1\2023_7_27\sr5e1_l9388_freeosek\modules\drivers\system\gpio\include\gpio.h ****  * @api
 603:d:\project\9388\e1\2023_7_27\sr5e1_l9388_freeosek\modules\drivers\system\gpio\include\gpio.h ****  */
 604:d:\project\9388\e1\2023_7_27\sr5e1_l9388_freeosek\modules\drivers\system\gpio\include\gpio.h **** __STATIC_INLINE void gpio_set_pin_trigenr(gpio_io_t io,
 605:d:\project\9388\e1\2023_7_27\sr5e1_l9388_freeosek\modules\drivers\system\gpio\include\gpio.h ****                                           gpio_trigen_t trigen) {
 570              		.loc 1 605 65
 571              		.cfi_startproc
 572              		@ args = 0, pretend = 0, frame = 16
 573              		@ frame_needed = 0, uses_anonymous_args = 0
 574 0000 00B5     		push	{lr}
 575              		.cfi_def_cfa_offset 4
 576              		.cfi_offset 14, -4
 577 0002 85B0     		sub	sp, sp, #20
 578              		.cfi_def_cfa_offset 24
 579 0004 0346     		mov	r3, r0
 580 0006 0A46     		mov	r2, r1
 581 0008 ADF80630 		strh	r3, [sp, #6]	@ movhi
 582 000c 1346     		mov	r3, r2
 583 000e 8DF80530 		strb	r3, [sp, #5]
 606:d:\project\9388\e1\2023_7_27\sr5e1_l9388_freeosek\modules\drivers\system\gpio\include\gpio.h **** 
 607:d:\project\9388\e1\2023_7_27\sr5e1_l9388_freeosek\modules\drivers\system\gpio\include\gpio.h ****     gpio_port_t port = gpio_iounpack_port(io);
 584              		.loc 1 607 24
 585 0012 BDF80630 		ldrh	r3, [sp, #6]
 586 0016 1B09     		lsrs	r3, r3, #4
 587 0018 9BB2     		uxth	r3, r3
 588              		.loc 1 607 17
 589 001a 8DF80F30 		strb	r3, [sp, #15]
 608:d:\project\9388\e1\2023_7_27\sr5e1_l9388_freeosek\modules\drivers\system\gpio\include\gpio.h ****     gpio_pin_t pin   = gpio_iounpack_pin(io);
 590              		.loc 1 608 24
 591 001e BDF80630 		ldrh	r3, [sp, #6]	@ movhi
 592 0022 DBB2     		uxtb	r3, r3
 593              		.loc 1 608 16
 594 0024 03F00F03 		and	r3, r3, #15
 595 0028 8DF80E30 		strb	r3, [sp, #14]
 609:d:\project\9388\e1\2023_7_27\sr5e1_l9388_freeosek\modules\drivers\system\gpio\include\gpio.h ****     GPIO_TypeDef *p  = gpio_dev_get_port_reg_ptr(port);
 596              		.loc 1 609 24
 597 002c 9DF80F30 		ldrb	r3, [sp, #15]	@ zero_extendqisi2
 598 0030 1846     		mov	r0, r3
 599 0032 FFF7FEFF 		bl	gpio_dev_get_port_reg_ptr
 600 0036 0290     		str	r0, [sp, #8]
 610:d:\project\9388\e1\2023_7_27\sr5e1_l9388_freeosek\modules\drivers\system\gpio\include\gpio.h **** 
 611:d:\project\9388\e1\2023_7_27\sr5e1_l9388_freeosek\modules\drivers\system\gpio\include\gpio.h ****     if (p != NULL) {
 601              		.loc 1 611 8
 602 0038 029B     		ldr	r3, [sp, #8]
 603 003a 002B     		cmp	r3, #0
 604 003c 17D0     		beq	.L22
 612:d:\project\9388\e1\2023_7_27\sr5e1_l9388_freeosek\modules\drivers\system\gpio\include\gpio.h ****         p->TRIGENR &= (uint32_t)(~(0x1U << pin));
 605              		.loc 1 612 20
 606 003e 029B     		ldr	r3, [sp, #8]
 607 0040 DA6A     		ldr	r2, [r3, #44]
 608              		.loc 1 612 41
 609 0042 9DF80E30 		ldrb	r3, [sp, #14]	@ zero_extendqisi2
 610 0046 0121     		movs	r1, #1
 611 0048 01FA03F3 		lsl	r3, r1, r3
 612              		.loc 1 612 34
 613 004c DB43     		mvns	r3, r3
 614              		.loc 1 612 20
 615 004e 1A40     		ands	r2, r2, r3
 616 0050 029B     		ldr	r3, [sp, #8]
 617 0052 DA62     		str	r2, [r3, #44]
 613:d:\project\9388\e1\2023_7_27\sr5e1_l9388_freeosek\modules\drivers\system\gpio\include\gpio.h ****         p->TRIGENR |= (uint32_t)((trigen & 0x1U) << pin);
 618              		.loc 1 613 20
 619 0054 029B     		ldr	r3, [sp, #8]
 620 0056 DA6A     		ldr	r2, [r3, #44]
 621              		.loc 1 613 42
 622 0058 9DF80530 		ldrb	r3, [sp, #5]	@ zero_extendqisi2
 623 005c 03F00101 		and	r1, r3, #1
 624              		.loc 1 613 23
 625 0060 9DF80E30 		ldrb	r3, [sp, #14]	@ zero_extendqisi2
 626              		.loc 1 613 50
 627 0064 01FA03F3 		lsl	r3, r1, r3
 628              		.loc 1 613 20
 629 0068 1A43     		orrs	r2, r2, r3
 630 006a 029B     		ldr	r3, [sp, #8]
 631 006c DA62     		str	r2, [r3, #44]
 632              	.L22:
 614:d:\project\9388\e1\2023_7_27\sr5e1_l9388_freeosek\modules\drivers\system\gpio\include\gpio.h ****     }
 615:d:\project\9388\e1\2023_7_27\sr5e1_l9388_freeosek\modules\drivers\system\gpio\include\gpio.h **** }
 633              		.loc 1 615 1
 634 006e 00BF     		nop
 635 0070 05B0     		add	sp, sp, #20
 636              		.cfi_def_cfa_offset 4
 637              		@ sp needed
 638 0072 5DF804FB 		ldr	pc, [sp], #4
 639              		.cfi_endproc
 640              	.LFE403:
 642 0076 00BF     		.section	.text.gpio_set_pin_safeselr,"ax",%progbits
 643              		.align	1
 644              		.p2align 4,,15
 645              		.syntax unified
 646              		.thumb
 647              		.thumb_func
 649              	gpio_set_pin_safeselr:
 650              	.LFB404:
 616:d:\project\9388\e1\2023_7_27\sr5e1_l9388_freeosek\modules\drivers\system\gpio\include\gpio.h **** 
 617:d:\project\9388\e1\2023_7_27\sr5e1_l9388_freeosek\modules\drivers\system\gpio\include\gpio.h **** /**
 618:d:\project\9388\e1\2023_7_27\sr5e1_l9388_freeosek\modules\drivers\system\gpio\include\gpio.h ****  * @brief   Sets Safe IO Selection pin value.
 619:d:\project\9388\e1\2023_7_27\sr5e1_l9388_freeosek\modules\drivers\system\gpio\include\gpio.h ****  * @note    Sets Safe IO Selection value of the pin related to the unique pin
 620:d:\project\9388\e1\2023_7_27\sr5e1_l9388_freeosek\modules\drivers\system\gpio\include\gpio.h ****  *          identifier.
 621:d:\project\9388\e1\2023_7_27\sr5e1_l9388_freeosek\modules\drivers\system\gpio\include\gpio.h ****  *
 622:d:\project\9388\e1\2023_7_27\sr5e1_l9388_freeosek\modules\drivers\system\gpio\include\gpio.h ****  * @param[in] io        unique pin identifier
 623:d:\project\9388\e1\2023_7_27\sr5e1_l9388_freeosek\modules\drivers\system\gpio\include\gpio.h ****  * @param[in] safesel   safe io selection value; it can be one of the following
 624:d:\project\9388\e1\2023_7_27\sr5e1_l9388_freeosek\modules\drivers\system\gpio\include\gpio.h ****  *                      values:
 625:d:\project\9388\e1\2023_7_27\sr5e1_l9388_freeosek\modules\drivers\system\gpio\include\gpio.h ****  *            @arg @ref GPIO_SAFESEL_DISABLED
 626:d:\project\9388\e1\2023_7_27\sr5e1_l9388_freeosek\modules\drivers\system\gpio\include\gpio.h ****  *            @arg @ref GPIO_SAFESEL_ENABLED
 627:d:\project\9388\e1\2023_7_27\sr5e1_l9388_freeosek\modules\drivers\system\gpio\include\gpio.h ****  *
 628:d:\project\9388\e1\2023_7_27\sr5e1_l9388_freeosek\modules\drivers\system\gpio\include\gpio.h ****  * @api
 629:d:\project\9388\e1\2023_7_27\sr5e1_l9388_freeosek\modules\drivers\system\gpio\include\gpio.h ****  */
 630:d:\project\9388\e1\2023_7_27\sr5e1_l9388_freeosek\modules\drivers\system\gpio\include\gpio.h **** __STATIC_INLINE void gpio_set_pin_safeselr(gpio_io_t io,
 631:d:\project\9388\e1\2023_7_27\sr5e1_l9388_freeosek\modules\drivers\system\gpio\include\gpio.h ****                                            gpio_safesel_t safesel) {
 651              		.loc 1 631 68
 652              		.cfi_startproc
 653              		@ args = 0, pretend = 0, frame = 16
 654              		@ frame_needed = 0, uses_anonymous_args = 0
 655 0000 00B5     		push	{lr}
 656              		.cfi_def_cfa_offset 4
 657              		.cfi_offset 14, -4
 658 0002 85B0     		sub	sp, sp, #20
 659              		.cfi_def_cfa_offset 24
 660 0004 0346     		mov	r3, r0
 661 0006 0A46     		mov	r2, r1
 662 0008 ADF80630 		strh	r3, [sp, #6]	@ movhi
 663 000c 1346     		mov	r3, r2
 664 000e 8DF80530 		strb	r3, [sp, #5]
 632:d:\project\9388\e1\2023_7_27\sr5e1_l9388_freeosek\modules\drivers\system\gpio\include\gpio.h **** 
 633:d:\project\9388\e1\2023_7_27\sr5e1_l9388_freeosek\modules\drivers\system\gpio\include\gpio.h ****     gpio_port_t port = gpio_iounpack_port(io);
 665              		.loc 1 633 24
 666 0012 BDF80630 		ldrh	r3, [sp, #6]
 667 0016 1B09     		lsrs	r3, r3, #4
 668 0018 9BB2     		uxth	r3, r3
 669              		.loc 1 633 17
 670 001a 8DF80F30 		strb	r3, [sp, #15]
 634:d:\project\9388\e1\2023_7_27\sr5e1_l9388_freeosek\modules\drivers\system\gpio\include\gpio.h ****     gpio_pin_t pin   = gpio_iounpack_pin(io);
 671              		.loc 1 634 24
 672 001e BDF80630 		ldrh	r3, [sp, #6]	@ movhi
 673 0022 DBB2     		uxtb	r3, r3
 674              		.loc 1 634 16
 675 0024 03F00F03 		and	r3, r3, #15
 676 0028 8DF80E30 		strb	r3, [sp, #14]
 635:d:\project\9388\e1\2023_7_27\sr5e1_l9388_freeosek\modules\drivers\system\gpio\include\gpio.h ****     GPIO_TypeDef *p  = gpio_dev_get_port_reg_ptr(port);
 677              		.loc 1 635 24
 678 002c 9DF80F30 		ldrb	r3, [sp, #15]	@ zero_extendqisi2
 679 0030 1846     		mov	r0, r3
 680 0032 FFF7FEFF 		bl	gpio_dev_get_port_reg_ptr
 681 0036 0290     		str	r0, [sp, #8]
 636:d:\project\9388\e1\2023_7_27\sr5e1_l9388_freeosek\modules\drivers\system\gpio\include\gpio.h **** 
 637:d:\project\9388\e1\2023_7_27\sr5e1_l9388_freeosek\modules\drivers\system\gpio\include\gpio.h ****     if (p != NULL) {
 682              		.loc 1 637 8
 683 0038 029B     		ldr	r3, [sp, #8]
 684 003a 002B     		cmp	r3, #0
 685 003c 17D0     		beq	.L25
 638:d:\project\9388\e1\2023_7_27\sr5e1_l9388_freeosek\modules\drivers\system\gpio\include\gpio.h ****         p->SAFESELR &= (uint32_t)(~(0x1U << pin));
 686              		.loc 1 638 21
 687 003e 029B     		ldr	r3, [sp, #8]
 688 0040 1A6B     		ldr	r2, [r3, #48]
 689              		.loc 1 638 42
 690 0042 9DF80E30 		ldrb	r3, [sp, #14]	@ zero_extendqisi2
 691 0046 0121     		movs	r1, #1
 692 0048 01FA03F3 		lsl	r3, r1, r3
 693              		.loc 1 638 35
 694 004c DB43     		mvns	r3, r3
 695              		.loc 1 638 21
 696 004e 1A40     		ands	r2, r2, r3
 697 0050 029B     		ldr	r3, [sp, #8]
 698 0052 1A63     		str	r2, [r3, #48]
 639:d:\project\9388\e1\2023_7_27\sr5e1_l9388_freeosek\modules\drivers\system\gpio\include\gpio.h ****         p->SAFESELR |= (uint32_t)((safesel & 0x1U) << pin);
 699              		.loc 1 639 21
 700 0054 029B     		ldr	r3, [sp, #8]
 701 0056 1A6B     		ldr	r2, [r3, #48]
 702              		.loc 1 639 44
 703 0058 9DF80530 		ldrb	r3, [sp, #5]	@ zero_extendqisi2
 704 005c 03F00101 		and	r1, r3, #1
 705              		.loc 1 639 24
 706 0060 9DF80E30 		ldrb	r3, [sp, #14]	@ zero_extendqisi2
 707              		.loc 1 639 52
 708 0064 01FA03F3 		lsl	r3, r1, r3
 709              		.loc 1 639 21
 710 0068 1A43     		orrs	r2, r2, r3
 711 006a 029B     		ldr	r3, [sp, #8]
 712 006c 1A63     		str	r2, [r3, #48]
 713              	.L25:
 640:d:\project\9388\e1\2023_7_27\sr5e1_l9388_freeosek\modules\drivers\system\gpio\include\gpio.h ****     }
 641:d:\project\9388\e1\2023_7_27\sr5e1_l9388_freeosek\modules\drivers\system\gpio\include\gpio.h **** }
 714              		.loc 1 641 1
 715 006e 00BF     		nop
 716 0070 05B0     		add	sp, sp, #20
 717              		.cfi_def_cfa_offset 4
 718              		@ sp needed
 719 0072 5DF804FB 		ldr	pc, [sp], #4
 720              		.cfi_endproc
 721              	.LFE404:
 723 0076 00BF     		.section	.text.gpio_set_pin_safevalr,"ax",%progbits
 724              		.align	1
 725              		.p2align 4,,15
 726              		.syntax unified
 727              		.thumb
 728              		.thumb_func
 730              	gpio_set_pin_safevalr:
 731              	.LFB405:
 642:d:\project\9388\e1\2023_7_27\sr5e1_l9388_freeosek\modules\drivers\system\gpio\include\gpio.h **** 
 643:d:\project\9388\e1\2023_7_27\sr5e1_l9388_freeosek\modules\drivers\system\gpio\include\gpio.h **** /**
 644:d:\project\9388\e1\2023_7_27\sr5e1_l9388_freeosek\modules\drivers\system\gpio\include\gpio.h ****  * @brief   Sets Safe IO Output pin value.
 645:d:\project\9388\e1\2023_7_27\sr5e1_l9388_freeosek\modules\drivers\system\gpio\include\gpio.h ****  * @note    Sets Safe IO Output value of the pin related to the unique pin
 646:d:\project\9388\e1\2023_7_27\sr5e1_l9388_freeosek\modules\drivers\system\gpio\include\gpio.h ****  *          identifier.
 647:d:\project\9388\e1\2023_7_27\sr5e1_l9388_freeosek\modules\drivers\system\gpio\include\gpio.h ****  *
 648:d:\project\9388\e1\2023_7_27\sr5e1_l9388_freeosek\modules\drivers\system\gpio\include\gpio.h ****  * @param[in] io        unique pin identifier
 649:d:\project\9388\e1\2023_7_27\sr5e1_l9388_freeosek\modules\drivers\system\gpio\include\gpio.h ****  * @param[in] safeval   safe io output value; it can be one of the following
 650:d:\project\9388\e1\2023_7_27\sr5e1_l9388_freeosek\modules\drivers\system\gpio\include\gpio.h ****  *                      values:
 651:d:\project\9388\e1\2023_7_27\sr5e1_l9388_freeosek\modules\drivers\system\gpio\include\gpio.h ****  *            @arg @ref GPIO_SAFEVAL_LOW
 652:d:\project\9388\e1\2023_7_27\sr5e1_l9388_freeosek\modules\drivers\system\gpio\include\gpio.h ****  *            @arg @ref GPIO_SAFEVAL_HIGT
 653:d:\project\9388\e1\2023_7_27\sr5e1_l9388_freeosek\modules\drivers\system\gpio\include\gpio.h ****  *
 654:d:\project\9388\e1\2023_7_27\sr5e1_l9388_freeosek\modules\drivers\system\gpio\include\gpio.h ****  * @api
 655:d:\project\9388\e1\2023_7_27\sr5e1_l9388_freeosek\modules\drivers\system\gpio\include\gpio.h ****  */
 656:d:\project\9388\e1\2023_7_27\sr5e1_l9388_freeosek\modules\drivers\system\gpio\include\gpio.h **** __STATIC_INLINE void gpio_set_pin_safevalr(gpio_io_t io,
 657:d:\project\9388\e1\2023_7_27\sr5e1_l9388_freeosek\modules\drivers\system\gpio\include\gpio.h ****                                            gpio_safeval_t safeval) {
 732              		.loc 1 657 68
 733              		.cfi_startproc
 734              		@ args = 0, pretend = 0, frame = 16
 735              		@ frame_needed = 0, uses_anonymous_args = 0
 736 0000 00B5     		push	{lr}
 737              		.cfi_def_cfa_offset 4
 738              		.cfi_offset 14, -4
 739 0002 85B0     		sub	sp, sp, #20
 740              		.cfi_def_cfa_offset 24
 741 0004 0346     		mov	r3, r0
 742 0006 0A46     		mov	r2, r1
 743 0008 ADF80630 		strh	r3, [sp, #6]	@ movhi
 744 000c 1346     		mov	r3, r2
 745 000e 8DF80530 		strb	r3, [sp, #5]
 658:d:\project\9388\e1\2023_7_27\sr5e1_l9388_freeosek\modules\drivers\system\gpio\include\gpio.h **** 
 659:d:\project\9388\e1\2023_7_27\sr5e1_l9388_freeosek\modules\drivers\system\gpio\include\gpio.h ****     gpio_port_t port = gpio_iounpack_port(io);
 746              		.loc 1 659 24
 747 0012 BDF80630 		ldrh	r3, [sp, #6]
 748 0016 1B09     		lsrs	r3, r3, #4
 749 0018 9BB2     		uxth	r3, r3
 750              		.loc 1 659 17
 751 001a 8DF80F30 		strb	r3, [sp, #15]
 660:d:\project\9388\e1\2023_7_27\sr5e1_l9388_freeosek\modules\drivers\system\gpio\include\gpio.h ****     gpio_pin_t pin   = gpio_iounpack_pin(io);
 752              		.loc 1 660 24
 753 001e BDF80630 		ldrh	r3, [sp, #6]	@ movhi
 754 0022 DBB2     		uxtb	r3, r3
 755              		.loc 1 660 16
 756 0024 03F00F03 		and	r3, r3, #15
 757 0028 8DF80E30 		strb	r3, [sp, #14]
 661:d:\project\9388\e1\2023_7_27\sr5e1_l9388_freeosek\modules\drivers\system\gpio\include\gpio.h ****     GPIO_TypeDef *p  = gpio_dev_get_port_reg_ptr(port);
 758              		.loc 1 661 24
 759 002c 9DF80F30 		ldrb	r3, [sp, #15]	@ zero_extendqisi2
 760 0030 1846     		mov	r0, r3
 761 0032 FFF7FEFF 		bl	gpio_dev_get_port_reg_ptr
 762 0036 0290     		str	r0, [sp, #8]
 662:d:\project\9388\e1\2023_7_27\sr5e1_l9388_freeosek\modules\drivers\system\gpio\include\gpio.h **** 
 663:d:\project\9388\e1\2023_7_27\sr5e1_l9388_freeosek\modules\drivers\system\gpio\include\gpio.h ****     if (p != NULL) {
 763              		.loc 1 663 8
 764 0038 029B     		ldr	r3, [sp, #8]
 765 003a 002B     		cmp	r3, #0
 766 003c 17D0     		beq	.L28
 664:d:\project\9388\e1\2023_7_27\sr5e1_l9388_freeosek\modules\drivers\system\gpio\include\gpio.h ****         p->SAFEVALR &= (uint32_t)(~(0x1U << pin));
 767              		.loc 1 664 21
 768 003e 029B     		ldr	r3, [sp, #8]
 769 0040 5A6B     		ldr	r2, [r3, #52]
 770              		.loc 1 664 42
 771 0042 9DF80E30 		ldrb	r3, [sp, #14]	@ zero_extendqisi2
 772 0046 0121     		movs	r1, #1
 773 0048 01FA03F3 		lsl	r3, r1, r3
 774              		.loc 1 664 35
 775 004c DB43     		mvns	r3, r3
 776              		.loc 1 664 21
 777 004e 1A40     		ands	r2, r2, r3
 778 0050 029B     		ldr	r3, [sp, #8]
 779 0052 5A63     		str	r2, [r3, #52]
 665:d:\project\9388\e1\2023_7_27\sr5e1_l9388_freeosek\modules\drivers\system\gpio\include\gpio.h ****         p->SAFEVALR |= (uint32_t)((safeval & 0x1U) << pin);
 780              		.loc 1 665 21
 781 0054 029B     		ldr	r3, [sp, #8]
 782 0056 5A6B     		ldr	r2, [r3, #52]
 783              		.loc 1 665 44
 784 0058 9DF80530 		ldrb	r3, [sp, #5]	@ zero_extendqisi2
 785 005c 03F00101 		and	r1, r3, #1
 786              		.loc 1 665 24
 787 0060 9DF80E30 		ldrb	r3, [sp, #14]	@ zero_extendqisi2
 788              		.loc 1 665 52
 789 0064 01FA03F3 		lsl	r3, r1, r3
 790              		.loc 1 665 21
 791 0068 1A43     		orrs	r2, r2, r3
 792 006a 029B     		ldr	r3, [sp, #8]
 793 006c 5A63     		str	r2, [r3, #52]
 794              	.L28:
 666:d:\project\9388\e1\2023_7_27\sr5e1_l9388_freeosek\modules\drivers\system\gpio\include\gpio.h ****     }
 667:d:\project\9388\e1\2023_7_27\sr5e1_l9388_freeosek\modules\drivers\system\gpio\include\gpio.h **** }
 795              		.loc 1 667 1
 796 006e 00BF     		nop
 797 0070 05B0     		add	sp, sp, #20
 798              		.cfi_def_cfa_offset 4
 799              		@ sp needed
 800 0072 5DF804FB 		ldr	pc, [sp], #4
 801              		.cfi_endproc
 802              	.LFE405:
 804 0076 00BF     		.section	.text.gpio_set_pin_mode,"ax",%progbits
 805              		.align	1
 806              		.p2align 4,,15
 807              		.syntax unified
 808              		.thumb
 809              		.thumb_func
 811              	gpio_set_pin_mode:
 812              	.LFB406:
 668:d:\project\9388\e1\2023_7_27\sr5e1_l9388_freeosek\modules\drivers\system\gpio\include\gpio.h **** 
 669:d:\project\9388\e1\2023_7_27\sr5e1_l9388_freeosek\modules\drivers\system\gpio\include\gpio.h **** /**
 670:d:\project\9388\e1\2023_7_27\sr5e1_l9388_freeosek\modules\drivers\system\gpio\include\gpio.h ****  * @brief   Configures pin mode
 671:d:\project\9388\e1\2023_7_27\sr5e1_l9388_freeosek\modules\drivers\system\gpio\include\gpio.h ****  * @note    Congigures properties of the pin related to the unique pin
 672:d:\project\9388\e1\2023_7_27\sr5e1_l9388_freeosek\modules\drivers\system\gpio\include\gpio.h ****  *          identifier.
 673:d:\project\9388\e1\2023_7_27\sr5e1_l9388_freeosek\modules\drivers\system\gpio\include\gpio.h ****  *
 674:d:\project\9388\e1\2023_7_27\sr5e1_l9388_freeosek\modules\drivers\system\gpio\include\gpio.h ****  * @param[in] io        unique pin identifier
 675:d:\project\9388\e1\2023_7_27\sr5e1_l9388_freeosek\modules\drivers\system\gpio\include\gpio.h ****  * @param[in] mode      pin configuration
 676:d:\project\9388\e1\2023_7_27\sr5e1_l9388_freeosek\modules\drivers\system\gpio\include\gpio.h ****  *
 677:d:\project\9388\e1\2023_7_27\sr5e1_l9388_freeosek\modules\drivers\system\gpio\include\gpio.h ****  * @api
 678:d:\project\9388\e1\2023_7_27\sr5e1_l9388_freeosek\modules\drivers\system\gpio\include\gpio.h ****  */
 679:d:\project\9388\e1\2023_7_27\sr5e1_l9388_freeosek\modules\drivers\system\gpio\include\gpio.h **** __STATIC_INLINE void gpio_set_pin_mode(gpio_io_t io,
 680:d:\project\9388\e1\2023_7_27\sr5e1_l9388_freeosek\modules\drivers\system\gpio\include\gpio.h ****                                        uint32_t mode) {
 813              		.loc 1 680 55
 814              		.cfi_startproc
 815              		@ args = 0, pretend = 0, frame = 8
 816              		@ frame_needed = 0, uses_anonymous_args = 0
 817 0000 00B5     		push	{lr}
 818              		.cfi_def_cfa_offset 4
 819              		.cfi_offset 14, -4
 820 0002 83B0     		sub	sp, sp, #12
 821              		.cfi_def_cfa_offset 16
 822 0004 0346     		mov	r3, r0
 823 0006 0091     		str	r1, [sp]
 824 0008 ADF80630 		strh	r3, [sp, #6]	@ movhi
 681:d:\project\9388\e1\2023_7_27\sr5e1_l9388_freeosek\modules\drivers\system\gpio\include\gpio.h **** 
 682:d:\project\9388\e1\2023_7_27\sr5e1_l9388_freeosek\modules\drivers\system\gpio\include\gpio.h ****     gpio_set_pin_moder   (io, (gpio_mode_t)((mode & GPIO_MODE_MODER_MASK) >> GPIO_MODE_MODER_POS));
 825              		.loc 1 682 5
 826 000c 009B     		ldr	r3, [sp]
 827 000e DBB2     		uxtb	r3, r3
 828              		.loc 1 682 51
 829 0010 03F00303 		and	r3, r3, #3
 830 0014 DAB2     		uxtb	r2, r3
 831              		.loc 1 682 5
 832 0016 BDF80630 		ldrh	r3, [sp, #6]
 833 001a 1146     		mov	r1, r2
 834 001c 1846     		mov	r0, r3
 835 001e FFF7FEFF 		bl	gpio_set_pin_moder
 683:d:\project\9388\e1\2023_7_27\sr5e1_l9388_freeosek\modules\drivers\system\gpio\include\gpio.h ****     gpio_set_pin_otyper  (io, (gpio_otype_t)((mode & GPIO_MODE_OTYPER_MASK) >> GPIO_MODE_OTYPER_POS
 836              		.loc 1 683 77
 837 0022 009B     		ldr	r3, [sp]
 838 0024 9B08     		lsrs	r3, r3, #2
 839 0026 03F00103 		and	r3, r3, #1
 840              		.loc 1 683 5
 841 002a DAB2     		uxtb	r2, r3
 842 002c BDF80630 		ldrh	r3, [sp, #6]
 843 0030 1146     		mov	r1, r2
 844 0032 1846     		mov	r0, r3
 845 0034 FFF7FEFF 		bl	gpio_set_pin_otyper
 684:d:\project\9388\e1\2023_7_27\sr5e1_l9388_freeosek\modules\drivers\system\gpio\include\gpio.h ****     gpio_set_pin_ospeedr (io, (gpio_ospeed_t)((mode & GPIO_MODE_OSPEEDR_MASK) >> GPIO_MODE_OSPEEDR_
 846              		.loc 1 684 79
 847 0038 009B     		ldr	r3, [sp]
 848 003a DB08     		lsrs	r3, r3, #3
 849 003c 03F00303 		and	r3, r3, #3
 850              		.loc 1 684 5
 851 0040 DAB2     		uxtb	r2, r3
 852 0042 BDF80630 		ldrh	r3, [sp, #6]
 853 0046 1146     		mov	r1, r2
 854 0048 1846     		mov	r0, r3
 855 004a FFF7FEFF 		bl	gpio_set_pin_ospeedr
 685:d:\project\9388\e1\2023_7_27\sr5e1_l9388_freeosek\modules\drivers\system\gpio\include\gpio.h ****     gpio_set_pin_pupdr   (io, (gpio_pupd_t)((mode & GPIO_MODE_PUPDR_MASK) >> GPIO_MODE_PUPDR_POS));
 856              		.loc 1 685 75
 857 004e 009B     		ldr	r3, [sp]
 858 0050 5B09     		lsrs	r3, r3, #5
 859 0052 03F00303 		and	r3, r3, #3
 860              		.loc 1 685 5
 861 0056 DAB2     		uxtb	r2, r3
 862 0058 BDF80630 		ldrh	r3, [sp, #6]
 863 005c 1146     		mov	r1, r2
 864 005e 1846     		mov	r0, r3
 865 0060 FFF7FEFF 		bl	gpio_set_pin_pupdr
 686:d:\project\9388\e1\2023_7_27\sr5e1_l9388_freeosek\modules\drivers\system\gpio\include\gpio.h ****     gpio_set_pin_afr     (io, (gpio_af_t)((mode & GPIO_MODE_AFR_MASK) >> GPIO_MODE_AFR_POS));
 866              		.loc 1 686 71
 867 0064 009B     		ldr	r3, [sp]
 868 0066 DB09     		lsrs	r3, r3, #7
 869              		.loc 1 686 31
 870 0068 DBB2     		uxtb	r3, r3
 871              		.loc 1 686 5
 872 006a 03F00F03 		and	r3, r3, #15
 873 006e DAB2     		uxtb	r2, r3
 874 0070 BDF80630 		ldrh	r3, [sp, #6]
 875 0074 1146     		mov	r1, r2
 876 0076 1846     		mov	r0, r3
 877 0078 FFF7FEFF 		bl	gpio_set_pin_afr
 687:d:\project\9388\e1\2023_7_27\sr5e1_l9388_freeosek\modules\drivers\system\gpio\include\gpio.h ****     gpio_set_pin_ihystr  (io, (gpio_ihyst_t)((mode & GPIO_MODE_IHYSTR_MASK) >> GPIO_MODE_IHYSTR_POS
 878              		.loc 1 687 77
 879 007c 009B     		ldr	r3, [sp]
 880 007e DB0A     		lsrs	r3, r3, #11
 881 0080 03F00303 		and	r3, r3, #3
 882              		.loc 1 687 5
 883 0084 DAB2     		uxtb	r2, r3
 884 0086 BDF80630 		ldrh	r3, [sp, #6]
 885 008a 1146     		mov	r1, r2
 886 008c 1846     		mov	r0, r3
 887 008e FFF7FEFF 		bl	gpio_set_pin_ihystr
 688:d:\project\9388\e1\2023_7_27\sr5e1_l9388_freeosek\modules\drivers\system\gpio\include\gpio.h ****     gpio_set_pin_trigenr (io, (gpio_trigen_t)((mode & GPIO_MODE_TRIGENR_MASK) >> GPIO_MODE_TRIGENR_
 888              		.loc 1 688 79
 889 0092 009B     		ldr	r3, [sp]
 890 0094 5B0B     		lsrs	r3, r3, #13
 891 0096 03F00103 		and	r3, r3, #1
 892              		.loc 1 688 5
 893 009a DAB2     		uxtb	r2, r3
 894 009c BDF80630 		ldrh	r3, [sp, #6]
 895 00a0 1146     		mov	r1, r2
 896 00a2 1846     		mov	r0, r3
 897 00a4 FFF7FEFF 		bl	gpio_set_pin_trigenr
 689:d:\project\9388\e1\2023_7_27\sr5e1_l9388_freeosek\modules\drivers\system\gpio\include\gpio.h ****     gpio_set_pin_safeselr(io, (gpio_safesel_t)((mode & GPIO_MODE_SAFESELR_MASK) >> GPIO_MODE_SAFESE
 898              		.loc 1 689 81
 899 00a8 009B     		ldr	r3, [sp]
 900 00aa 9B0B     		lsrs	r3, r3, #14
 901 00ac 03F00103 		and	r3, r3, #1
 902              		.loc 1 689 5
 903 00b0 DAB2     		uxtb	r2, r3
 904 00b2 BDF80630 		ldrh	r3, [sp, #6]
 905 00b6 1146     		mov	r1, r2
 906 00b8 1846     		mov	r0, r3
 907 00ba FFF7FEFF 		bl	gpio_set_pin_safeselr
 690:d:\project\9388\e1\2023_7_27\sr5e1_l9388_freeosek\modules\drivers\system\gpio\include\gpio.h ****     gpio_set_pin_safevalr(io, (gpio_safeval_t)((mode & GPIO_MODE_SAFEVALR_MASK) >> GPIO_MODE_SAFEVA
 908              		.loc 1 690 81
 909 00be 009B     		ldr	r3, [sp]
 910 00c0 DB0B     		lsrs	r3, r3, #15
 911 00c2 03F00103 		and	r3, r3, #1
 912              		.loc 1 690 5
 913 00c6 DAB2     		uxtb	r2, r3
 914 00c8 BDF80630 		ldrh	r3, [sp, #6]
 915 00cc 1146     		mov	r1, r2
 916 00ce 1846     		mov	r0, r3
 917 00d0 FFF7FEFF 		bl	gpio_set_pin_safevalr
 691:d:\project\9388\e1\2023_7_27\sr5e1_l9388_freeosek\modules\drivers\system\gpio\include\gpio.h **** }
 918              		.loc 1 691 1
 919 00d4 00BF     		nop
 920 00d6 03B0     		add	sp, sp, #12
 921              		.cfi_def_cfa_offset 4
 922              		@ sp needed
 923 00d8 5DF804FB 		ldr	pc, [sp], #4
 924              		.cfi_endproc
 925              	.LFE406:
 927              		.section	.text.evbe7000p_init,"ax",%progbits
 928              		.align	1
 929              		.p2align 4,,15
 930              		.syntax unified
 931              		.thumb
 932              		.thumb_func
 934              	evbe7000p_init:
 935              	.LFB432:
 936              		.file 2 "d:\\project\\9388\\e1\\2023_7_27\\sr5e1_l9388_freeosek\\modules\\platform\\board\\include
   1:d:\project\9388\e1\2023_7_27\sr5e1_l9388_freeosek\modules\platform\board\include\sr5e1\evbe7000p.h **** /****************************************************************************
   2:d:\project\9388\e1\2023_7_27\sr5e1_l9388_freeosek\modules\platform\board\include\sr5e1\evbe7000p.h ****  *
   3:d:\project\9388\e1\2023_7_27\sr5e1_l9388_freeosek\modules\platform\board\include\sr5e1\evbe7000p.h ****  * Copyright (c) 2022 STMicroelectronics - All Rights Reserved
   4:d:\project\9388\e1\2023_7_27\sr5e1_l9388_freeosek\modules\platform\board\include\sr5e1\evbe7000p.h ****  *
   5:d:\project\9388\e1\2023_7_27\sr5e1_l9388_freeosek\modules\platform\board\include\sr5e1\evbe7000p.h ****  * License terms: STMicroelectronics Proprietary in accordance with licensing
   6:d:\project\9388\e1\2023_7_27\sr5e1_l9388_freeosek\modules\platform\board\include\sr5e1\evbe7000p.h ****  * terms SLA0098 at www.st.com.
   7:d:\project\9388\e1\2023_7_27\sr5e1_l9388_freeosek\modules\platform\board\include\sr5e1\evbe7000p.h ****  *
   8:d:\project\9388\e1\2023_7_27\sr5e1_l9388_freeosek\modules\platform\board\include\sr5e1\evbe7000p.h ****  * THIS SOFTWARE IS DISTRIBUTED "AS IS," AND ALL WARRANTIES ARE DISCLAIMED,
   9:d:\project\9388\e1\2023_7_27\sr5e1_l9388_freeosek\modules\platform\board\include\sr5e1\evbe7000p.h ****  * INCLUDING MERCHANTABILITY AND FITNESS FOR A PARTICULAR PURPOSE.
  10:d:\project\9388\e1\2023_7_27\sr5e1_l9388_freeosek\modules\platform\board\include\sr5e1\evbe7000p.h ****  *
  11:d:\project\9388\e1\2023_7_27\sr5e1_l9388_freeosek\modules\platform\board\include\sr5e1\evbe7000p.h ****  *****************************************************************************/
  12:d:\project\9388\e1\2023_7_27\sr5e1_l9388_freeosek\modules\platform\board\include\sr5e1\evbe7000p.h **** /**
  13:d:\project\9388\e1\2023_7_27\sr5e1_l9388_freeosek\modules\platform\board\include\sr5e1\evbe7000p.h ****  * @file    evbe7000p.h
  14:d:\project\9388\e1\2023_7_27\sr5e1_l9388_freeosek\modules\platform\board\include\sr5e1\evbe7000p.h ****  * @brief   SR5E1-EVBE7000P board header file.
  15:d:\project\9388\e1\2023_7_27\sr5e1_l9388_freeosek\modules\platform\board\include\sr5e1\evbe7000p.h ****  *
  16:d:\project\9388\e1\2023_7_27\sr5e1_l9388_freeosek\modules\platform\board\include\sr5e1\evbe7000p.h ****  * @addtogroup PLATFORM
  17:d:\project\9388\e1\2023_7_27\sr5e1_l9388_freeosek\modules\platform\board\include\sr5e1\evbe7000p.h ****  * @addtogroup BOARD
  18:d:\project\9388\e1\2023_7_27\sr5e1_l9388_freeosek\modules\platform\board\include\sr5e1\evbe7000p.h ****  * @ingroup PLATFORM
  19:d:\project\9388\e1\2023_7_27\sr5e1_l9388_freeosek\modules\platform\board\include\sr5e1\evbe7000p.h ****  * @addtogroup EVBE7000P
  20:d:\project\9388\e1\2023_7_27\sr5e1_l9388_freeosek\modules\platform\board\include\sr5e1\evbe7000p.h ****  * @ingroup BOARD
  21:d:\project\9388\e1\2023_7_27\sr5e1_l9388_freeosek\modules\platform\board\include\sr5e1\evbe7000p.h ****  * @{
  22:d:\project\9388\e1\2023_7_27\sr5e1_l9388_freeosek\modules\platform\board\include\sr5e1\evbe7000p.h ****  */
  23:d:\project\9388\e1\2023_7_27\sr5e1_l9388_freeosek\modules\platform\board\include\sr5e1\evbe7000p.h **** 
  24:d:\project\9388\e1\2023_7_27\sr5e1_l9388_freeosek\modules\platform\board\include\sr5e1\evbe7000p.h **** #ifndef _EVBE7000P_H_
  25:d:\project\9388\e1\2023_7_27\sr5e1_l9388_freeosek\modules\platform\board\include\sr5e1\evbe7000p.h **** #define _EVBE7000P_H_
  26:d:\project\9388\e1\2023_7_27\sr5e1_l9388_freeosek\modules\platform\board\include\sr5e1\evbe7000p.h **** 
  27:d:\project\9388\e1\2023_7_27\sr5e1_l9388_freeosek\modules\platform\board\include\sr5e1\evbe7000p.h **** #include <gpio.h>
  28:d:\project\9388\e1\2023_7_27\sr5e1_l9388_freeosek\modules\platform\board\include\sr5e1\evbe7000p.h **** #include <platform.h>
  29:d:\project\9388\e1\2023_7_27\sr5e1_l9388_freeosek\modules\platform\board\include\sr5e1\evbe7000p.h **** #include <typedefs.h>
  30:d:\project\9388\e1\2023_7_27\sr5e1_l9388_freeosek\modules\platform\board\include\sr5e1\evbe7000p.h **** 
  31:d:\project\9388\e1\2023_7_27\sr5e1_l9388_freeosek\modules\platform\board\include\sr5e1\evbe7000p.h **** /*===========================================================================*/
  32:d:\project\9388\e1\2023_7_27\sr5e1_l9388_freeosek\modules\platform\board\include\sr5e1\evbe7000p.h **** /* Module constants.                                                         */
  33:d:\project\9388\e1\2023_7_27\sr5e1_l9388_freeosek\modules\platform\board\include\sr5e1\evbe7000p.h **** /*===========================================================================*/
  34:d:\project\9388\e1\2023_7_27\sr5e1_l9388_freeosek\modules\platform\board\include\sr5e1\evbe7000p.h **** 
  35:d:\project\9388\e1\2023_7_27\sr5e1_l9388_freeosek\modules\platform\board\include\sr5e1\evbe7000p.h **** #define EVBE7000P 1
  36:d:\project\9388\e1\2023_7_27\sr5e1_l9388_freeosek\modules\platform\board\include\sr5e1\evbe7000p.h **** 
  37:d:\project\9388\e1\2023_7_27\sr5e1_l9388_freeosek\modules\platform\board\include\sr5e1\evbe7000p.h **** /* GPIO-related settings.*/
  38:d:\project\9388\e1\2023_7_27\sr5e1_l9388_freeosek\modules\platform\board\include\sr5e1\evbe7000p.h **** 
  39:d:\project\9388\e1\2023_7_27\sr5e1_l9388_freeosek\modules\platform\board\include\sr5e1\evbe7000p.h **** /* PortA pin settings. */
  40:d:\project\9388\e1\2023_7_27\sr5e1_l9388_freeosek\modules\platform\board\include\sr5e1\evbe7000p.h **** #define TIM16_CH1 gpio_iopack(GPIO_PORT_A, GPIO_PIN_0)
  41:d:\project\9388\e1\2023_7_27\sr5e1_l9388_freeosek\modules\platform\board\include\sr5e1\evbe7000p.h **** #define TIM16_CH1_CFG                            \
  42:d:\project\9388\e1\2023_7_27\sr5e1_l9388_freeosek\modules\platform\board\include\sr5e1\evbe7000p.h ****     (GPIO_MODE_MODER_ALTERNATE |                 \
  43:d:\project\9388\e1\2023_7_27\sr5e1_l9388_freeosek\modules\platform\board\include\sr5e1\evbe7000p.h ****      GPIO_MODE_OTYPER_PUSHPULL |                 \
  44:d:\project\9388\e1\2023_7_27\sr5e1_l9388_freeosek\modules\platform\board\include\sr5e1\evbe7000p.h ****      GPIO_MODE_OSPEEDR_LOW |                     \
  45:d:\project\9388\e1\2023_7_27\sr5e1_l9388_freeosek\modules\platform\board\include\sr5e1\evbe7000p.h ****      GPIO_MODE_PUPDR_FLOATING |                  \
  46:d:\project\9388\e1\2023_7_27\sr5e1_l9388_freeosek\modules\platform\board\include\sr5e1\evbe7000p.h ****      GPIO_MODE_AFR(1U) |                         \
  47:d:\project\9388\e1\2023_7_27\sr5e1_l9388_freeosek\modules\platform\board\include\sr5e1\evbe7000p.h ****      GPIO_MODE_IHYSTR_CMOS |                     \
  48:d:\project\9388\e1\2023_7_27\sr5e1_l9388_freeosek\modules\platform\board\include\sr5e1\evbe7000p.h ****      GPIO_MODE_TRIGENR_IN_ENABLED |              \
  49:d:\project\9388\e1\2023_7_27\sr5e1_l9388_freeosek\modules\platform\board\include\sr5e1\evbe7000p.h ****      GPIO_MODE_SAFESELR_DISABLED |               \
  50:d:\project\9388\e1\2023_7_27\sr5e1_l9388_freeosek\modules\platform\board\include\sr5e1\evbe7000p.h ****      GPIO_MODE_SAFEVALR_LOW)
  51:d:\project\9388\e1\2023_7_27\sr5e1_l9388_freeosek\modules\platform\board\include\sr5e1\evbe7000p.h **** 
  52:d:\project\9388\e1\2023_7_27\sr5e1_l9388_freeosek\modules\platform\board\include\sr5e1\evbe7000p.h **** #define TIM16_CH1N gpio_iopack(GPIO_PORT_A, GPIO_PIN_1)
  53:d:\project\9388\e1\2023_7_27\sr5e1_l9388_freeosek\modules\platform\board\include\sr5e1\evbe7000p.h **** #define TIM16_CH1N_CFG                           \
  54:d:\project\9388\e1\2023_7_27\sr5e1_l9388_freeosek\modules\platform\board\include\sr5e1\evbe7000p.h ****     (GPIO_MODE_MODER_ALTERNATE |                 \
  55:d:\project\9388\e1\2023_7_27\sr5e1_l9388_freeosek\modules\platform\board\include\sr5e1\evbe7000p.h ****      GPIO_MODE_OTYPER_PUSHPULL |                 \
  56:d:\project\9388\e1\2023_7_27\sr5e1_l9388_freeosek\modules\platform\board\include\sr5e1\evbe7000p.h ****      GPIO_MODE_OSPEEDR_LOW |                     \
  57:d:\project\9388\e1\2023_7_27\sr5e1_l9388_freeosek\modules\platform\board\include\sr5e1\evbe7000p.h ****      GPIO_MODE_PUPDR_FLOATING |                  \
  58:d:\project\9388\e1\2023_7_27\sr5e1_l9388_freeosek\modules\platform\board\include\sr5e1\evbe7000p.h ****      GPIO_MODE_AFR(1U) |                         \
  59:d:\project\9388\e1\2023_7_27\sr5e1_l9388_freeosek\modules\platform\board\include\sr5e1\evbe7000p.h ****      GPIO_MODE_IHYSTR_CMOS |                     \
  60:d:\project\9388\e1\2023_7_27\sr5e1_l9388_freeosek\modules\platform\board\include\sr5e1\evbe7000p.h ****      GPIO_MODE_TRIGENR_IN_DISABLED |             \
  61:d:\project\9388\e1\2023_7_27\sr5e1_l9388_freeosek\modules\platform\board\include\sr5e1\evbe7000p.h ****      GPIO_MODE_SAFESELR_DISABLED |               \
  62:d:\project\9388\e1\2023_7_27\sr5e1_l9388_freeosek\modules\platform\board\include\sr5e1\evbe7000p.h ****      GPIO_MODE_SAFEVALR_LOW)
  63:d:\project\9388\e1\2023_7_27\sr5e1_l9388_freeosek\modules\platform\board\include\sr5e1\evbe7000p.h **** 
  64:d:\project\9388\e1\2023_7_27\sr5e1_l9388_freeosek\modules\platform\board\include\sr5e1\evbe7000p.h **** #define TIM16_BKIN gpio_iopack(GPIO_PORT_A, GPIO_PIN_2)
  65:d:\project\9388\e1\2023_7_27\sr5e1_l9388_freeosek\modules\platform\board\include\sr5e1\evbe7000p.h **** #define TIM16_BKIN_CFG                           \
  66:d:\project\9388\e1\2023_7_27\sr5e1_l9388_freeosek\modules\platform\board\include\sr5e1\evbe7000p.h ****     (GPIO_MODE_MODER_ALTERNATE |                 \
  67:d:\project\9388\e1\2023_7_27\sr5e1_l9388_freeosek\modules\platform\board\include\sr5e1\evbe7000p.h ****      GPIO_MODE_OTYPER_PUSHPULL |                 \
  68:d:\project\9388\e1\2023_7_27\sr5e1_l9388_freeosek\modules\platform\board\include\sr5e1\evbe7000p.h ****      GPIO_MODE_OSPEEDR_LOW |                     \
  69:d:\project\9388\e1\2023_7_27\sr5e1_l9388_freeosek\modules\platform\board\include\sr5e1\evbe7000p.h ****      GPIO_MODE_PUPDR_FLOATING |                  \
  70:d:\project\9388\e1\2023_7_27\sr5e1_l9388_freeosek\modules\platform\board\include\sr5e1\evbe7000p.h ****      GPIO_MODE_AFR(1U) |                         \
  71:d:\project\9388\e1\2023_7_27\sr5e1_l9388_freeosek\modules\platform\board\include\sr5e1\evbe7000p.h ****      GPIO_MODE_IHYSTR_CMOS |                     \
  72:d:\project\9388\e1\2023_7_27\sr5e1_l9388_freeosek\modules\platform\board\include\sr5e1\evbe7000p.h ****      GPIO_MODE_TRIGENR_IN_ENABLED |              \
  73:d:\project\9388\e1\2023_7_27\sr5e1_l9388_freeosek\modules\platform\board\include\sr5e1\evbe7000p.h ****      GPIO_MODE_SAFESELR_DISABLED |               \
  74:d:\project\9388\e1\2023_7_27\sr5e1_l9388_freeosek\modules\platform\board\include\sr5e1\evbe7000p.h ****      GPIO_MODE_SAFEVALR_LOW)
  75:d:\project\9388\e1\2023_7_27\sr5e1_l9388_freeosek\modules\platform\board\include\sr5e1\evbe7000p.h **** 
  76:d:\project\9388\e1\2023_7_27\sr5e1_l9388_freeosek\modules\platform\board\include\sr5e1\evbe7000p.h **** #define TIM8_ETR gpio_iopack(GPIO_PORT_A, GPIO_PIN_3)
  77:d:\project\9388\e1\2023_7_27\sr5e1_l9388_freeosek\modules\platform\board\include\sr5e1\evbe7000p.h **** #define TIM8_ETR_CFG                             \
  78:d:\project\9388\e1\2023_7_27\sr5e1_l9388_freeosek\modules\platform\board\include\sr5e1\evbe7000p.h ****     (GPIO_MODE_MODER_ALTERNATE |                 \
  79:d:\project\9388\e1\2023_7_27\sr5e1_l9388_freeosek\modules\platform\board\include\sr5e1\evbe7000p.h ****      GPIO_MODE_OTYPER_PUSHPULL |                 \
  80:d:\project\9388\e1\2023_7_27\sr5e1_l9388_freeosek\modules\platform\board\include\sr5e1\evbe7000p.h ****      GPIO_MODE_OSPEEDR_LOW |                     \
  81:d:\project\9388\e1\2023_7_27\sr5e1_l9388_freeosek\modules\platform\board\include\sr5e1\evbe7000p.h ****      GPIO_MODE_PUPDR_FLOATING |                  \
  82:d:\project\9388\e1\2023_7_27\sr5e1_l9388_freeosek\modules\platform\board\include\sr5e1\evbe7000p.h ****      GPIO_MODE_AFR(4U) |                         \
  83:d:\project\9388\e1\2023_7_27\sr5e1_l9388_freeosek\modules\platform\board\include\sr5e1\evbe7000p.h ****      GPIO_MODE_IHYSTR_CMOS |                     \
  84:d:\project\9388\e1\2023_7_27\sr5e1_l9388_freeosek\modules\platform\board\include\sr5e1\evbe7000p.h ****      GPIO_MODE_TRIGENR_IN_ENABLED |              \
  85:d:\project\9388\e1\2023_7_27\sr5e1_l9388_freeosek\modules\platform\board\include\sr5e1\evbe7000p.h ****      GPIO_MODE_SAFESELR_DISABLED |               \
  86:d:\project\9388\e1\2023_7_27\sr5e1_l9388_freeosek\modules\platform\board\include\sr5e1\evbe7000p.h ****      GPIO_MODE_SAFEVALR_LOW)
  87:d:\project\9388\e1\2023_7_27\sr5e1_l9388_freeosek\modules\platform\board\include\sr5e1\evbe7000p.h **** 
  88:d:\project\9388\e1\2023_7_27\sr5e1_l9388_freeosek\modules\platform\board\include\sr5e1\evbe7000p.h **** #define CAN1_RX gpio_iopack(GPIO_PORT_A, GPIO_PIN_4)
  89:d:\project\9388\e1\2023_7_27\sr5e1_l9388_freeosek\modules\platform\board\include\sr5e1\evbe7000p.h **** #define CAN1_RX_CFG                              \
  90:d:\project\9388\e1\2023_7_27\sr5e1_l9388_freeosek\modules\platform\board\include\sr5e1\evbe7000p.h ****     (GPIO_MODE_MODER_ALTERNATE |                 \
  91:d:\project\9388\e1\2023_7_27\sr5e1_l9388_freeosek\modules\platform\board\include\sr5e1\evbe7000p.h ****      GPIO_MODE_OTYPER_PUSHPULL |                 \
  92:d:\project\9388\e1\2023_7_27\sr5e1_l9388_freeosek\modules\platform\board\include\sr5e1\evbe7000p.h ****      GPIO_MODE_OSPEEDR_HIGH |                    \
  93:d:\project\9388\e1\2023_7_27\sr5e1_l9388_freeosek\modules\platform\board\include\sr5e1\evbe7000p.h ****      GPIO_MODE_PUPDR_FLOATING |                  \
  94:d:\project\9388\e1\2023_7_27\sr5e1_l9388_freeosek\modules\platform\board\include\sr5e1\evbe7000p.h ****      GPIO_MODE_AFR(6U) |                         \
  95:d:\project\9388\e1\2023_7_27\sr5e1_l9388_freeosek\modules\platform\board\include\sr5e1\evbe7000p.h ****      GPIO_MODE_IHYSTR_CMOS |                     \
  96:d:\project\9388\e1\2023_7_27\sr5e1_l9388_freeosek\modules\platform\board\include\sr5e1\evbe7000p.h ****      GPIO_MODE_TRIGENR_IN_ENABLED |              \
  97:d:\project\9388\e1\2023_7_27\sr5e1_l9388_freeosek\modules\platform\board\include\sr5e1\evbe7000p.h ****      GPIO_MODE_SAFESELR_DISABLED |               \
  98:d:\project\9388\e1\2023_7_27\sr5e1_l9388_freeosek\modules\platform\board\include\sr5e1\evbe7000p.h ****      GPIO_MODE_SAFEVALR_LOW)
  99:d:\project\9388\e1\2023_7_27\sr5e1_l9388_freeosek\modules\platform\board\include\sr5e1\evbe7000p.h **** 
 100:d:\project\9388\e1\2023_7_27\sr5e1_l9388_freeosek\modules\platform\board\include\sr5e1\evbe7000p.h **** #define CAN1_TX gpio_iopack(GPIO_PORT_A, GPIO_PIN_5)
 101:d:\project\9388\e1\2023_7_27\sr5e1_l9388_freeosek\modules\platform\board\include\sr5e1\evbe7000p.h **** #define CAN1_TX_CFG                              \
 102:d:\project\9388\e1\2023_7_27\sr5e1_l9388_freeosek\modules\platform\board\include\sr5e1\evbe7000p.h ****     (GPIO_MODE_MODER_ALTERNATE |                 \
 103:d:\project\9388\e1\2023_7_27\sr5e1_l9388_freeosek\modules\platform\board\include\sr5e1\evbe7000p.h ****      GPIO_MODE_OTYPER_PUSHPULL |                 \
 104:d:\project\9388\e1\2023_7_27\sr5e1_l9388_freeosek\modules\platform\board\include\sr5e1\evbe7000p.h ****      GPIO_MODE_OSPEEDR_HIGH |                    \
 105:d:\project\9388\e1\2023_7_27\sr5e1_l9388_freeosek\modules\platform\board\include\sr5e1\evbe7000p.h ****      GPIO_MODE_PUPDR_FLOATING |                  \
 106:d:\project\9388\e1\2023_7_27\sr5e1_l9388_freeosek\modules\platform\board\include\sr5e1\evbe7000p.h ****      GPIO_MODE_AFR(6U) |                         \
 107:d:\project\9388\e1\2023_7_27\sr5e1_l9388_freeosek\modules\platform\board\include\sr5e1\evbe7000p.h ****      GPIO_MODE_IHYSTR_CMOS |                     \
 108:d:\project\9388\e1\2023_7_27\sr5e1_l9388_freeosek\modules\platform\board\include\sr5e1\evbe7000p.h ****      GPIO_MODE_TRIGENR_IN_DISABLED |             \
 109:d:\project\9388\e1\2023_7_27\sr5e1_l9388_freeosek\modules\platform\board\include\sr5e1\evbe7000p.h ****      GPIO_MODE_SAFESELR_DISABLED |               \
 110:d:\project\9388\e1\2023_7_27\sr5e1_l9388_freeosek\modules\platform\board\include\sr5e1\evbe7000p.h ****      GPIO_MODE_SAFEVALR_LOW)
 111:d:\project\9388\e1\2023_7_27\sr5e1_l9388_freeosek\modules\platform\board\include\sr5e1\evbe7000p.h **** 
 112:d:\project\9388\e1\2023_7_27\sr5e1_l9388_freeosek\modules\platform\board\include\sr5e1\evbe7000p.h **** #define I2C_SDA gpio_iopack(GPIO_PORT_A, GPIO_PIN_6)
 113:d:\project\9388\e1\2023_7_27\sr5e1_l9388_freeosek\modules\platform\board\include\sr5e1\evbe7000p.h **** #define I2C_SDA_CFG                              \
 114:d:\project\9388\e1\2023_7_27\sr5e1_l9388_freeosek\modules\platform\board\include\sr5e1\evbe7000p.h ****     (GPIO_MODE_MODER_ALTERNATE |                 \
 115:d:\project\9388\e1\2023_7_27\sr5e1_l9388_freeosek\modules\platform\board\include\sr5e1\evbe7000p.h ****      GPIO_MODE_OTYPER_PUSHPULL |                 \
 116:d:\project\9388\e1\2023_7_27\sr5e1_l9388_freeosek\modules\platform\board\include\sr5e1\evbe7000p.h ****      GPIO_MODE_OSPEEDR_LOW |                     \
 117:d:\project\9388\e1\2023_7_27\sr5e1_l9388_freeosek\modules\platform\board\include\sr5e1\evbe7000p.h ****      GPIO_MODE_PUPDR_FLOATING |                  \
 118:d:\project\9388\e1\2023_7_27\sr5e1_l9388_freeosek\modules\platform\board\include\sr5e1\evbe7000p.h ****      GPIO_MODE_AFR(6U) |                         \
 119:d:\project\9388\e1\2023_7_27\sr5e1_l9388_freeosek\modules\platform\board\include\sr5e1\evbe7000p.h ****      GPIO_MODE_IHYSTR_CMOS |                     \
 120:d:\project\9388\e1\2023_7_27\sr5e1_l9388_freeosek\modules\platform\board\include\sr5e1\evbe7000p.h ****      GPIO_MODE_TRIGENR_IN_ENABLED |              \
 121:d:\project\9388\e1\2023_7_27\sr5e1_l9388_freeosek\modules\platform\board\include\sr5e1\evbe7000p.h ****      GPIO_MODE_SAFESELR_DISABLED |               \
 122:d:\project\9388\e1\2023_7_27\sr5e1_l9388_freeosek\modules\platform\board\include\sr5e1\evbe7000p.h ****      GPIO_MODE_SAFEVALR_LOW)
 123:d:\project\9388\e1\2023_7_27\sr5e1_l9388_freeosek\modules\platform\board\include\sr5e1\evbe7000p.h **** 
 124:d:\project\9388\e1\2023_7_27\sr5e1_l9388_freeosek\modules\platform\board\include\sr5e1\evbe7000p.h **** #define I2C_SCL gpio_iopack(GPIO_PORT_A, GPIO_PIN_7)			  
 125:d:\project\9388\e1\2023_7_27\sr5e1_l9388_freeosek\modules\platform\board\include\sr5e1\evbe7000p.h **** #define I2C_SCL_CFG                              \
 126:d:\project\9388\e1\2023_7_27\sr5e1_l9388_freeosek\modules\platform\board\include\sr5e1\evbe7000p.h ****     (GPIO_MODE_MODER_ALTERNATE |                 \
 127:d:\project\9388\e1\2023_7_27\sr5e1_l9388_freeosek\modules\platform\board\include\sr5e1\evbe7000p.h ****      GPIO_MODE_OTYPER_PUSHPULL |                 \
 128:d:\project\9388\e1\2023_7_27\sr5e1_l9388_freeosek\modules\platform\board\include\sr5e1\evbe7000p.h ****      GPIO_MODE_OSPEEDR_LOW |                     \
 129:d:\project\9388\e1\2023_7_27\sr5e1_l9388_freeosek\modules\platform\board\include\sr5e1\evbe7000p.h ****      GPIO_MODE_PUPDR_FLOATING |                  \
 130:d:\project\9388\e1\2023_7_27\sr5e1_l9388_freeosek\modules\platform\board\include\sr5e1\evbe7000p.h ****      GPIO_MODE_AFR(6U) |                         \
 131:d:\project\9388\e1\2023_7_27\sr5e1_l9388_freeosek\modules\platform\board\include\sr5e1\evbe7000p.h ****      GPIO_MODE_IHYSTR_CMOS |                     \
 132:d:\project\9388\e1\2023_7_27\sr5e1_l9388_freeosek\modules\platform\board\include\sr5e1\evbe7000p.h ****      GPIO_MODE_TRIGENR_IN_ENABLED |              \
 133:d:\project\9388\e1\2023_7_27\sr5e1_l9388_freeosek\modules\platform\board\include\sr5e1\evbe7000p.h ****      GPIO_MODE_SAFESELR_DISABLED |               \
 134:d:\project\9388\e1\2023_7_27\sr5e1_l9388_freeosek\modules\platform\board\include\sr5e1\evbe7000p.h ****      GPIO_MODE_SAFEVALR_LOW)
 135:d:\project\9388\e1\2023_7_27\sr5e1_l9388_freeosek\modules\platform\board\include\sr5e1\evbe7000p.h **** 
 136:d:\project\9388\e1\2023_7_27\sr5e1_l9388_freeosek\modules\platform\board\include\sr5e1\evbe7000p.h **** #define I2C_SMBA gpio_iopack(GPIO_PORT_A, GPIO_PIN_8)
 137:d:\project\9388\e1\2023_7_27\sr5e1_l9388_freeosek\modules\platform\board\include\sr5e1\evbe7000p.h **** #define I2C_SMBA_CFG                             \
 138:d:\project\9388\e1\2023_7_27\sr5e1_l9388_freeosek\modules\platform\board\include\sr5e1\evbe7000p.h ****     (GPIO_MODE_MODER_ALTERNATE |                 \
 139:d:\project\9388\e1\2023_7_27\sr5e1_l9388_freeosek\modules\platform\board\include\sr5e1\evbe7000p.h ****      GPIO_MODE_OTYPER_PUSHPULL |                 \
 140:d:\project\9388\e1\2023_7_27\sr5e1_l9388_freeosek\modules\platform\board\include\sr5e1\evbe7000p.h ****      GPIO_MODE_OSPEEDR_LOW |                     \
 141:d:\project\9388\e1\2023_7_27\sr5e1_l9388_freeosek\modules\platform\board\include\sr5e1\evbe7000p.h ****      GPIO_MODE_PUPDR_FLOATING |                  \
 142:d:\project\9388\e1\2023_7_27\sr5e1_l9388_freeosek\modules\platform\board\include\sr5e1\evbe7000p.h ****      GPIO_MODE_AFR(6U) |                         \
 143:d:\project\9388\e1\2023_7_27\sr5e1_l9388_freeosek\modules\platform\board\include\sr5e1\evbe7000p.h ****      GPIO_MODE_IHYSTR_CMOS |                     \
 144:d:\project\9388\e1\2023_7_27\sr5e1_l9388_freeosek\modules\platform\board\include\sr5e1\evbe7000p.h ****      GPIO_MODE_TRIGENR_IN_ENABLED |              \
 145:d:\project\9388\e1\2023_7_27\sr5e1_l9388_freeosek\modules\platform\board\include\sr5e1\evbe7000p.h ****      GPIO_MODE_SAFESELR_DISABLED |               \
 146:d:\project\9388\e1\2023_7_27\sr5e1_l9388_freeosek\modules\platform\board\include\sr5e1\evbe7000p.h ****      GPIO_MODE_SAFEVALR_LOW)
 147:d:\project\9388\e1\2023_7_27\sr5e1_l9388_freeosek\modules\platform\board\include\sr5e1\evbe7000p.h **** 
 148:d:\project\9388\e1\2023_7_27\sr5e1_l9388_freeosek\modules\platform\board\include\sr5e1\evbe7000p.h **** #define CAN2_TX gpio_iopack(GPIO_PORT_A, GPIO_PIN_11)
 149:d:\project\9388\e1\2023_7_27\sr5e1_l9388_freeosek\modules\platform\board\include\sr5e1\evbe7000p.h **** #define CAN2_TX_CFG                              \
 150:d:\project\9388\e1\2023_7_27\sr5e1_l9388_freeosek\modules\platform\board\include\sr5e1\evbe7000p.h ****     (GPIO_MODE_MODER_ALTERNATE |                 \
 151:d:\project\9388\e1\2023_7_27\sr5e1_l9388_freeosek\modules\platform\board\include\sr5e1\evbe7000p.h ****      GPIO_MODE_OTYPER_PUSHPULL |                 \
 152:d:\project\9388\e1\2023_7_27\sr5e1_l9388_freeosek\modules\platform\board\include\sr5e1\evbe7000p.h ****      GPIO_MODE_OSPEEDR_HIGH |                    \
 153:d:\project\9388\e1\2023_7_27\sr5e1_l9388_freeosek\modules\platform\board\include\sr5e1\evbe7000p.h ****      GPIO_MODE_PUPDR_FLOATING |                  \
 154:d:\project\9388\e1\2023_7_27\sr5e1_l9388_freeosek\modules\platform\board\include\sr5e1\evbe7000p.h ****      GPIO_MODE_AFR(6U) |                         \
 155:d:\project\9388\e1\2023_7_27\sr5e1_l9388_freeosek\modules\platform\board\include\sr5e1\evbe7000p.h ****      GPIO_MODE_IHYSTR_CMOS |                     \
 156:d:\project\9388\e1\2023_7_27\sr5e1_l9388_freeosek\modules\platform\board\include\sr5e1\evbe7000p.h ****      GPIO_MODE_TRIGENR_IN_DISABLED |             \
 157:d:\project\9388\e1\2023_7_27\sr5e1_l9388_freeosek\modules\platform\board\include\sr5e1\evbe7000p.h ****      GPIO_MODE_SAFESELR_DISABLED |               \
 158:d:\project\9388\e1\2023_7_27\sr5e1_l9388_freeosek\modules\platform\board\include\sr5e1\evbe7000p.h ****      GPIO_MODE_SAFEVALR_LOW)
 159:d:\project\9388\e1\2023_7_27\sr5e1_l9388_freeosek\modules\platform\board\include\sr5e1\evbe7000p.h **** 
 160:d:\project\9388\e1\2023_7_27\sr5e1_l9388_freeosek\modules\platform\board\include\sr5e1\evbe7000p.h **** #define CAN2_RX gpio_iopack(GPIO_PORT_A, GPIO_PIN_12)
 161:d:\project\9388\e1\2023_7_27\sr5e1_l9388_freeosek\modules\platform\board\include\sr5e1\evbe7000p.h **** #define CAN2_RX_CFG                              \
 162:d:\project\9388\e1\2023_7_27\sr5e1_l9388_freeosek\modules\platform\board\include\sr5e1\evbe7000p.h ****     (GPIO_MODE_MODER_ALTERNATE |                 \
 163:d:\project\9388\e1\2023_7_27\sr5e1_l9388_freeosek\modules\platform\board\include\sr5e1\evbe7000p.h ****      GPIO_MODE_OTYPER_PUSHPULL |                 \
 164:d:\project\9388\e1\2023_7_27\sr5e1_l9388_freeosek\modules\platform\board\include\sr5e1\evbe7000p.h ****      GPIO_MODE_OSPEEDR_HIGH |                    \
 165:d:\project\9388\e1\2023_7_27\sr5e1_l9388_freeosek\modules\platform\board\include\sr5e1\evbe7000p.h ****      GPIO_MODE_PUPDR_FLOATING |                  \
 166:d:\project\9388\e1\2023_7_27\sr5e1_l9388_freeosek\modules\platform\board\include\sr5e1\evbe7000p.h ****      GPIO_MODE_AFR(6U) |                         \
 167:d:\project\9388\e1\2023_7_27\sr5e1_l9388_freeosek\modules\platform\board\include\sr5e1\evbe7000p.h ****      GPIO_MODE_IHYSTR_CMOS |                     \
 168:d:\project\9388\e1\2023_7_27\sr5e1_l9388_freeosek\modules\platform\board\include\sr5e1\evbe7000p.h ****      GPIO_MODE_TRIGENR_IN_ENABLED |              \
 169:d:\project\9388\e1\2023_7_27\sr5e1_l9388_freeosek\modules\platform\board\include\sr5e1\evbe7000p.h ****      GPIO_MODE_SAFESELR_DISABLED |               \
 170:d:\project\9388\e1\2023_7_27\sr5e1_l9388_freeosek\modules\platform\board\include\sr5e1\evbe7000p.h ****      GPIO_MODE_SAFEVALR_LOW)
 171:d:\project\9388\e1\2023_7_27\sr5e1_l9388_freeosek\modules\platform\board\include\sr5e1\evbe7000p.h **** 
 172:d:\project\9388\e1\2023_7_27\sr5e1_l9388_freeosek\modules\platform\board\include\sr5e1\evbe7000p.h **** #define SDADC_1_0_IO gpio_iopack(GPIO_PORT_A, GPIO_PIN_13)
 173:d:\project\9388\e1\2023_7_27\sr5e1_l9388_freeosek\modules\platform\board\include\sr5e1\evbe7000p.h **** #define SDADC_1_0_IO_CFG                         \
 174:d:\project\9388\e1\2023_7_27\sr5e1_l9388_freeosek\modules\platform\board\include\sr5e1\evbe7000p.h ****     (GPIO_MODE_MODER_ANALOG |                    \
 175:d:\project\9388\e1\2023_7_27\sr5e1_l9388_freeosek\modules\platform\board\include\sr5e1\evbe7000p.h ****      GPIO_MODE_OTYPER_PUSHPULL |                 \
 176:d:\project\9388\e1\2023_7_27\sr5e1_l9388_freeosek\modules\platform\board\include\sr5e1\evbe7000p.h ****      GPIO_MODE_OSPEEDR_LOW |                     \
 177:d:\project\9388\e1\2023_7_27\sr5e1_l9388_freeosek\modules\platform\board\include\sr5e1\evbe7000p.h ****      GPIO_MODE_PUPDR_FLOATING |                  \
 178:d:\project\9388\e1\2023_7_27\sr5e1_l9388_freeosek\modules\platform\board\include\sr5e1\evbe7000p.h ****      GPIO_MODE_AFR(0U) |                         \
 179:d:\project\9388\e1\2023_7_27\sr5e1_l9388_freeosek\modules\platform\board\include\sr5e1\evbe7000p.h ****      GPIO_MODE_IHYSTR_CMOS |                     \
 180:d:\project\9388\e1\2023_7_27\sr5e1_l9388_freeosek\modules\platform\board\include\sr5e1\evbe7000p.h ****      GPIO_MODE_TRIGENR_IN_ENABLED |              \
 181:d:\project\9388\e1\2023_7_27\sr5e1_l9388_freeosek\modules\platform\board\include\sr5e1\evbe7000p.h ****      GPIO_MODE_SAFESELR_DISABLED |               \
 182:d:\project\9388\e1\2023_7_27\sr5e1_l9388_freeosek\modules\platform\board\include\sr5e1\evbe7000p.h ****      GPIO_MODE_SAFEVALR_LOW)
 183:d:\project\9388\e1\2023_7_27\sr5e1_l9388_freeosek\modules\platform\board\include\sr5e1\evbe7000p.h **** 
 184:d:\project\9388\e1\2023_7_27\sr5e1_l9388_freeosek\modules\platform\board\include\sr5e1\evbe7000p.h **** #define SDADC_1_1_IO gpio_iopack(GPIO_PORT_A, GPIO_PIN_14)
 185:d:\project\9388\e1\2023_7_27\sr5e1_l9388_freeosek\modules\platform\board\include\sr5e1\evbe7000p.h **** #define SDADC_1_1_IO_CFG                         \
 186:d:\project\9388\e1\2023_7_27\sr5e1_l9388_freeosek\modules\platform\board\include\sr5e1\evbe7000p.h ****     (GPIO_MODE_MODER_ANALOG |                    \
 187:d:\project\9388\e1\2023_7_27\sr5e1_l9388_freeosek\modules\platform\board\include\sr5e1\evbe7000p.h ****      GPIO_MODE_OTYPER_PUSHPULL |                 \
 188:d:\project\9388\e1\2023_7_27\sr5e1_l9388_freeosek\modules\platform\board\include\sr5e1\evbe7000p.h ****      GPIO_MODE_OSPEEDR_LOW |                     \
 189:d:\project\9388\e1\2023_7_27\sr5e1_l9388_freeosek\modules\platform\board\include\sr5e1\evbe7000p.h ****      GPIO_MODE_PUPDR_FLOATING |                  \
 190:d:\project\9388\e1\2023_7_27\sr5e1_l9388_freeosek\modules\platform\board\include\sr5e1\evbe7000p.h ****      GPIO_MODE_AFR(0U) |                         \
 191:d:\project\9388\e1\2023_7_27\sr5e1_l9388_freeosek\modules\platform\board\include\sr5e1\evbe7000p.h ****      GPIO_MODE_IHYSTR_CMOS |                     \
 192:d:\project\9388\e1\2023_7_27\sr5e1_l9388_freeosek\modules\platform\board\include\sr5e1\evbe7000p.h ****      GPIO_MODE_TRIGENR_IN_ENABLED |              \
 193:d:\project\9388\e1\2023_7_27\sr5e1_l9388_freeosek\modules\platform\board\include\sr5e1\evbe7000p.h ****      GPIO_MODE_SAFESELR_DISABLED |               \
 194:d:\project\9388\e1\2023_7_27\sr5e1_l9388_freeosek\modules\platform\board\include\sr5e1\evbe7000p.h ****      GPIO_MODE_SAFEVALR_LOW)
 195:d:\project\9388\e1\2023_7_27\sr5e1_l9388_freeosek\modules\platform\board\include\sr5e1\evbe7000p.h **** 
 196:d:\project\9388\e1\2023_7_27\sr5e1_l9388_freeosek\modules\platform\board\include\sr5e1\evbe7000p.h **** #define SDADC_2_0_IO gpio_iopack(GPIO_PORT_A, GPIO_PIN_15)
 197:d:\project\9388\e1\2023_7_27\sr5e1_l9388_freeosek\modules\platform\board\include\sr5e1\evbe7000p.h **** #define SDADC_2_0_IO_CFG                         \
 198:d:\project\9388\e1\2023_7_27\sr5e1_l9388_freeosek\modules\platform\board\include\sr5e1\evbe7000p.h ****     (GPIO_MODE_MODER_ANALOG |                    \
 199:d:\project\9388\e1\2023_7_27\sr5e1_l9388_freeosek\modules\platform\board\include\sr5e1\evbe7000p.h ****      GPIO_MODE_OTYPER_PUSHPULL |                 \
 200:d:\project\9388\e1\2023_7_27\sr5e1_l9388_freeosek\modules\platform\board\include\sr5e1\evbe7000p.h ****      GPIO_MODE_OSPEEDR_LOW |                     \
 201:d:\project\9388\e1\2023_7_27\sr5e1_l9388_freeosek\modules\platform\board\include\sr5e1\evbe7000p.h ****      GPIO_MODE_PUPDR_FLOATING |                  \
 202:d:\project\9388\e1\2023_7_27\sr5e1_l9388_freeosek\modules\platform\board\include\sr5e1\evbe7000p.h ****      GPIO_MODE_AFR(0U) |                         \
 203:d:\project\9388\e1\2023_7_27\sr5e1_l9388_freeosek\modules\platform\board\include\sr5e1\evbe7000p.h ****      GPIO_MODE_IHYSTR_CMOS |                     \
 204:d:\project\9388\e1\2023_7_27\sr5e1_l9388_freeosek\modules\platform\board\include\sr5e1\evbe7000p.h ****      GPIO_MODE_TRIGENR_IN_ENABLED |              \
 205:d:\project\9388\e1\2023_7_27\sr5e1_l9388_freeosek\modules\platform\board\include\sr5e1\evbe7000p.h ****      GPIO_MODE_SAFESELR_DISABLED |               \
 206:d:\project\9388\e1\2023_7_27\sr5e1_l9388_freeosek\modules\platform\board\include\sr5e1\evbe7000p.h ****      GPIO_MODE_SAFEVALR_LOW)
 207:d:\project\9388\e1\2023_7_27\sr5e1_l9388_freeosek\modules\platform\board\include\sr5e1\evbe7000p.h **** 
 208:d:\project\9388\e1\2023_7_27\sr5e1_l9388_freeosek\modules\platform\board\include\sr5e1\evbe7000p.h **** /* PortB pin settings. */
 209:d:\project\9388\e1\2023_7_27\sr5e1_l9388_freeosek\modules\platform\board\include\sr5e1\evbe7000p.h **** #define SDADC_2_1_IO gpio_iopack(GPIO_PORT_B, GPIO_PIN_0)
 210:d:\project\9388\e1\2023_7_27\sr5e1_l9388_freeosek\modules\platform\board\include\sr5e1\evbe7000p.h **** #define SDADC_2_1_IO_CFG                         \
 211:d:\project\9388\e1\2023_7_27\sr5e1_l9388_freeosek\modules\platform\board\include\sr5e1\evbe7000p.h ****     (GPIO_MODE_MODER_ANALOG |                    \
 212:d:\project\9388\e1\2023_7_27\sr5e1_l9388_freeosek\modules\platform\board\include\sr5e1\evbe7000p.h ****      GPIO_MODE_OTYPER_PUSHPULL |                 \
 213:d:\project\9388\e1\2023_7_27\sr5e1_l9388_freeosek\modules\platform\board\include\sr5e1\evbe7000p.h ****      GPIO_MODE_OSPEEDR_LOW |                     \
 214:d:\project\9388\e1\2023_7_27\sr5e1_l9388_freeosek\modules\platform\board\include\sr5e1\evbe7000p.h ****      GPIO_MODE_PUPDR_FLOATING |                  \
 215:d:\project\9388\e1\2023_7_27\sr5e1_l9388_freeosek\modules\platform\board\include\sr5e1\evbe7000p.h ****      GPIO_MODE_AFR(0U) |                         \
 216:d:\project\9388\e1\2023_7_27\sr5e1_l9388_freeosek\modules\platform\board\include\sr5e1\evbe7000p.h ****      GPIO_MODE_IHYSTR_CMOS |                     \
 217:d:\project\9388\e1\2023_7_27\sr5e1_l9388_freeosek\modules\platform\board\include\sr5e1\evbe7000p.h ****      GPIO_MODE_TRIGENR_IN_ENABLED |              \
 218:d:\project\9388\e1\2023_7_27\sr5e1_l9388_freeosek\modules\platform\board\include\sr5e1\evbe7000p.h ****      GPIO_MODE_SAFESELR_DISABLED |               \
 219:d:\project\9388\e1\2023_7_27\sr5e1_l9388_freeosek\modules\platform\board\include\sr5e1\evbe7000p.h ****      GPIO_MODE_SAFEVALR_LOW)
 220:d:\project\9388\e1\2023_7_27\sr5e1_l9388_freeosek\modules\platform\board\include\sr5e1\evbe7000p.h **** 
 221:d:\project\9388\e1\2023_7_27\sr5e1_l9388_freeosek\modules\platform\board\include\sr5e1\evbe7000p.h **** #define DAC_1_IO gpio_iopack(GPIO_PORT_B, GPIO_PIN_1)
 222:d:\project\9388\e1\2023_7_27\sr5e1_l9388_freeosek\modules\platform\board\include\sr5e1\evbe7000p.h **** #define DAC_1_IO_CFG                             \
 223:d:\project\9388\e1\2023_7_27\sr5e1_l9388_freeosek\modules\platform\board\include\sr5e1\evbe7000p.h ****     (GPIO_MODE_MODER_ANALOG |                    \
 224:d:\project\9388\e1\2023_7_27\sr5e1_l9388_freeosek\modules\platform\board\include\sr5e1\evbe7000p.h ****      GPIO_MODE_OTYPER_PUSHPULL |                 \
 225:d:\project\9388\e1\2023_7_27\sr5e1_l9388_freeosek\modules\platform\board\include\sr5e1\evbe7000p.h ****      GPIO_MODE_OSPEEDR_LOW |                     \
 226:d:\project\9388\e1\2023_7_27\sr5e1_l9388_freeosek\modules\platform\board\include\sr5e1\evbe7000p.h ****      GPIO_MODE_PUPDR_FLOATING |                  \
 227:d:\project\9388\e1\2023_7_27\sr5e1_l9388_freeosek\modules\platform\board\include\sr5e1\evbe7000p.h ****      GPIO_MODE_AFR(0U) |                         \
 228:d:\project\9388\e1\2023_7_27\sr5e1_l9388_freeosek\modules\platform\board\include\sr5e1\evbe7000p.h ****      GPIO_MODE_IHYSTR_CMOS |                     \
 229:d:\project\9388\e1\2023_7_27\sr5e1_l9388_freeosek\modules\platform\board\include\sr5e1\evbe7000p.h ****      GPIO_MODE_TRIGENR_IN_DISABLED |             \
 230:d:\project\9388\e1\2023_7_27\sr5e1_l9388_freeosek\modules\platform\board\include\sr5e1\evbe7000p.h ****      GPIO_MODE_SAFESELR_DISABLED |               \
 231:d:\project\9388\e1\2023_7_27\sr5e1_l9388_freeosek\modules\platform\board\include\sr5e1\evbe7000p.h ****      GPIO_MODE_SAFEVALR_LOW)
 232:d:\project\9388\e1\2023_7_27\sr5e1_l9388_freeosek\modules\platform\board\include\sr5e1\evbe7000p.h **** 
 233:d:\project\9388\e1\2023_7_27\sr5e1_l9388_freeosek\modules\platform\board\include\sr5e1\evbe7000p.h **** #define SAR1_1_IO gpio_iopack(GPIO_PORT_B, GPIO_PIN_2)
 234:d:\project\9388\e1\2023_7_27\sr5e1_l9388_freeosek\modules\platform\board\include\sr5e1\evbe7000p.h **** #define SAR1_1_IO_CFG                            \
 235:d:\project\9388\e1\2023_7_27\sr5e1_l9388_freeosek\modules\platform\board\include\sr5e1\evbe7000p.h ****     (GPIO_MODE_MODER_ANALOG |                    \
 236:d:\project\9388\e1\2023_7_27\sr5e1_l9388_freeosek\modules\platform\board\include\sr5e1\evbe7000p.h ****      GPIO_MODE_OTYPER_PUSHPULL |                 \
 237:d:\project\9388\e1\2023_7_27\sr5e1_l9388_freeosek\modules\platform\board\include\sr5e1\evbe7000p.h ****      GPIO_MODE_OSPEEDR_LOW |                     \
 238:d:\project\9388\e1\2023_7_27\sr5e1_l9388_freeosek\modules\platform\board\include\sr5e1\evbe7000p.h ****      GPIO_MODE_PUPDR_FLOATING |                  \
 239:d:\project\9388\e1\2023_7_27\sr5e1_l9388_freeosek\modules\platform\board\include\sr5e1\evbe7000p.h ****      GPIO_MODE_AFR(0U) |                         \
 240:d:\project\9388\e1\2023_7_27\sr5e1_l9388_freeosek\modules\platform\board\include\sr5e1\evbe7000p.h ****      GPIO_MODE_IHYSTR_CMOS |                     \
 241:d:\project\9388\e1\2023_7_27\sr5e1_l9388_freeosek\modules\platform\board\include\sr5e1\evbe7000p.h ****      GPIO_MODE_TRIGENR_IN_ENABLED |              \
 242:d:\project\9388\e1\2023_7_27\sr5e1_l9388_freeosek\modules\platform\board\include\sr5e1\evbe7000p.h ****      GPIO_MODE_SAFESELR_DISABLED |               \
 243:d:\project\9388\e1\2023_7_27\sr5e1_l9388_freeosek\modules\platform\board\include\sr5e1\evbe7000p.h ****      GPIO_MODE_SAFEVALR_LOW)
 244:d:\project\9388\e1\2023_7_27\sr5e1_l9388_freeosek\modules\platform\board\include\sr5e1\evbe7000p.h **** 
 245:d:\project\9388\e1\2023_7_27\sr5e1_l9388_freeosek\modules\platform\board\include\sr5e1\evbe7000p.h **** #define SAR1_2_IO gpio_iopack(GPIO_PORT_B, GPIO_PIN_3)
 246:d:\project\9388\e1\2023_7_27\sr5e1_l9388_freeosek\modules\platform\board\include\sr5e1\evbe7000p.h **** #define SAR1_2_IO_CFG                            \
 247:d:\project\9388\e1\2023_7_27\sr5e1_l9388_freeosek\modules\platform\board\include\sr5e1\evbe7000p.h ****     (GPIO_MODE_MODER_ANALOG |                    \
 248:d:\project\9388\e1\2023_7_27\sr5e1_l9388_freeosek\modules\platform\board\include\sr5e1\evbe7000p.h ****      GPIO_MODE_OTYPER_PUSHPULL |                 \
 249:d:\project\9388\e1\2023_7_27\sr5e1_l9388_freeosek\modules\platform\board\include\sr5e1\evbe7000p.h ****      GPIO_MODE_OSPEEDR_LOW |                     \
 250:d:\project\9388\e1\2023_7_27\sr5e1_l9388_freeosek\modules\platform\board\include\sr5e1\evbe7000p.h ****      GPIO_MODE_PUPDR_FLOATING |                  \
 251:d:\project\9388\e1\2023_7_27\sr5e1_l9388_freeosek\modules\platform\board\include\sr5e1\evbe7000p.h ****      GPIO_MODE_AFR(0U) |                         \
 252:d:\project\9388\e1\2023_7_27\sr5e1_l9388_freeosek\modules\platform\board\include\sr5e1\evbe7000p.h ****      GPIO_MODE_IHYSTR_CMOS |                     \
 253:d:\project\9388\e1\2023_7_27\sr5e1_l9388_freeosek\modules\platform\board\include\sr5e1\evbe7000p.h ****      GPIO_MODE_TRIGENR_IN_ENABLED |              \
 254:d:\project\9388\e1\2023_7_27\sr5e1_l9388_freeosek\modules\platform\board\include\sr5e1\evbe7000p.h ****      GPIO_MODE_SAFESELR_DISABLED |               \
 255:d:\project\9388\e1\2023_7_27\sr5e1_l9388_freeosek\modules\platform\board\include\sr5e1\evbe7000p.h ****      GPIO_MODE_SAFEVALR_LOW)
 256:d:\project\9388\e1\2023_7_27\sr5e1_l9388_freeosek\modules\platform\board\include\sr5e1\evbe7000p.h **** 
 257:d:\project\9388\e1\2023_7_27\sr5e1_l9388_freeosek\modules\platform\board\include\sr5e1\evbe7000p.h **** #define SAR1_3_IO gpio_iopack(GPIO_PORT_B, GPIO_PIN_4)
 258:d:\project\9388\e1\2023_7_27\sr5e1_l9388_freeosek\modules\platform\board\include\sr5e1\evbe7000p.h **** #define SAR1_3_IO_CFG                            \
 259:d:\project\9388\e1\2023_7_27\sr5e1_l9388_freeosek\modules\platform\board\include\sr5e1\evbe7000p.h ****     (GPIO_MODE_MODER_ANALOG |                    \
 260:d:\project\9388\e1\2023_7_27\sr5e1_l9388_freeosek\modules\platform\board\include\sr5e1\evbe7000p.h ****      GPIO_MODE_OTYPER_PUSHPULL |                 \
 261:d:\project\9388\e1\2023_7_27\sr5e1_l9388_freeosek\modules\platform\board\include\sr5e1\evbe7000p.h ****      GPIO_MODE_OSPEEDR_LOW |                     \
 262:d:\project\9388\e1\2023_7_27\sr5e1_l9388_freeosek\modules\platform\board\include\sr5e1\evbe7000p.h ****      GPIO_MODE_PUPDR_FLOATING |                  \
 263:d:\project\9388\e1\2023_7_27\sr5e1_l9388_freeosek\modules\platform\board\include\sr5e1\evbe7000p.h ****      GPIO_MODE_AFR(0U) |                         \
 264:d:\project\9388\e1\2023_7_27\sr5e1_l9388_freeosek\modules\platform\board\include\sr5e1\evbe7000p.h ****      GPIO_MODE_IHYSTR_CMOS |                     \
 265:d:\project\9388\e1\2023_7_27\sr5e1_l9388_freeosek\modules\platform\board\include\sr5e1\evbe7000p.h ****      GPIO_MODE_TRIGENR_IN_ENABLED |              \
 266:d:\project\9388\e1\2023_7_27\sr5e1_l9388_freeosek\modules\platform\board\include\sr5e1\evbe7000p.h ****      GPIO_MODE_SAFESELR_DISABLED |               \
 267:d:\project\9388\e1\2023_7_27\sr5e1_l9388_freeosek\modules\platform\board\include\sr5e1\evbe7000p.h ****      GPIO_MODE_SAFEVALR_LOW)
 268:d:\project\9388\e1\2023_7_27\sr5e1_l9388_freeosek\modules\platform\board\include\sr5e1\evbe7000p.h **** 
 269:d:\project\9388\e1\2023_7_27\sr5e1_l9388_freeosek\modules\platform\board\include\sr5e1\evbe7000p.h **** #define SAR1_4_IO gpio_iopack(GPIO_PORT_B, GPIO_PIN_5)
 270:d:\project\9388\e1\2023_7_27\sr5e1_l9388_freeosek\modules\platform\board\include\sr5e1\evbe7000p.h **** #define SAR1_4_IO_CFG                            \
 271:d:\project\9388\e1\2023_7_27\sr5e1_l9388_freeosek\modules\platform\board\include\sr5e1\evbe7000p.h ****     (GPIO_MODE_MODER_ANALOG |                    \
 272:d:\project\9388\e1\2023_7_27\sr5e1_l9388_freeosek\modules\platform\board\include\sr5e1\evbe7000p.h ****      GPIO_MODE_OTYPER_PUSHPULL |                 \
 273:d:\project\9388\e1\2023_7_27\sr5e1_l9388_freeosek\modules\platform\board\include\sr5e1\evbe7000p.h ****      GPIO_MODE_OSPEEDR_LOW |                     \
 274:d:\project\9388\e1\2023_7_27\sr5e1_l9388_freeosek\modules\platform\board\include\sr5e1\evbe7000p.h ****      GPIO_MODE_PUPDR_FLOATING |                  \
 275:d:\project\9388\e1\2023_7_27\sr5e1_l9388_freeosek\modules\platform\board\include\sr5e1\evbe7000p.h ****      GPIO_MODE_AFR(0U) |                         \
 276:d:\project\9388\e1\2023_7_27\sr5e1_l9388_freeosek\modules\platform\board\include\sr5e1\evbe7000p.h ****      GPIO_MODE_IHYSTR_CMOS |                     \
 277:d:\project\9388\e1\2023_7_27\sr5e1_l9388_freeosek\modules\platform\board\include\sr5e1\evbe7000p.h ****      GPIO_MODE_TRIGENR_IN_ENABLED |              \
 278:d:\project\9388\e1\2023_7_27\sr5e1_l9388_freeosek\modules\platform\board\include\sr5e1\evbe7000p.h ****      GPIO_MODE_SAFESELR_DISABLED |               \
 279:d:\project\9388\e1\2023_7_27\sr5e1_l9388_freeosek\modules\platform\board\include\sr5e1\evbe7000p.h ****      GPIO_MODE_SAFEVALR_LOW)
 280:d:\project\9388\e1\2023_7_27\sr5e1_l9388_freeosek\modules\platform\board\include\sr5e1\evbe7000p.h **** 
 281:d:\project\9388\e1\2023_7_27\sr5e1_l9388_freeosek\modules\platform\board\include\sr5e1\evbe7000p.h **** #define SAR1_5_IO gpio_iopack(GPIO_PORT_B, GPIO_PIN_6)
 282:d:\project\9388\e1\2023_7_27\sr5e1_l9388_freeosek\modules\platform\board\include\sr5e1\evbe7000p.h **** #define SAR1_5_IO_CFG                            \
 283:d:\project\9388\e1\2023_7_27\sr5e1_l9388_freeosek\modules\platform\board\include\sr5e1\evbe7000p.h ****     (GPIO_MODE_MODER_ANALOG |                    \
 284:d:\project\9388\e1\2023_7_27\sr5e1_l9388_freeosek\modules\platform\board\include\sr5e1\evbe7000p.h ****      GPIO_MODE_OTYPER_PUSHPULL |                 \
 285:d:\project\9388\e1\2023_7_27\sr5e1_l9388_freeosek\modules\platform\board\include\sr5e1\evbe7000p.h ****      GPIO_MODE_OSPEEDR_LOW |                     \
 286:d:\project\9388\e1\2023_7_27\sr5e1_l9388_freeosek\modules\platform\board\include\sr5e1\evbe7000p.h ****      GPIO_MODE_PUPDR_FLOATING |                  \
 287:d:\project\9388\e1\2023_7_27\sr5e1_l9388_freeosek\modules\platform\board\include\sr5e1\evbe7000p.h ****      GPIO_MODE_AFR(0U) |                         \
 288:d:\project\9388\e1\2023_7_27\sr5e1_l9388_freeosek\modules\platform\board\include\sr5e1\evbe7000p.h ****      GPIO_MODE_IHYSTR_CMOS |                     \
 289:d:\project\9388\e1\2023_7_27\sr5e1_l9388_freeosek\modules\platform\board\include\sr5e1\evbe7000p.h ****      GPIO_MODE_TRIGENR_IN_ENABLED |              \
 290:d:\project\9388\e1\2023_7_27\sr5e1_l9388_freeosek\modules\platform\board\include\sr5e1\evbe7000p.h ****      GPIO_MODE_SAFESELR_DISABLED |               \
 291:d:\project\9388\e1\2023_7_27\sr5e1_l9388_freeosek\modules\platform\board\include\sr5e1\evbe7000p.h ****      GPIO_MODE_SAFEVALR_LOW)
 292:d:\project\9388\e1\2023_7_27\sr5e1_l9388_freeosek\modules\platform\board\include\sr5e1\evbe7000p.h **** 
 293:d:\project\9388\e1\2023_7_27\sr5e1_l9388_freeosek\modules\platform\board\include\sr5e1\evbe7000p.h **** #define SAR2_1_IO gpio_iopack(GPIO_PORT_B, GPIO_PIN_7)
 294:d:\project\9388\e1\2023_7_27\sr5e1_l9388_freeosek\modules\platform\board\include\sr5e1\evbe7000p.h **** #define SAR2_1_IO_CFG                            \
 295:d:\project\9388\e1\2023_7_27\sr5e1_l9388_freeosek\modules\platform\board\include\sr5e1\evbe7000p.h ****     (GPIO_MODE_MODER_ANALOG |                    \
 296:d:\project\9388\e1\2023_7_27\sr5e1_l9388_freeosek\modules\platform\board\include\sr5e1\evbe7000p.h ****      GPIO_MODE_OTYPER_PUSHPULL |                 \
 297:d:\project\9388\e1\2023_7_27\sr5e1_l9388_freeosek\modules\platform\board\include\sr5e1\evbe7000p.h ****      GPIO_MODE_OSPEEDR_LOW |                     \
 298:d:\project\9388\e1\2023_7_27\sr5e1_l9388_freeosek\modules\platform\board\include\sr5e1\evbe7000p.h ****      GPIO_MODE_PUPDR_FLOATING |                  \
 299:d:\project\9388\e1\2023_7_27\sr5e1_l9388_freeosek\modules\platform\board\include\sr5e1\evbe7000p.h ****      GPIO_MODE_AFR(0U) |                         \
 300:d:\project\9388\e1\2023_7_27\sr5e1_l9388_freeosek\modules\platform\board\include\sr5e1\evbe7000p.h ****      GPIO_MODE_IHYSTR_CMOS |                     \
 301:d:\project\9388\e1\2023_7_27\sr5e1_l9388_freeosek\modules\platform\board\include\sr5e1\evbe7000p.h ****      GPIO_MODE_TRIGENR_IN_ENABLED |              \
 302:d:\project\9388\e1\2023_7_27\sr5e1_l9388_freeosek\modules\platform\board\include\sr5e1\evbe7000p.h ****      GPIO_MODE_SAFESELR_DISABLED |               \
 303:d:\project\9388\e1\2023_7_27\sr5e1_l9388_freeosek\modules\platform\board\include\sr5e1\evbe7000p.h ****      GPIO_MODE_SAFEVALR_LOW)
 304:d:\project\9388\e1\2023_7_27\sr5e1_l9388_freeosek\modules\platform\board\include\sr5e1\evbe7000p.h **** 
 305:d:\project\9388\e1\2023_7_27\sr5e1_l9388_freeosek\modules\platform\board\include\sr5e1\evbe7000p.h **** #define SAR2_2_IO gpio_iopack(GPIO_PORT_B, GPIO_PIN_8)
 306:d:\project\9388\e1\2023_7_27\sr5e1_l9388_freeosek\modules\platform\board\include\sr5e1\evbe7000p.h **** #define SAR2_2_IO_CFG                            \
 307:d:\project\9388\e1\2023_7_27\sr5e1_l9388_freeosek\modules\platform\board\include\sr5e1\evbe7000p.h ****     (GPIO_MODE_MODER_ANALOG |                    \
 308:d:\project\9388\e1\2023_7_27\sr5e1_l9388_freeosek\modules\platform\board\include\sr5e1\evbe7000p.h ****      GPIO_MODE_OTYPER_PUSHPULL |                 \
 309:d:\project\9388\e1\2023_7_27\sr5e1_l9388_freeosek\modules\platform\board\include\sr5e1\evbe7000p.h ****      GPIO_MODE_OSPEEDR_LOW |                     \
 310:d:\project\9388\e1\2023_7_27\sr5e1_l9388_freeosek\modules\platform\board\include\sr5e1\evbe7000p.h ****      GPIO_MODE_PUPDR_FLOATING |                  \
 311:d:\project\9388\e1\2023_7_27\sr5e1_l9388_freeosek\modules\platform\board\include\sr5e1\evbe7000p.h ****      GPIO_MODE_AFR(0U) |                         \
 312:d:\project\9388\e1\2023_7_27\sr5e1_l9388_freeosek\modules\platform\board\include\sr5e1\evbe7000p.h ****      GPIO_MODE_IHYSTR_CMOS |                     \
 313:d:\project\9388\e1\2023_7_27\sr5e1_l9388_freeosek\modules\platform\board\include\sr5e1\evbe7000p.h ****      GPIO_MODE_TRIGENR_IN_ENABLED |              \
 314:d:\project\9388\e1\2023_7_27\sr5e1_l9388_freeosek\modules\platform\board\include\sr5e1\evbe7000p.h ****      GPIO_MODE_SAFESELR_DISABLED |               \
 315:d:\project\9388\e1\2023_7_27\sr5e1_l9388_freeosek\modules\platform\board\include\sr5e1\evbe7000p.h ****      GPIO_MODE_SAFEVALR_LOW)
 316:d:\project\9388\e1\2023_7_27\sr5e1_l9388_freeosek\modules\platform\board\include\sr5e1\evbe7000p.h **** 
 317:d:\project\9388\e1\2023_7_27\sr5e1_l9388_freeosek\modules\platform\board\include\sr5e1\evbe7000p.h **** #define SAR2_3_IO gpio_iopack(GPIO_PORT_B, GPIO_PIN_9)
 318:d:\project\9388\e1\2023_7_27\sr5e1_l9388_freeosek\modules\platform\board\include\sr5e1\evbe7000p.h **** #define SAR2_3_IO_CFG                            \
 319:d:\project\9388\e1\2023_7_27\sr5e1_l9388_freeosek\modules\platform\board\include\sr5e1\evbe7000p.h ****     (GPIO_MODE_MODER_ANALOG |                    \
 320:d:\project\9388\e1\2023_7_27\sr5e1_l9388_freeosek\modules\platform\board\include\sr5e1\evbe7000p.h ****      GPIO_MODE_OTYPER_PUSHPULL |                 \
 321:d:\project\9388\e1\2023_7_27\sr5e1_l9388_freeosek\modules\platform\board\include\sr5e1\evbe7000p.h ****      GPIO_MODE_OSPEEDR_LOW |                     \
 322:d:\project\9388\e1\2023_7_27\sr5e1_l9388_freeosek\modules\platform\board\include\sr5e1\evbe7000p.h ****      GPIO_MODE_PUPDR_FLOATING |                  \
 323:d:\project\9388\e1\2023_7_27\sr5e1_l9388_freeosek\modules\platform\board\include\sr5e1\evbe7000p.h ****      GPIO_MODE_AFR(0U) |                         \
 324:d:\project\9388\e1\2023_7_27\sr5e1_l9388_freeosek\modules\platform\board\include\sr5e1\evbe7000p.h ****      GPIO_MODE_IHYSTR_CMOS |                     \
 325:d:\project\9388\e1\2023_7_27\sr5e1_l9388_freeosek\modules\platform\board\include\sr5e1\evbe7000p.h ****      GPIO_MODE_TRIGENR_IN_ENABLED |              \
 326:d:\project\9388\e1\2023_7_27\sr5e1_l9388_freeosek\modules\platform\board\include\sr5e1\evbe7000p.h ****      GPIO_MODE_SAFESELR_DISABLED |               \
 327:d:\project\9388\e1\2023_7_27\sr5e1_l9388_freeosek\modules\platform\board\include\sr5e1\evbe7000p.h ****      GPIO_MODE_SAFEVALR_LOW)
 328:d:\project\9388\e1\2023_7_27\sr5e1_l9388_freeosek\modules\platform\board\include\sr5e1\evbe7000p.h **** 
 329:d:\project\9388\e1\2023_7_27\sr5e1_l9388_freeosek\modules\platform\board\include\sr5e1\evbe7000p.h **** #define SAR2_4_IO gpio_iopack(GPIO_PORT_B, GPIO_PIN_10)
 330:d:\project\9388\e1\2023_7_27\sr5e1_l9388_freeosek\modules\platform\board\include\sr5e1\evbe7000p.h **** #define SAR2_4_IO_CFG                            \
 331:d:\project\9388\e1\2023_7_27\sr5e1_l9388_freeosek\modules\platform\board\include\sr5e1\evbe7000p.h ****     (GPIO_MODE_MODER_ANALOG |                    \
 332:d:\project\9388\e1\2023_7_27\sr5e1_l9388_freeosek\modules\platform\board\include\sr5e1\evbe7000p.h ****      GPIO_MODE_OTYPER_PUSHPULL |                 \
 333:d:\project\9388\e1\2023_7_27\sr5e1_l9388_freeosek\modules\platform\board\include\sr5e1\evbe7000p.h ****      GPIO_MODE_OSPEEDR_LOW |                     \
 334:d:\project\9388\e1\2023_7_27\sr5e1_l9388_freeosek\modules\platform\board\include\sr5e1\evbe7000p.h ****      GPIO_MODE_PUPDR_FLOATING |                  \
 335:d:\project\9388\e1\2023_7_27\sr5e1_l9388_freeosek\modules\platform\board\include\sr5e1\evbe7000p.h ****      GPIO_MODE_AFR(0U) |                         \
 336:d:\project\9388\e1\2023_7_27\sr5e1_l9388_freeosek\modules\platform\board\include\sr5e1\evbe7000p.h ****      GPIO_MODE_IHYSTR_CMOS |                     \
 337:d:\project\9388\e1\2023_7_27\sr5e1_l9388_freeosek\modules\platform\board\include\sr5e1\evbe7000p.h ****      GPIO_MODE_TRIGENR_IN_ENABLED |              \
 338:d:\project\9388\e1\2023_7_27\sr5e1_l9388_freeosek\modules\platform\board\include\sr5e1\evbe7000p.h ****      GPIO_MODE_SAFESELR_DISABLED |               \
 339:d:\project\9388\e1\2023_7_27\sr5e1_l9388_freeosek\modules\platform\board\include\sr5e1\evbe7000p.h ****      GPIO_MODE_SAFEVALR_LOW)
 340:d:\project\9388\e1\2023_7_27\sr5e1_l9388_freeosek\modules\platform\board\include\sr5e1\evbe7000p.h **** 
 341:d:\project\9388\e1\2023_7_27\sr5e1_l9388_freeosek\modules\platform\board\include\sr5e1\evbe7000p.h **** #define SAR2_5_IO gpio_iopack(GPIO_PORT_B, GPIO_PIN_11)
 342:d:\project\9388\e1\2023_7_27\sr5e1_l9388_freeosek\modules\platform\board\include\sr5e1\evbe7000p.h **** #define SAR2_5_IO_CFG                            \
 343:d:\project\9388\e1\2023_7_27\sr5e1_l9388_freeosek\modules\platform\board\include\sr5e1\evbe7000p.h ****     (GPIO_MODE_MODER_ANALOG |                    \
 344:d:\project\9388\e1\2023_7_27\sr5e1_l9388_freeosek\modules\platform\board\include\sr5e1\evbe7000p.h ****      GPIO_MODE_OTYPER_PUSHPULL |                 \
 345:d:\project\9388\e1\2023_7_27\sr5e1_l9388_freeosek\modules\platform\board\include\sr5e1\evbe7000p.h ****      GPIO_MODE_OSPEEDR_LOW |                     \
 346:d:\project\9388\e1\2023_7_27\sr5e1_l9388_freeosek\modules\platform\board\include\sr5e1\evbe7000p.h ****      GPIO_MODE_PUPDR_FLOATING |                  \
 347:d:\project\9388\e1\2023_7_27\sr5e1_l9388_freeosek\modules\platform\board\include\sr5e1\evbe7000p.h ****      GPIO_MODE_AFR(0U) |                         \
 348:d:\project\9388\e1\2023_7_27\sr5e1_l9388_freeosek\modules\platform\board\include\sr5e1\evbe7000p.h ****      GPIO_MODE_IHYSTR_CMOS |                     \
 349:d:\project\9388\e1\2023_7_27\sr5e1_l9388_freeosek\modules\platform\board\include\sr5e1\evbe7000p.h ****      GPIO_MODE_TRIGENR_IN_ENABLED |              \
 350:d:\project\9388\e1\2023_7_27\sr5e1_l9388_freeosek\modules\platform\board\include\sr5e1\evbe7000p.h ****      GPIO_MODE_SAFESELR_DISABLED |               \
 351:d:\project\9388\e1\2023_7_27\sr5e1_l9388_freeosek\modules\platform\board\include\sr5e1\evbe7000p.h ****      GPIO_MODE_SAFEVALR_LOW)
 352:d:\project\9388\e1\2023_7_27\sr5e1_l9388_freeosek\modules\platform\board\include\sr5e1\evbe7000p.h **** 
 353:d:\project\9388\e1\2023_7_27\sr5e1_l9388_freeosek\modules\platform\board\include\sr5e1\evbe7000p.h **** #define SAR3_1_IO gpio_iopack(GPIO_PORT_B, GPIO_PIN_12)
 354:d:\project\9388\e1\2023_7_27\sr5e1_l9388_freeosek\modules\platform\board\include\sr5e1\evbe7000p.h **** #define SAR3_1_IO_CFG                            \
 355:d:\project\9388\e1\2023_7_27\sr5e1_l9388_freeosek\modules\platform\board\include\sr5e1\evbe7000p.h ****     (GPIO_MODE_MODER_ANALOG |                    \
 356:d:\project\9388\e1\2023_7_27\sr5e1_l9388_freeosek\modules\platform\board\include\sr5e1\evbe7000p.h ****      GPIO_MODE_OTYPER_PUSHPULL |                 \
 357:d:\project\9388\e1\2023_7_27\sr5e1_l9388_freeosek\modules\platform\board\include\sr5e1\evbe7000p.h ****      GPIO_MODE_OSPEEDR_LOW |                     \
 358:d:\project\9388\e1\2023_7_27\sr5e1_l9388_freeosek\modules\platform\board\include\sr5e1\evbe7000p.h ****      GPIO_MODE_PUPDR_FLOATING |                  \
 359:d:\project\9388\e1\2023_7_27\sr5e1_l9388_freeosek\modules\platform\board\include\sr5e1\evbe7000p.h ****      GPIO_MODE_AFR(0U) |                         \
 360:d:\project\9388\e1\2023_7_27\sr5e1_l9388_freeosek\modules\platform\board\include\sr5e1\evbe7000p.h ****      GPIO_MODE_IHYSTR_CMOS |                     \
 361:d:\project\9388\e1\2023_7_27\sr5e1_l9388_freeosek\modules\platform\board\include\sr5e1\evbe7000p.h ****      GPIO_MODE_TRIGENR_IN_ENABLED |              \
 362:d:\project\9388\e1\2023_7_27\sr5e1_l9388_freeosek\modules\platform\board\include\sr5e1\evbe7000p.h ****      GPIO_MODE_SAFESELR_DISABLED |               \
 363:d:\project\9388\e1\2023_7_27\sr5e1_l9388_freeosek\modules\platform\board\include\sr5e1\evbe7000p.h ****      GPIO_MODE_SAFEVALR_LOW)
 364:d:\project\9388\e1\2023_7_27\sr5e1_l9388_freeosek\modules\platform\board\include\sr5e1\evbe7000p.h **** 
 365:d:\project\9388\e1\2023_7_27\sr5e1_l9388_freeosek\modules\platform\board\include\sr5e1\evbe7000p.h **** #define SAR3_2_IO gpio_iopack(GPIO_PORT_B, GPIO_PIN_13)
 366:d:\project\9388\e1\2023_7_27\sr5e1_l9388_freeosek\modules\platform\board\include\sr5e1\evbe7000p.h **** #define SAR3_2_IO_CFG                            \
 367:d:\project\9388\e1\2023_7_27\sr5e1_l9388_freeosek\modules\platform\board\include\sr5e1\evbe7000p.h ****     (GPIO_MODE_MODER_ANALOG |                    \
 368:d:\project\9388\e1\2023_7_27\sr5e1_l9388_freeosek\modules\platform\board\include\sr5e1\evbe7000p.h ****      GPIO_MODE_OTYPER_PUSHPULL |                 \
 369:d:\project\9388\e1\2023_7_27\sr5e1_l9388_freeosek\modules\platform\board\include\sr5e1\evbe7000p.h ****      GPIO_MODE_OSPEEDR_LOW |                     \
 370:d:\project\9388\e1\2023_7_27\sr5e1_l9388_freeosek\modules\platform\board\include\sr5e1\evbe7000p.h ****      GPIO_MODE_PUPDR_FLOATING |                  \
 371:d:\project\9388\e1\2023_7_27\sr5e1_l9388_freeosek\modules\platform\board\include\sr5e1\evbe7000p.h ****      GPIO_MODE_AFR(0U) |                         \
 372:d:\project\9388\e1\2023_7_27\sr5e1_l9388_freeosek\modules\platform\board\include\sr5e1\evbe7000p.h ****      GPIO_MODE_IHYSTR_CMOS |                     \
 373:d:\project\9388\e1\2023_7_27\sr5e1_l9388_freeosek\modules\platform\board\include\sr5e1\evbe7000p.h ****      GPIO_MODE_TRIGENR_IN_ENABLED |              \
 374:d:\project\9388\e1\2023_7_27\sr5e1_l9388_freeosek\modules\platform\board\include\sr5e1\evbe7000p.h ****      GPIO_MODE_SAFESELR_DISABLED |               \
 375:d:\project\9388\e1\2023_7_27\sr5e1_l9388_freeosek\modules\platform\board\include\sr5e1\evbe7000p.h ****      GPIO_MODE_SAFEVALR_LOW)
 376:d:\project\9388\e1\2023_7_27\sr5e1_l9388_freeosek\modules\platform\board\include\sr5e1\evbe7000p.h **** 
 377:d:\project\9388\e1\2023_7_27\sr5e1_l9388_freeosek\modules\platform\board\include\sr5e1\evbe7000p.h **** #define SAR3_3_IO gpio_iopack(GPIO_PORT_B, GPIO_PIN_14)
 378:d:\project\9388\e1\2023_7_27\sr5e1_l9388_freeosek\modules\platform\board\include\sr5e1\evbe7000p.h **** #define SAR3_3_IO_CFG                            \
 379:d:\project\9388\e1\2023_7_27\sr5e1_l9388_freeosek\modules\platform\board\include\sr5e1\evbe7000p.h ****     (GPIO_MODE_MODER_ANALOG |                    \
 380:d:\project\9388\e1\2023_7_27\sr5e1_l9388_freeosek\modules\platform\board\include\sr5e1\evbe7000p.h ****      GPIO_MODE_OTYPER_PUSHPULL |                 \
 381:d:\project\9388\e1\2023_7_27\sr5e1_l9388_freeosek\modules\platform\board\include\sr5e1\evbe7000p.h ****      GPIO_MODE_OSPEEDR_LOW |                     \
 382:d:\project\9388\e1\2023_7_27\sr5e1_l9388_freeosek\modules\platform\board\include\sr5e1\evbe7000p.h ****      GPIO_MODE_PUPDR_FLOATING |                  \
 383:d:\project\9388\e1\2023_7_27\sr5e1_l9388_freeosek\modules\platform\board\include\sr5e1\evbe7000p.h ****      GPIO_MODE_AFR(0U) |                         \
 384:d:\project\9388\e1\2023_7_27\sr5e1_l9388_freeosek\modules\platform\board\include\sr5e1\evbe7000p.h ****      GPIO_MODE_IHYSTR_CMOS |                     \
 385:d:\project\9388\e1\2023_7_27\sr5e1_l9388_freeosek\modules\platform\board\include\sr5e1\evbe7000p.h ****      GPIO_MODE_TRIGENR_IN_ENABLED |              \
 386:d:\project\9388\e1\2023_7_27\sr5e1_l9388_freeosek\modules\platform\board\include\sr5e1\evbe7000p.h ****      GPIO_MODE_SAFESELR_DISABLED |               \
 387:d:\project\9388\e1\2023_7_27\sr5e1_l9388_freeosek\modules\platform\board\include\sr5e1\evbe7000p.h ****      GPIO_MODE_SAFEVALR_LOW)
 388:d:\project\9388\e1\2023_7_27\sr5e1_l9388_freeosek\modules\platform\board\include\sr5e1\evbe7000p.h **** 
 389:d:\project\9388\e1\2023_7_27\sr5e1_l9388_freeosek\modules\platform\board\include\sr5e1\evbe7000p.h **** #define SAR3_4_IO gpio_iopack(GPIO_PORT_B, GPIO_PIN_15)
 390:d:\project\9388\e1\2023_7_27\sr5e1_l9388_freeosek\modules\platform\board\include\sr5e1\evbe7000p.h **** #define SAR3_4_IO_CFG                            \
 391:d:\project\9388\e1\2023_7_27\sr5e1_l9388_freeosek\modules\platform\board\include\sr5e1\evbe7000p.h ****     (GPIO_MODE_MODER_ANALOG |                    \
 392:d:\project\9388\e1\2023_7_27\sr5e1_l9388_freeosek\modules\platform\board\include\sr5e1\evbe7000p.h ****      GPIO_MODE_OTYPER_PUSHPULL |                 \
 393:d:\project\9388\e1\2023_7_27\sr5e1_l9388_freeosek\modules\platform\board\include\sr5e1\evbe7000p.h ****      GPIO_MODE_OSPEEDR_LOW |                     \
 394:d:\project\9388\e1\2023_7_27\sr5e1_l9388_freeosek\modules\platform\board\include\sr5e1\evbe7000p.h ****      GPIO_MODE_PUPDR_FLOATING |                  \
 395:d:\project\9388\e1\2023_7_27\sr5e1_l9388_freeosek\modules\platform\board\include\sr5e1\evbe7000p.h ****      GPIO_MODE_AFR(0U) |                         \
 396:d:\project\9388\e1\2023_7_27\sr5e1_l9388_freeosek\modules\platform\board\include\sr5e1\evbe7000p.h ****      GPIO_MODE_IHYSTR_CMOS |                     \
 397:d:\project\9388\e1\2023_7_27\sr5e1_l9388_freeosek\modules\platform\board\include\sr5e1\evbe7000p.h ****      GPIO_MODE_TRIGENR_IN_ENABLED |              \
 398:d:\project\9388\e1\2023_7_27\sr5e1_l9388_freeosek\modules\platform\board\include\sr5e1\evbe7000p.h ****      GPIO_MODE_SAFESELR_DISABLED |               \
 399:d:\project\9388\e1\2023_7_27\sr5e1_l9388_freeosek\modules\platform\board\include\sr5e1\evbe7000p.h ****      GPIO_MODE_SAFEVALR_LOW)
 400:d:\project\9388\e1\2023_7_27\sr5e1_l9388_freeosek\modules\platform\board\include\sr5e1\evbe7000p.h **** 
 401:d:\project\9388\e1\2023_7_27\sr5e1_l9388_freeosek\modules\platform\board\include\sr5e1\evbe7000p.h **** /* PortC pin settings. */
 402:d:\project\9388\e1\2023_7_27\sr5e1_l9388_freeosek\modules\platform\board\include\sr5e1\evbe7000p.h **** #define SAR3_5_IO gpio_iopack(GPIO_PORT_C, GPIO_PIN_0)
 403:d:\project\9388\e1\2023_7_27\sr5e1_l9388_freeosek\modules\platform\board\include\sr5e1\evbe7000p.h **** #define SAR3_5_IO_CFG                            \
 404:d:\project\9388\e1\2023_7_27\sr5e1_l9388_freeosek\modules\platform\board\include\sr5e1\evbe7000p.h ****     (GPIO_MODE_MODER_ANALOG |                    \
 405:d:\project\9388\e1\2023_7_27\sr5e1_l9388_freeosek\modules\platform\board\include\sr5e1\evbe7000p.h ****      GPIO_MODE_OTYPER_PUSHPULL |                 \
 406:d:\project\9388\e1\2023_7_27\sr5e1_l9388_freeosek\modules\platform\board\include\sr5e1\evbe7000p.h ****      GPIO_MODE_OSPEEDR_LOW |                     \
 407:d:\project\9388\e1\2023_7_27\sr5e1_l9388_freeosek\modules\platform\board\include\sr5e1\evbe7000p.h ****      GPIO_MODE_PUPDR_FLOATING |                  \
 408:d:\project\9388\e1\2023_7_27\sr5e1_l9388_freeosek\modules\platform\board\include\sr5e1\evbe7000p.h ****      GPIO_MODE_AFR(0U) |                         \
 409:d:\project\9388\e1\2023_7_27\sr5e1_l9388_freeosek\modules\platform\board\include\sr5e1\evbe7000p.h ****      GPIO_MODE_IHYSTR_CMOS |                     \
 410:d:\project\9388\e1\2023_7_27\sr5e1_l9388_freeosek\modules\platform\board\include\sr5e1\evbe7000p.h ****      GPIO_MODE_TRIGENR_IN_ENABLED |              \
 411:d:\project\9388\e1\2023_7_27\sr5e1_l9388_freeosek\modules\platform\board\include\sr5e1\evbe7000p.h ****      GPIO_MODE_SAFESELR_DISABLED |               \
 412:d:\project\9388\e1\2023_7_27\sr5e1_l9388_freeosek\modules\platform\board\include\sr5e1\evbe7000p.h ****      GPIO_MODE_SAFEVALR_LOW)
 413:d:\project\9388\e1\2023_7_27\sr5e1_l9388_freeosek\modules\platform\board\include\sr5e1\evbe7000p.h **** 
 414:d:\project\9388\e1\2023_7_27\sr5e1_l9388_freeosek\modules\platform\board\include\sr5e1\evbe7000p.h **** #define SAR_CAL_1 gpio_iopack(GPIO_PORT_C, GPIO_PIN_1)
 415:d:\project\9388\e1\2023_7_27\sr5e1_l9388_freeosek\modules\platform\board\include\sr5e1\evbe7000p.h **** #define SAR_CAL_1_CFG                            \
 416:d:\project\9388\e1\2023_7_27\sr5e1_l9388_freeosek\modules\platform\board\include\sr5e1\evbe7000p.h ****     (GPIO_MODE_MODER_ANALOG |                    \
 417:d:\project\9388\e1\2023_7_27\sr5e1_l9388_freeosek\modules\platform\board\include\sr5e1\evbe7000p.h ****      GPIO_MODE_OTYPER_PUSHPULL |                 \
 418:d:\project\9388\e1\2023_7_27\sr5e1_l9388_freeosek\modules\platform\board\include\sr5e1\evbe7000p.h ****      GPIO_MODE_OSPEEDR_LOW |                     \
 419:d:\project\9388\e1\2023_7_27\sr5e1_l9388_freeosek\modules\platform\board\include\sr5e1\evbe7000p.h ****      GPIO_MODE_PUPDR_FLOATING |                  \
 420:d:\project\9388\e1\2023_7_27\sr5e1_l9388_freeosek\modules\platform\board\include\sr5e1\evbe7000p.h ****      GPIO_MODE_AFR(0U) |                         \
 421:d:\project\9388\e1\2023_7_27\sr5e1_l9388_freeosek\modules\platform\board\include\sr5e1\evbe7000p.h ****      GPIO_MODE_IHYSTR_CMOS |                     \
 422:d:\project\9388\e1\2023_7_27\sr5e1_l9388_freeosek\modules\platform\board\include\sr5e1\evbe7000p.h ****      GPIO_MODE_TRIGENR_IN_ENABLED |              \
 423:d:\project\9388\e1\2023_7_27\sr5e1_l9388_freeosek\modules\platform\board\include\sr5e1\evbe7000p.h ****      GPIO_MODE_SAFESELR_DISABLED |               \
 424:d:\project\9388\e1\2023_7_27\sr5e1_l9388_freeosek\modules\platform\board\include\sr5e1\evbe7000p.h ****      GPIO_MODE_SAFEVALR_LOW)
 425:d:\project\9388\e1\2023_7_27\sr5e1_l9388_freeosek\modules\platform\board\include\sr5e1\evbe7000p.h **** 
 426:d:\project\9388\e1\2023_7_27\sr5e1_l9388_freeosek\modules\platform\board\include\sr5e1\evbe7000p.h **** #define SAR_CAL_2 gpio_iopack(GPIO_PORT_C, GPIO_PIN_2)
 427:d:\project\9388\e1\2023_7_27\sr5e1_l9388_freeosek\modules\platform\board\include\sr5e1\evbe7000p.h **** #define SAR_CAL_2_CFG                            \
 428:d:\project\9388\e1\2023_7_27\sr5e1_l9388_freeosek\modules\platform\board\include\sr5e1\evbe7000p.h ****     (GPIO_MODE_MODER_ANALOG |                    \
 429:d:\project\9388\e1\2023_7_27\sr5e1_l9388_freeosek\modules\platform\board\include\sr5e1\evbe7000p.h ****      GPIO_MODE_OTYPER_PUSHPULL |                 \
 430:d:\project\9388\e1\2023_7_27\sr5e1_l9388_freeosek\modules\platform\board\include\sr5e1\evbe7000p.h ****      GPIO_MODE_OSPEEDR_LOW |                     \
 431:d:\project\9388\e1\2023_7_27\sr5e1_l9388_freeosek\modules\platform\board\include\sr5e1\evbe7000p.h ****      GPIO_MODE_PUPDR_FLOATING |                  \
 432:d:\project\9388\e1\2023_7_27\sr5e1_l9388_freeosek\modules\platform\board\include\sr5e1\evbe7000p.h ****      GPIO_MODE_AFR(0U) |                         \
 433:d:\project\9388\e1\2023_7_27\sr5e1_l9388_freeosek\modules\platform\board\include\sr5e1\evbe7000p.h ****      GPIO_MODE_IHYSTR_CMOS |                     \
 434:d:\project\9388\e1\2023_7_27\sr5e1_l9388_freeosek\modules\platform\board\include\sr5e1\evbe7000p.h ****      GPIO_MODE_TRIGENR_IN_ENABLED |              \
 435:d:\project\9388\e1\2023_7_27\sr5e1_l9388_freeosek\modules\platform\board\include\sr5e1\evbe7000p.h ****      GPIO_MODE_SAFESELR_DISABLED |               \
 436:d:\project\9388\e1\2023_7_27\sr5e1_l9388_freeosek\modules\platform\board\include\sr5e1\evbe7000p.h ****      GPIO_MODE_SAFEVALR_LOW)
 437:d:\project\9388\e1\2023_7_27\sr5e1_l9388_freeosek\modules\platform\board\include\sr5e1\evbe7000p.h **** 
 438:d:\project\9388\e1\2023_7_27\sr5e1_l9388_freeosek\modules\platform\board\include\sr5e1\evbe7000p.h **** #define SAR4_1_IO gpio_iopack(GPIO_PORT_C, GPIO_PIN_3)
 439:d:\project\9388\e1\2023_7_27\sr5e1_l9388_freeosek\modules\platform\board\include\sr5e1\evbe7000p.h **** #define SAR4_1_IO_CFG                            \
 440:d:\project\9388\e1\2023_7_27\sr5e1_l9388_freeosek\modules\platform\board\include\sr5e1\evbe7000p.h ****     (GPIO_MODE_MODER_ANALOG |                    \
 441:d:\project\9388\e1\2023_7_27\sr5e1_l9388_freeosek\modules\platform\board\include\sr5e1\evbe7000p.h ****      GPIO_MODE_OTYPER_PUSHPULL |                 \
 442:d:\project\9388\e1\2023_7_27\sr5e1_l9388_freeosek\modules\platform\board\include\sr5e1\evbe7000p.h ****      GPIO_MODE_OSPEEDR_LOW |                     \
 443:d:\project\9388\e1\2023_7_27\sr5e1_l9388_freeosek\modules\platform\board\include\sr5e1\evbe7000p.h ****      GPIO_MODE_PUPDR_FLOATING |                  \
 444:d:\project\9388\e1\2023_7_27\sr5e1_l9388_freeosek\modules\platform\board\include\sr5e1\evbe7000p.h ****      GPIO_MODE_AFR(0U) |                         \
 445:d:\project\9388\e1\2023_7_27\sr5e1_l9388_freeosek\modules\platform\board\include\sr5e1\evbe7000p.h ****      GPIO_MODE_IHYSTR_CMOS |                     \
 446:d:\project\9388\e1\2023_7_27\sr5e1_l9388_freeosek\modules\platform\board\include\sr5e1\evbe7000p.h ****      GPIO_MODE_TRIGENR_IN_ENABLED |              \
 447:d:\project\9388\e1\2023_7_27\sr5e1_l9388_freeosek\modules\platform\board\include\sr5e1\evbe7000p.h ****      GPIO_MODE_SAFESELR_DISABLED |               \
 448:d:\project\9388\e1\2023_7_27\sr5e1_l9388_freeosek\modules\platform\board\include\sr5e1\evbe7000p.h ****      GPIO_MODE_SAFEVALR_LOW)
 449:d:\project\9388\e1\2023_7_27\sr5e1_l9388_freeosek\modules\platform\board\include\sr5e1\evbe7000p.h **** 
 450:d:\project\9388\e1\2023_7_27\sr5e1_l9388_freeosek\modules\platform\board\include\sr5e1\evbe7000p.h **** #define SAR4_2_IO gpio_iopack(GPIO_PORT_C, GPIO_PIN_4)
 451:d:\project\9388\e1\2023_7_27\sr5e1_l9388_freeosek\modules\platform\board\include\sr5e1\evbe7000p.h **** #define SAR4_2_IO_CFG                            \
 452:d:\project\9388\e1\2023_7_27\sr5e1_l9388_freeosek\modules\platform\board\include\sr5e1\evbe7000p.h ****     (GPIO_MODE_MODER_ANALOG |                    \
 453:d:\project\9388\e1\2023_7_27\sr5e1_l9388_freeosek\modules\platform\board\include\sr5e1\evbe7000p.h ****      GPIO_MODE_OTYPER_PUSHPULL |                 \
 454:d:\project\9388\e1\2023_7_27\sr5e1_l9388_freeosek\modules\platform\board\include\sr5e1\evbe7000p.h ****      GPIO_MODE_OSPEEDR_LOW |                     \
 455:d:\project\9388\e1\2023_7_27\sr5e1_l9388_freeosek\modules\platform\board\include\sr5e1\evbe7000p.h ****      GPIO_MODE_PUPDR_FLOATING |                  \
 456:d:\project\9388\e1\2023_7_27\sr5e1_l9388_freeosek\modules\platform\board\include\sr5e1\evbe7000p.h ****      GPIO_MODE_AFR(0U) |                         \
 457:d:\project\9388\e1\2023_7_27\sr5e1_l9388_freeosek\modules\platform\board\include\sr5e1\evbe7000p.h ****      GPIO_MODE_IHYSTR_CMOS |                     \
 458:d:\project\9388\e1\2023_7_27\sr5e1_l9388_freeosek\modules\platform\board\include\sr5e1\evbe7000p.h ****      GPIO_MODE_TRIGENR_IN_ENABLED |              \
 459:d:\project\9388\e1\2023_7_27\sr5e1_l9388_freeosek\modules\platform\board\include\sr5e1\evbe7000p.h ****      GPIO_MODE_SAFESELR_DISABLED |               \
 460:d:\project\9388\e1\2023_7_27\sr5e1_l9388_freeosek\modules\platform\board\include\sr5e1\evbe7000p.h ****      GPIO_MODE_SAFEVALR_LOW)
 461:d:\project\9388\e1\2023_7_27\sr5e1_l9388_freeosek\modules\platform\board\include\sr5e1\evbe7000p.h **** 
 462:d:\project\9388\e1\2023_7_27\sr5e1_l9388_freeosek\modules\platform\board\include\sr5e1\evbe7000p.h **** #define DAC_2_IO gpio_iopack(GPIO_PORT_C, GPIO_PIN_5)
 463:d:\project\9388\e1\2023_7_27\sr5e1_l9388_freeosek\modules\platform\board\include\sr5e1\evbe7000p.h **** #define DAC_2_IO_CFG                             \
 464:d:\project\9388\e1\2023_7_27\sr5e1_l9388_freeosek\modules\platform\board\include\sr5e1\evbe7000p.h ****     (GPIO_MODE_MODER_ANALOG |                    \
 465:d:\project\9388\e1\2023_7_27\sr5e1_l9388_freeosek\modules\platform\board\include\sr5e1\evbe7000p.h ****      GPIO_MODE_OTYPER_PUSHPULL |                 \
 466:d:\project\9388\e1\2023_7_27\sr5e1_l9388_freeosek\modules\platform\board\include\sr5e1\evbe7000p.h ****      GPIO_MODE_OSPEEDR_LOW |                     \
 467:d:\project\9388\e1\2023_7_27\sr5e1_l9388_freeosek\modules\platform\board\include\sr5e1\evbe7000p.h ****      GPIO_MODE_PUPDR_FLOATING |                  \
 468:d:\project\9388\e1\2023_7_27\sr5e1_l9388_freeosek\modules\platform\board\include\sr5e1\evbe7000p.h ****      GPIO_MODE_AFR(0U) |                         \
 469:d:\project\9388\e1\2023_7_27\sr5e1_l9388_freeosek\modules\platform\board\include\sr5e1\evbe7000p.h ****      GPIO_MODE_IHYSTR_CMOS |                     \
 470:d:\project\9388\e1\2023_7_27\sr5e1_l9388_freeosek\modules\platform\board\include\sr5e1\evbe7000p.h ****      GPIO_MODE_TRIGENR_IN_DISABLED |             \
 471:d:\project\9388\e1\2023_7_27\sr5e1_l9388_freeosek\modules\platform\board\include\sr5e1\evbe7000p.h ****      GPIO_MODE_SAFESELR_DISABLED |               \
 472:d:\project\9388\e1\2023_7_27\sr5e1_l9388_freeosek\modules\platform\board\include\sr5e1\evbe7000p.h ****      GPIO_MODE_SAFEVALR_LOW)
 473:d:\project\9388\e1\2023_7_27\sr5e1_l9388_freeosek\modules\platform\board\include\sr5e1\evbe7000p.h **** 
 474:d:\project\9388\e1\2023_7_27\sr5e1_l9388_freeosek\modules\platform\board\include\sr5e1\evbe7000p.h **** #define SAR4_3_IO gpio_iopack(GPIO_PORT_C, GPIO_PIN_6)
 475:d:\project\9388\e1\2023_7_27\sr5e1_l9388_freeosek\modules\platform\board\include\sr5e1\evbe7000p.h **** #define SAR4_3_IO_CFG                            \
 476:d:\project\9388\e1\2023_7_27\sr5e1_l9388_freeosek\modules\platform\board\include\sr5e1\evbe7000p.h ****     (GPIO_MODE_MODER_ANALOG |                    \
 477:d:\project\9388\e1\2023_7_27\sr5e1_l9388_freeosek\modules\platform\board\include\sr5e1\evbe7000p.h ****      GPIO_MODE_OTYPER_PUSHPULL |                 \
 478:d:\project\9388\e1\2023_7_27\sr5e1_l9388_freeosek\modules\platform\board\include\sr5e1\evbe7000p.h ****      GPIO_MODE_OSPEEDR_LOW |                     \
 479:d:\project\9388\e1\2023_7_27\sr5e1_l9388_freeosek\modules\platform\board\include\sr5e1\evbe7000p.h ****      GPIO_MODE_PUPDR_FLOATING |                  \
 480:d:\project\9388\e1\2023_7_27\sr5e1_l9388_freeosek\modules\platform\board\include\sr5e1\evbe7000p.h ****      GPIO_MODE_AFR(0U) |                         \
 481:d:\project\9388\e1\2023_7_27\sr5e1_l9388_freeosek\modules\platform\board\include\sr5e1\evbe7000p.h ****      GPIO_MODE_IHYSTR_CMOS |                     \
 482:d:\project\9388\e1\2023_7_27\sr5e1_l9388_freeosek\modules\platform\board\include\sr5e1\evbe7000p.h ****      GPIO_MODE_TRIGENR_IN_ENABLED |              \
 483:d:\project\9388\e1\2023_7_27\sr5e1_l9388_freeosek\modules\platform\board\include\sr5e1\evbe7000p.h ****      GPIO_MODE_SAFESELR_DISABLED |               \
 484:d:\project\9388\e1\2023_7_27\sr5e1_l9388_freeosek\modules\platform\board\include\sr5e1\evbe7000p.h ****      GPIO_MODE_SAFEVALR_LOW)
 485:d:\project\9388\e1\2023_7_27\sr5e1_l9388_freeosek\modules\platform\board\include\sr5e1\evbe7000p.h **** 
 486:d:\project\9388\e1\2023_7_27\sr5e1_l9388_freeosek\modules\platform\board\include\sr5e1\evbe7000p.h **** #define SAR4_4_IO gpio_iopack(GPIO_PORT_C, GPIO_PIN_7)
 487:d:\project\9388\e1\2023_7_27\sr5e1_l9388_freeosek\modules\platform\board\include\sr5e1\evbe7000p.h **** #define SAR4_4_IO_CFG                            \
 488:d:\project\9388\e1\2023_7_27\sr5e1_l9388_freeosek\modules\platform\board\include\sr5e1\evbe7000p.h ****     (GPIO_MODE_MODER_ANALOG |                    \
 489:d:\project\9388\e1\2023_7_27\sr5e1_l9388_freeosek\modules\platform\board\include\sr5e1\evbe7000p.h ****      GPIO_MODE_OTYPER_PUSHPULL |                 \
 490:d:\project\9388\e1\2023_7_27\sr5e1_l9388_freeosek\modules\platform\board\include\sr5e1\evbe7000p.h ****      GPIO_MODE_OSPEEDR_LOW |                     \
 491:d:\project\9388\e1\2023_7_27\sr5e1_l9388_freeosek\modules\platform\board\include\sr5e1\evbe7000p.h ****      GPIO_MODE_PUPDR_FLOATING |                  \
 492:d:\project\9388\e1\2023_7_27\sr5e1_l9388_freeosek\modules\platform\board\include\sr5e1\evbe7000p.h ****      GPIO_MODE_AFR(0U) |                         \
 493:d:\project\9388\e1\2023_7_27\sr5e1_l9388_freeosek\modules\platform\board\include\sr5e1\evbe7000p.h ****      GPIO_MODE_IHYSTR_CMOS |                     \
 494:d:\project\9388\e1\2023_7_27\sr5e1_l9388_freeosek\modules\platform\board\include\sr5e1\evbe7000p.h ****      GPIO_MODE_TRIGENR_IN_ENABLED |              \
 495:d:\project\9388\e1\2023_7_27\sr5e1_l9388_freeosek\modules\platform\board\include\sr5e1\evbe7000p.h ****      GPIO_MODE_SAFESELR_DISABLED |               \
 496:d:\project\9388\e1\2023_7_27\sr5e1_l9388_freeosek\modules\platform\board\include\sr5e1\evbe7000p.h ****      GPIO_MODE_SAFEVALR_LOW)
 497:d:\project\9388\e1\2023_7_27\sr5e1_l9388_freeosek\modules\platform\board\include\sr5e1\evbe7000p.h **** 
 498:d:\project\9388\e1\2023_7_27\sr5e1_l9388_freeosek\modules\platform\board\include\sr5e1\evbe7000p.h **** #define SAR4_5_IO gpio_iopack(GPIO_PORT_C, GPIO_PIN_8)
 499:d:\project\9388\e1\2023_7_27\sr5e1_l9388_freeosek\modules\platform\board\include\sr5e1\evbe7000p.h **** #define SAR4_5_IO_CFG                            \
 500:d:\project\9388\e1\2023_7_27\sr5e1_l9388_freeosek\modules\platform\board\include\sr5e1\evbe7000p.h ****     (GPIO_MODE_MODER_ANALOG |                    \
 501:d:\project\9388\e1\2023_7_27\sr5e1_l9388_freeosek\modules\platform\board\include\sr5e1\evbe7000p.h ****      GPIO_MODE_OTYPER_PUSHPULL |                 \
 502:d:\project\9388\e1\2023_7_27\sr5e1_l9388_freeosek\modules\platform\board\include\sr5e1\evbe7000p.h ****      GPIO_MODE_OSPEEDR_LOW |                     \
 503:d:\project\9388\e1\2023_7_27\sr5e1_l9388_freeosek\modules\platform\board\include\sr5e1\evbe7000p.h ****      GPIO_MODE_PUPDR_FLOATING |                  \
 504:d:\project\9388\e1\2023_7_27\sr5e1_l9388_freeosek\modules\platform\board\include\sr5e1\evbe7000p.h ****      GPIO_MODE_AFR(0U) |                         \
 505:d:\project\9388\e1\2023_7_27\sr5e1_l9388_freeosek\modules\platform\board\include\sr5e1\evbe7000p.h ****      GPIO_MODE_IHYSTR_CMOS |                     \
 506:d:\project\9388\e1\2023_7_27\sr5e1_l9388_freeosek\modules\platform\board\include\sr5e1\evbe7000p.h ****      GPIO_MODE_TRIGENR_IN_ENABLED |              \
 507:d:\project\9388\e1\2023_7_27\sr5e1_l9388_freeosek\modules\platform\board\include\sr5e1\evbe7000p.h ****      GPIO_MODE_SAFESELR_DISABLED |               \
 508:d:\project\9388\e1\2023_7_27\sr5e1_l9388_freeosek\modules\platform\board\include\sr5e1\evbe7000p.h ****      GPIO_MODE_SAFEVALR_LOW)
 509:d:\project\9388\e1\2023_7_27\sr5e1_l9388_freeosek\modules\platform\board\include\sr5e1\evbe7000p.h **** 
 510:d:\project\9388\e1\2023_7_27\sr5e1_l9388_freeosek\modules\platform\board\include\sr5e1\evbe7000p.h **** #define SAR5_1_IO gpio_iopack(GPIO_PORT_C, GPIO_PIN_9)
 511:d:\project\9388\e1\2023_7_27\sr5e1_l9388_freeosek\modules\platform\board\include\sr5e1\evbe7000p.h **** #define SAR5_1_IO_CFG                            \
 512:d:\project\9388\e1\2023_7_27\sr5e1_l9388_freeosek\modules\platform\board\include\sr5e1\evbe7000p.h ****     (GPIO_MODE_MODER_ANALOG |                    \
 513:d:\project\9388\e1\2023_7_27\sr5e1_l9388_freeosek\modules\platform\board\include\sr5e1\evbe7000p.h ****      GPIO_MODE_OTYPER_PUSHPULL |                 \
 514:d:\project\9388\e1\2023_7_27\sr5e1_l9388_freeosek\modules\platform\board\include\sr5e1\evbe7000p.h ****      GPIO_MODE_OSPEEDR_LOW |                     \
 515:d:\project\9388\e1\2023_7_27\sr5e1_l9388_freeosek\modules\platform\board\include\sr5e1\evbe7000p.h ****      GPIO_MODE_PUPDR_FLOATING |                  \
 516:d:\project\9388\e1\2023_7_27\sr5e1_l9388_freeosek\modules\platform\board\include\sr5e1\evbe7000p.h ****      GPIO_MODE_AFR(0U) |                         \
 517:d:\project\9388\e1\2023_7_27\sr5e1_l9388_freeosek\modules\platform\board\include\sr5e1\evbe7000p.h ****      GPIO_MODE_IHYSTR_CMOS |                     \
 518:d:\project\9388\e1\2023_7_27\sr5e1_l9388_freeosek\modules\platform\board\include\sr5e1\evbe7000p.h ****      GPIO_MODE_TRIGENR_IN_ENABLED |              \
 519:d:\project\9388\e1\2023_7_27\sr5e1_l9388_freeosek\modules\platform\board\include\sr5e1\evbe7000p.h ****      GPIO_MODE_SAFESELR_DISABLED |               \
 520:d:\project\9388\e1\2023_7_27\sr5e1_l9388_freeosek\modules\platform\board\include\sr5e1\evbe7000p.h ****      GPIO_MODE_SAFEVALR_LOW)
 521:d:\project\9388\e1\2023_7_27\sr5e1_l9388_freeosek\modules\platform\board\include\sr5e1\evbe7000p.h **** 
 522:d:\project\9388\e1\2023_7_27\sr5e1_l9388_freeosek\modules\platform\board\include\sr5e1\evbe7000p.h **** #define SAR5_2_IO gpio_iopack(GPIO_PORT_C, GPIO_PIN_10)
 523:d:\project\9388\e1\2023_7_27\sr5e1_l9388_freeosek\modules\platform\board\include\sr5e1\evbe7000p.h **** #define SAR5_2_IO_CFG                            \
 524:d:\project\9388\e1\2023_7_27\sr5e1_l9388_freeosek\modules\platform\board\include\sr5e1\evbe7000p.h ****     (GPIO_MODE_MODER_ANALOG |                    \
 525:d:\project\9388\e1\2023_7_27\sr5e1_l9388_freeosek\modules\platform\board\include\sr5e1\evbe7000p.h ****      GPIO_MODE_OTYPER_PUSHPULL |                 \
 526:d:\project\9388\e1\2023_7_27\sr5e1_l9388_freeosek\modules\platform\board\include\sr5e1\evbe7000p.h ****      GPIO_MODE_OSPEEDR_LOW |                     \
 527:d:\project\9388\e1\2023_7_27\sr5e1_l9388_freeosek\modules\platform\board\include\sr5e1\evbe7000p.h ****      GPIO_MODE_PUPDR_FLOATING |                  \
 528:d:\project\9388\e1\2023_7_27\sr5e1_l9388_freeosek\modules\platform\board\include\sr5e1\evbe7000p.h ****      GPIO_MODE_AFR(0U) |                         \
 529:d:\project\9388\e1\2023_7_27\sr5e1_l9388_freeosek\modules\platform\board\include\sr5e1\evbe7000p.h ****      GPIO_MODE_IHYSTR_CMOS |                     \
 530:d:\project\9388\e1\2023_7_27\sr5e1_l9388_freeosek\modules\platform\board\include\sr5e1\evbe7000p.h ****      GPIO_MODE_TRIGENR_IN_ENABLED |              \
 531:d:\project\9388\e1\2023_7_27\sr5e1_l9388_freeosek\modules\platform\board\include\sr5e1\evbe7000p.h ****      GPIO_MODE_SAFESELR_DISABLED |               \
 532:d:\project\9388\e1\2023_7_27\sr5e1_l9388_freeosek\modules\platform\board\include\sr5e1\evbe7000p.h ****      GPIO_MODE_SAFEVALR_LOW)
 533:d:\project\9388\e1\2023_7_27\sr5e1_l9388_freeosek\modules\platform\board\include\sr5e1\evbe7000p.h **** 
 534:d:\project\9388\e1\2023_7_27\sr5e1_l9388_freeosek\modules\platform\board\include\sr5e1\evbe7000p.h **** #define SAR5_3_IO gpio_iopack(GPIO_PORT_C, GPIO_PIN_11)
 535:d:\project\9388\e1\2023_7_27\sr5e1_l9388_freeosek\modules\platform\board\include\sr5e1\evbe7000p.h **** #define SAR5_3_IO_CFG                            \
 536:d:\project\9388\e1\2023_7_27\sr5e1_l9388_freeosek\modules\platform\board\include\sr5e1\evbe7000p.h ****     (GPIO_MODE_MODER_ANALOG |                    \
 537:d:\project\9388\e1\2023_7_27\sr5e1_l9388_freeosek\modules\platform\board\include\sr5e1\evbe7000p.h ****      GPIO_MODE_OTYPER_PUSHPULL |                 \
 538:d:\project\9388\e1\2023_7_27\sr5e1_l9388_freeosek\modules\platform\board\include\sr5e1\evbe7000p.h ****      GPIO_MODE_OSPEEDR_LOW |                     \
 539:d:\project\9388\e1\2023_7_27\sr5e1_l9388_freeosek\modules\platform\board\include\sr5e1\evbe7000p.h ****      GPIO_MODE_PUPDR_FLOATING |                  \
 540:d:\project\9388\e1\2023_7_27\sr5e1_l9388_freeosek\modules\platform\board\include\sr5e1\evbe7000p.h ****      GPIO_MODE_AFR(0U) |                         \
 541:d:\project\9388\e1\2023_7_27\sr5e1_l9388_freeosek\modules\platform\board\include\sr5e1\evbe7000p.h ****      GPIO_MODE_IHYSTR_CMOS |                     \
 542:d:\project\9388\e1\2023_7_27\sr5e1_l9388_freeosek\modules\platform\board\include\sr5e1\evbe7000p.h ****      GPIO_MODE_TRIGENR_IN_ENABLED |              \
 543:d:\project\9388\e1\2023_7_27\sr5e1_l9388_freeosek\modules\platform\board\include\sr5e1\evbe7000p.h ****      GPIO_MODE_SAFESELR_DISABLED |               \
 544:d:\project\9388\e1\2023_7_27\sr5e1_l9388_freeosek\modules\platform\board\include\sr5e1\evbe7000p.h ****      GPIO_MODE_SAFEVALR_LOW)
 545:d:\project\9388\e1\2023_7_27\sr5e1_l9388_freeosek\modules\platform\board\include\sr5e1\evbe7000p.h **** 
 546:d:\project\9388\e1\2023_7_27\sr5e1_l9388_freeosek\modules\platform\board\include\sr5e1\evbe7000p.h **** #define SAR5_4_IO gpio_iopack(GPIO_PORT_C, GPIO_PIN_12)
 547:d:\project\9388\e1\2023_7_27\sr5e1_l9388_freeosek\modules\platform\board\include\sr5e1\evbe7000p.h **** #define SAR5_4_IO_CFG                            \
 548:d:\project\9388\e1\2023_7_27\sr5e1_l9388_freeosek\modules\platform\board\include\sr5e1\evbe7000p.h ****     (GPIO_MODE_MODER_ANALOG |                    \
 549:d:\project\9388\e1\2023_7_27\sr5e1_l9388_freeosek\modules\platform\board\include\sr5e1\evbe7000p.h ****      GPIO_MODE_OTYPER_PUSHPULL |                 \
 550:d:\project\9388\e1\2023_7_27\sr5e1_l9388_freeosek\modules\platform\board\include\sr5e1\evbe7000p.h ****      GPIO_MODE_OSPEEDR_LOW |                     \
 551:d:\project\9388\e1\2023_7_27\sr5e1_l9388_freeosek\modules\platform\board\include\sr5e1\evbe7000p.h ****      GPIO_MODE_PUPDR_FLOATING |                  \
 552:d:\project\9388\e1\2023_7_27\sr5e1_l9388_freeosek\modules\platform\board\include\sr5e1\evbe7000p.h ****      GPIO_MODE_AFR(0U) |                         \
 553:d:\project\9388\e1\2023_7_27\sr5e1_l9388_freeosek\modules\platform\board\include\sr5e1\evbe7000p.h ****      GPIO_MODE_IHYSTR_CMOS |                     \
 554:d:\project\9388\e1\2023_7_27\sr5e1_l9388_freeosek\modules\platform\board\include\sr5e1\evbe7000p.h ****      GPIO_MODE_TRIGENR_IN_ENABLED |              \
 555:d:\project\9388\e1\2023_7_27\sr5e1_l9388_freeosek\modules\platform\board\include\sr5e1\evbe7000p.h ****      GPIO_MODE_SAFESELR_DISABLED |               \
 556:d:\project\9388\e1\2023_7_27\sr5e1_l9388_freeosek\modules\platform\board\include\sr5e1\evbe7000p.h ****      GPIO_MODE_SAFEVALR_LOW)
 557:d:\project\9388\e1\2023_7_27\sr5e1_l9388_freeosek\modules\platform\board\include\sr5e1\evbe7000p.h **** 
 558:d:\project\9388\e1\2023_7_27\sr5e1_l9388_freeosek\modules\platform\board\include\sr5e1\evbe7000p.h **** #define SAR5_5_IO gpio_iopack(GPIO_PORT_C, GPIO_PIN_13)
 559:d:\project\9388\e1\2023_7_27\sr5e1_l9388_freeosek\modules\platform\board\include\sr5e1\evbe7000p.h **** #define SAR5_5_IO_CFG                            \
 560:d:\project\9388\e1\2023_7_27\sr5e1_l9388_freeosek\modules\platform\board\include\sr5e1\evbe7000p.h ****     (GPIO_MODE_MODER_INPUT |                    \
 561:d:\project\9388\e1\2023_7_27\sr5e1_l9388_freeosek\modules\platform\board\include\sr5e1\evbe7000p.h ****      GPIO_MODE_OTYPER_PUSHPULL |                 \
 562:d:\project\9388\e1\2023_7_27\sr5e1_l9388_freeosek\modules\platform\board\include\sr5e1\evbe7000p.h ****      GPIO_MODE_OSPEEDR_LOW |                     \
 563:d:\project\9388\e1\2023_7_27\sr5e1_l9388_freeosek\modules\platform\board\include\sr5e1\evbe7000p.h ****      GPIO_MODE_PUPDR_FLOATING |                  \
 564:d:\project\9388\e1\2023_7_27\sr5e1_l9388_freeosek\modules\platform\board\include\sr5e1\evbe7000p.h ****      GPIO_MODE_AFR(0U) |                         \
 565:d:\project\9388\e1\2023_7_27\sr5e1_l9388_freeosek\modules\platform\board\include\sr5e1\evbe7000p.h ****      GPIO_MODE_IHYSTR_CMOS |                     \
 566:d:\project\9388\e1\2023_7_27\sr5e1_l9388_freeosek\modules\platform\board\include\sr5e1\evbe7000p.h ****      GPIO_MODE_TRIGENR_IN_ENABLED |              \
 567:d:\project\9388\e1\2023_7_27\sr5e1_l9388_freeosek\modules\platform\board\include\sr5e1\evbe7000p.h ****      GPIO_MODE_SAFESELR_DISABLED |               \
 568:d:\project\9388\e1\2023_7_27\sr5e1_l9388_freeosek\modules\platform\board\include\sr5e1\evbe7000p.h ****      GPIO_MODE_SAFEVALR_LOW)
 569:d:\project\9388\e1\2023_7_27\sr5e1_l9388_freeosek\modules\platform\board\include\sr5e1\evbe7000p.h **** 
 570:d:\project\9388\e1\2023_7_27\sr5e1_l9388_freeosek\modules\platform\board\include\sr5e1\evbe7000p.h **** #define TIM1_CH1N gpio_iopack(GPIO_PORT_C, GPIO_PIN_14)
 571:d:\project\9388\e1\2023_7_27\sr5e1_l9388_freeosek\modules\platform\board\include\sr5e1\evbe7000p.h **** #define TIM1_CH1N_CFG                            \
 572:d:\project\9388\e1\2023_7_27\sr5e1_l9388_freeosek\modules\platform\board\include\sr5e1\evbe7000p.h ****     (GPIO_MODE_MODER_ALTERNATE |                 \
 573:d:\project\9388\e1\2023_7_27\sr5e1_l9388_freeosek\modules\platform\board\include\sr5e1\evbe7000p.h ****      GPIO_MODE_OTYPER_PUSHPULL |                 \
 574:d:\project\9388\e1\2023_7_27\sr5e1_l9388_freeosek\modules\platform\board\include\sr5e1\evbe7000p.h ****      GPIO_MODE_OSPEEDR_LOW |                     \
 575:d:\project\9388\e1\2023_7_27\sr5e1_l9388_freeosek\modules\platform\board\include\sr5e1\evbe7000p.h ****      GPIO_MODE_PUPDR_FLOATING |                  \
 576:d:\project\9388\e1\2023_7_27\sr5e1_l9388_freeosek\modules\platform\board\include\sr5e1\evbe7000p.h ****      GPIO_MODE_AFR(4U) |                         \
 577:d:\project\9388\e1\2023_7_27\sr5e1_l9388_freeosek\modules\platform\board\include\sr5e1\evbe7000p.h ****      GPIO_MODE_IHYSTR_CMOS |                     \
 578:d:\project\9388\e1\2023_7_27\sr5e1_l9388_freeosek\modules\platform\board\include\sr5e1\evbe7000p.h ****      GPIO_MODE_TRIGENR_IN_DISABLED |             \
 579:d:\project\9388\e1\2023_7_27\sr5e1_l9388_freeosek\modules\platform\board\include\sr5e1\evbe7000p.h ****      GPIO_MODE_SAFESELR_DISABLED |               \
 580:d:\project\9388\e1\2023_7_27\sr5e1_l9388_freeosek\modules\platform\board\include\sr5e1\evbe7000p.h ****      GPIO_MODE_SAFEVALR_LOW)
 581:d:\project\9388\e1\2023_7_27\sr5e1_l9388_freeosek\modules\platform\board\include\sr5e1\evbe7000p.h **** 
 582:d:\project\9388\e1\2023_7_27\sr5e1_l9388_freeosek\modules\platform\board\include\sr5e1\evbe7000p.h **** #define TIM1_CH1 gpio_iopack(GPIO_PORT_C, GPIO_PIN_15)
 583:d:\project\9388\e1\2023_7_27\sr5e1_l9388_freeosek\modules\platform\board\include\sr5e1\evbe7000p.h **** #define TIM1_CH1_CFG                             \
 584:d:\project\9388\e1\2023_7_27\sr5e1_l9388_freeosek\modules\platform\board\include\sr5e1\evbe7000p.h ****     (GPIO_MODE_MODER_ALTERNATE |                 \
 585:d:\project\9388\e1\2023_7_27\sr5e1_l9388_freeosek\modules\platform\board\include\sr5e1\evbe7000p.h ****      GPIO_MODE_OTYPER_PUSHPULL |                 \
 586:d:\project\9388\e1\2023_7_27\sr5e1_l9388_freeosek\modules\platform\board\include\sr5e1\evbe7000p.h ****      GPIO_MODE_OSPEEDR_LOW |                     \
 587:d:\project\9388\e1\2023_7_27\sr5e1_l9388_freeosek\modules\platform\board\include\sr5e1\evbe7000p.h ****      GPIO_MODE_PUPDR_FLOATING |                  \
 588:d:\project\9388\e1\2023_7_27\sr5e1_l9388_freeosek\modules\platform\board\include\sr5e1\evbe7000p.h ****      GPIO_MODE_AFR(4U) |                         \
 589:d:\project\9388\e1\2023_7_27\sr5e1_l9388_freeosek\modules\platform\board\include\sr5e1\evbe7000p.h ****      GPIO_MODE_IHYSTR_CMOS |                     \
 590:d:\project\9388\e1\2023_7_27\sr5e1_l9388_freeosek\modules\platform\board\include\sr5e1\evbe7000p.h ****      GPIO_MODE_TRIGENR_IN_ENABLED |              \
 591:d:\project\9388\e1\2023_7_27\sr5e1_l9388_freeosek\modules\platform\board\include\sr5e1\evbe7000p.h ****      GPIO_MODE_SAFESELR_DISABLED |               \
 592:d:\project\9388\e1\2023_7_27\sr5e1_l9388_freeosek\modules\platform\board\include\sr5e1\evbe7000p.h ****      GPIO_MODE_SAFEVALR_LOW)
 593:d:\project\9388\e1\2023_7_27\sr5e1_l9388_freeosek\modules\platform\board\include\sr5e1\evbe7000p.h **** 
 594:d:\project\9388\e1\2023_7_27\sr5e1_l9388_freeosek\modules\platform\board\include\sr5e1\evbe7000p.h **** /* PortD pin settings. */
 595:d:\project\9388\e1\2023_7_27\sr5e1_l9388_freeosek\modules\platform\board\include\sr5e1\evbe7000p.h **** #define TIM1_CH2N gpio_iopack(GPIO_PORT_D, GPIO_PIN_0)
 596:d:\project\9388\e1\2023_7_27\sr5e1_l9388_freeosek\modules\platform\board\include\sr5e1\evbe7000p.h **** #define TIM1_CH2N_CFG                            \
 597:d:\project\9388\e1\2023_7_27\sr5e1_l9388_freeosek\modules\platform\board\include\sr5e1\evbe7000p.h ****     (GPIO_MODE_MODER_ALTERNATE |                 \
 598:d:\project\9388\e1\2023_7_27\sr5e1_l9388_freeosek\modules\platform\board\include\sr5e1\evbe7000p.h ****      GPIO_MODE_OTYPER_PUSHPULL |                 \
 599:d:\project\9388\e1\2023_7_27\sr5e1_l9388_freeosek\modules\platform\board\include\sr5e1\evbe7000p.h ****      GPIO_MODE_OSPEEDR_LOW |                     \
 600:d:\project\9388\e1\2023_7_27\sr5e1_l9388_freeosek\modules\platform\board\include\sr5e1\evbe7000p.h ****      GPIO_MODE_PUPDR_FLOATING |                  \
 601:d:\project\9388\e1\2023_7_27\sr5e1_l9388_freeosek\modules\platform\board\include\sr5e1\evbe7000p.h ****      GPIO_MODE_AFR(4U) |                         \
 602:d:\project\9388\e1\2023_7_27\sr5e1_l9388_freeosek\modules\platform\board\include\sr5e1\evbe7000p.h ****      GPIO_MODE_IHYSTR_CMOS |                     \
 603:d:\project\9388\e1\2023_7_27\sr5e1_l9388_freeosek\modules\platform\board\include\sr5e1\evbe7000p.h ****      GPIO_MODE_TRIGENR_IN_DISABLED |             \
 604:d:\project\9388\e1\2023_7_27\sr5e1_l9388_freeosek\modules\platform\board\include\sr5e1\evbe7000p.h ****      GPIO_MODE_SAFESELR_DISABLED |               \
 605:d:\project\9388\e1\2023_7_27\sr5e1_l9388_freeosek\modules\platform\board\include\sr5e1\evbe7000p.h ****      GPIO_MODE_SAFEVALR_LOW)
 606:d:\project\9388\e1\2023_7_27\sr5e1_l9388_freeosek\modules\platform\board\include\sr5e1\evbe7000p.h **** 
 607:d:\project\9388\e1\2023_7_27\sr5e1_l9388_freeosek\modules\platform\board\include\sr5e1\evbe7000p.h **** #define TIM1_CH2 gpio_iopack(GPIO_PORT_D, GPIO_PIN_1)
 608:d:\project\9388\e1\2023_7_27\sr5e1_l9388_freeosek\modules\platform\board\include\sr5e1\evbe7000p.h **** #define TIM1_CH2_CFG                             \
 609:d:\project\9388\e1\2023_7_27\sr5e1_l9388_freeosek\modules\platform\board\include\sr5e1\evbe7000p.h ****     (GPIO_MODE_MODER_ALTERNATE |                 \
 610:d:\project\9388\e1\2023_7_27\sr5e1_l9388_freeosek\modules\platform\board\include\sr5e1\evbe7000p.h ****      GPIO_MODE_OTYPER_PUSHPULL |                 \
 611:d:\project\9388\e1\2023_7_27\sr5e1_l9388_freeosek\modules\platform\board\include\sr5e1\evbe7000p.h ****      GPIO_MODE_OSPEEDR_LOW |                     \
 612:d:\project\9388\e1\2023_7_27\sr5e1_l9388_freeosek\modules\platform\board\include\sr5e1\evbe7000p.h ****      GPIO_MODE_PUPDR_FLOATING |                  \
 613:d:\project\9388\e1\2023_7_27\sr5e1_l9388_freeosek\modules\platform\board\include\sr5e1\evbe7000p.h ****      GPIO_MODE_AFR(4U) |                         \
 614:d:\project\9388\e1\2023_7_27\sr5e1_l9388_freeosek\modules\platform\board\include\sr5e1\evbe7000p.h ****      GPIO_MODE_IHYSTR_CMOS |                     \
 615:d:\project\9388\e1\2023_7_27\sr5e1_l9388_freeosek\modules\platform\board\include\sr5e1\evbe7000p.h ****      GPIO_MODE_TRIGENR_IN_ENABLED |              \
 616:d:\project\9388\e1\2023_7_27\sr5e1_l9388_freeosek\modules\platform\board\include\sr5e1\evbe7000p.h ****      GPIO_MODE_SAFESELR_DISABLED |               \
 617:d:\project\9388\e1\2023_7_27\sr5e1_l9388_freeosek\modules\platform\board\include\sr5e1\evbe7000p.h ****      GPIO_MODE_SAFEVALR_LOW)
 618:d:\project\9388\e1\2023_7_27\sr5e1_l9388_freeosek\modules\platform\board\include\sr5e1\evbe7000p.h **** 
 619:d:\project\9388\e1\2023_7_27\sr5e1_l9388_freeosek\modules\platform\board\include\sr5e1\evbe7000p.h **** #define TIM1_BKIN gpio_iopack(GPIO_PORT_D, GPIO_PIN_2)
 620:d:\project\9388\e1\2023_7_27\sr5e1_l9388_freeosek\modules\platform\board\include\sr5e1\evbe7000p.h **** #define TIM1_BKIN_CFG                            \
 621:d:\project\9388\e1\2023_7_27\sr5e1_l9388_freeosek\modules\platform\board\include\sr5e1\evbe7000p.h ****     (GPIO_MODE_MODER_ALTERNATE |                 \
 622:d:\project\9388\e1\2023_7_27\sr5e1_l9388_freeosek\modules\platform\board\include\sr5e1\evbe7000p.h ****      GPIO_MODE_OTYPER_PUSHPULL |                 \
 623:d:\project\9388\e1\2023_7_27\sr5e1_l9388_freeosek\modules\platform\board\include\sr5e1\evbe7000p.h ****      GPIO_MODE_OSPEEDR_LOW |                     \
 624:d:\project\9388\e1\2023_7_27\sr5e1_l9388_freeosek\modules\platform\board\include\sr5e1\evbe7000p.h ****      GPIO_MODE_PUPDR_FLOATING |                  \
 625:d:\project\9388\e1\2023_7_27\sr5e1_l9388_freeosek\modules\platform\board\include\sr5e1\evbe7000p.h ****      GPIO_MODE_AFR(4U) |                         \
 626:d:\project\9388\e1\2023_7_27\sr5e1_l9388_freeosek\modules\platform\board\include\sr5e1\evbe7000p.h ****      GPIO_MODE_IHYSTR_CMOS |                     \
 627:d:\project\9388\e1\2023_7_27\sr5e1_l9388_freeosek\modules\platform\board\include\sr5e1\evbe7000p.h ****      GPIO_MODE_TRIGENR_IN_ENABLED |              \
 628:d:\project\9388\e1\2023_7_27\sr5e1_l9388_freeosek\modules\platform\board\include\sr5e1\evbe7000p.h ****      GPIO_MODE_SAFESELR_DISABLED |               \
 629:d:\project\9388\e1\2023_7_27\sr5e1_l9388_freeosek\modules\platform\board\include\sr5e1\evbe7000p.h ****      GPIO_MODE_SAFEVALR_LOW)
 630:d:\project\9388\e1\2023_7_27\sr5e1_l9388_freeosek\modules\platform\board\include\sr5e1\evbe7000p.h **** 
 631:d:\project\9388\e1\2023_7_27\sr5e1_l9388_freeosek\modules\platform\board\include\sr5e1\evbe7000p.h **** #define TIM1_CH3N gpio_iopack(GPIO_PORT_D, GPIO_PIN_3)
 632:d:\project\9388\e1\2023_7_27\sr5e1_l9388_freeosek\modules\platform\board\include\sr5e1\evbe7000p.h **** #define TIM1_CH3N_CFG                            \
 633:d:\project\9388\e1\2023_7_27\sr5e1_l9388_freeosek\modules\platform\board\include\sr5e1\evbe7000p.h ****     (GPIO_MODE_MODER_ALTERNATE |                 \
 634:d:\project\9388\e1\2023_7_27\sr5e1_l9388_freeosek\modules\platform\board\include\sr5e1\evbe7000p.h ****      GPIO_MODE_OTYPER_PUSHPULL |                 \
 635:d:\project\9388\e1\2023_7_27\sr5e1_l9388_freeosek\modules\platform\board\include\sr5e1\evbe7000p.h ****      GPIO_MODE_OSPEEDR_LOW |                     \
 636:d:\project\9388\e1\2023_7_27\sr5e1_l9388_freeosek\modules\platform\board\include\sr5e1\evbe7000p.h ****      GPIO_MODE_PUPDR_FLOATING |                  \
 637:d:\project\9388\e1\2023_7_27\sr5e1_l9388_freeosek\modules\platform\board\include\sr5e1\evbe7000p.h ****      GPIO_MODE_AFR(4U) |                         \
 638:d:\project\9388\e1\2023_7_27\sr5e1_l9388_freeosek\modules\platform\board\include\sr5e1\evbe7000p.h ****      GPIO_MODE_IHYSTR_CMOS |                     \
 639:d:\project\9388\e1\2023_7_27\sr5e1_l9388_freeosek\modules\platform\board\include\sr5e1\evbe7000p.h ****      GPIO_MODE_TRIGENR_IN_DISABLED |             \
 640:d:\project\9388\e1\2023_7_27\sr5e1_l9388_freeosek\modules\platform\board\include\sr5e1\evbe7000p.h ****      GPIO_MODE_SAFESELR_DISABLED |               \
 641:d:\project\9388\e1\2023_7_27\sr5e1_l9388_freeosek\modules\platform\board\include\sr5e1\evbe7000p.h ****      GPIO_MODE_SAFEVALR_LOW)
 642:d:\project\9388\e1\2023_7_27\sr5e1_l9388_freeosek\modules\platform\board\include\sr5e1\evbe7000p.h **** 
 643:d:\project\9388\e1\2023_7_27\sr5e1_l9388_freeosek\modules\platform\board\include\sr5e1\evbe7000p.h **** #define TIM1_CH3 gpio_iopack(GPIO_PORT_D, GPIO_PIN_4)
 644:d:\project\9388\e1\2023_7_27\sr5e1_l9388_freeosek\modules\platform\board\include\sr5e1\evbe7000p.h **** #define TIM1_CH3_CFG                             \
 645:d:\project\9388\e1\2023_7_27\sr5e1_l9388_freeosek\modules\platform\board\include\sr5e1\evbe7000p.h ****     (GPIO_MODE_MODER_ALTERNATE |                 \
 646:d:\project\9388\e1\2023_7_27\sr5e1_l9388_freeosek\modules\platform\board\include\sr5e1\evbe7000p.h ****      GPIO_MODE_OTYPER_PUSHPULL |                 \
 647:d:\project\9388\e1\2023_7_27\sr5e1_l9388_freeosek\modules\platform\board\include\sr5e1\evbe7000p.h ****      GPIO_MODE_OSPEEDR_LOW |                     \
 648:d:\project\9388\e1\2023_7_27\sr5e1_l9388_freeosek\modules\platform\board\include\sr5e1\evbe7000p.h ****      GPIO_MODE_PUPDR_FLOATING |                  \
 649:d:\project\9388\e1\2023_7_27\sr5e1_l9388_freeosek\modules\platform\board\include\sr5e1\evbe7000p.h ****      GPIO_MODE_AFR(4U) |                         \
 650:d:\project\9388\e1\2023_7_27\sr5e1_l9388_freeosek\modules\platform\board\include\sr5e1\evbe7000p.h ****      GPIO_MODE_IHYSTR_CMOS |                     \
 651:d:\project\9388\e1\2023_7_27\sr5e1_l9388_freeosek\modules\platform\board\include\sr5e1\evbe7000p.h ****      GPIO_MODE_TRIGENR_IN_ENABLED |              \
 652:d:\project\9388\e1\2023_7_27\sr5e1_l9388_freeosek\modules\platform\board\include\sr5e1\evbe7000p.h ****      GPIO_MODE_SAFESELR_DISABLED |               \
 653:d:\project\9388\e1\2023_7_27\sr5e1_l9388_freeosek\modules\platform\board\include\sr5e1\evbe7000p.h ****      GPIO_MODE_SAFEVALR_LOW)
 654:d:\project\9388\e1\2023_7_27\sr5e1_l9388_freeosek\modules\platform\board\include\sr5e1\evbe7000p.h **** 
 655:d:\project\9388\e1\2023_7_27\sr5e1_l9388_freeosek\modules\platform\board\include\sr5e1\evbe7000p.h **** #define TIM1_CH4N gpio_iopack(GPIO_PORT_D, GPIO_PIN_5)
 656:d:\project\9388\e1\2023_7_27\sr5e1_l9388_freeosek\modules\platform\board\include\sr5e1\evbe7000p.h **** #define TIM1_CH4N_CFG                            \
 657:d:\project\9388\e1\2023_7_27\sr5e1_l9388_freeosek\modules\platform\board\include\sr5e1\evbe7000p.h ****     (GPIO_MODE_MODER_ALTERNATE |                 \
 658:d:\project\9388\e1\2023_7_27\sr5e1_l9388_freeosek\modules\platform\board\include\sr5e1\evbe7000p.h ****      GPIO_MODE_OTYPER_PUSHPULL |                 \
 659:d:\project\9388\e1\2023_7_27\sr5e1_l9388_freeosek\modules\platform\board\include\sr5e1\evbe7000p.h ****      GPIO_MODE_OSPEEDR_LOW |                     \
 660:d:\project\9388\e1\2023_7_27\sr5e1_l9388_freeosek\modules\platform\board\include\sr5e1\evbe7000p.h ****      GPIO_MODE_PUPDR_FLOATING |                  \
 661:d:\project\9388\e1\2023_7_27\sr5e1_l9388_freeosek\modules\platform\board\include\sr5e1\evbe7000p.h ****      GPIO_MODE_AFR(4U) |                         \
 662:d:\project\9388\e1\2023_7_27\sr5e1_l9388_freeosek\modules\platform\board\include\sr5e1\evbe7000p.h ****      GPIO_MODE_IHYSTR_CMOS |                     \
 663:d:\project\9388\e1\2023_7_27\sr5e1_l9388_freeosek\modules\platform\board\include\sr5e1\evbe7000p.h ****      GPIO_MODE_TRIGENR_IN_DISABLED |             \
 664:d:\project\9388\e1\2023_7_27\sr5e1_l9388_freeosek\modules\platform\board\include\sr5e1\evbe7000p.h ****      GPIO_MODE_SAFESELR_DISABLED |               \
 665:d:\project\9388\e1\2023_7_27\sr5e1_l9388_freeosek\modules\platform\board\include\sr5e1\evbe7000p.h ****      GPIO_MODE_SAFEVALR_LOW)
 666:d:\project\9388\e1\2023_7_27\sr5e1_l9388_freeosek\modules\platform\board\include\sr5e1\evbe7000p.h **** 
 667:d:\project\9388\e1\2023_7_27\sr5e1_l9388_freeosek\modules\platform\board\include\sr5e1\evbe7000p.h **** #define TIM1_CH4 gpio_iopack(GPIO_PORT_D, GPIO_PIN_6)
 668:d:\project\9388\e1\2023_7_27\sr5e1_l9388_freeosek\modules\platform\board\include\sr5e1\evbe7000p.h **** #define TIM1_CH4_CFG                             \
 669:d:\project\9388\e1\2023_7_27\sr5e1_l9388_freeosek\modules\platform\board\include\sr5e1\evbe7000p.h ****     (GPIO_MODE_MODER_ALTERNATE |                 \
 670:d:\project\9388\e1\2023_7_27\sr5e1_l9388_freeosek\modules\platform\board\include\sr5e1\evbe7000p.h ****      GPIO_MODE_OTYPER_PUSHPULL |                 \
 671:d:\project\9388\e1\2023_7_27\sr5e1_l9388_freeosek\modules\platform\board\include\sr5e1\evbe7000p.h ****      GPIO_MODE_OSPEEDR_LOW |                     \
 672:d:\project\9388\e1\2023_7_27\sr5e1_l9388_freeosek\modules\platform\board\include\sr5e1\evbe7000p.h ****      GPIO_MODE_PUPDR_FLOATING |                  \
 673:d:\project\9388\e1\2023_7_27\sr5e1_l9388_freeosek\modules\platform\board\include\sr5e1\evbe7000p.h ****      GPIO_MODE_AFR(4U) |                         \
 674:d:\project\9388\e1\2023_7_27\sr5e1_l9388_freeosek\modules\platform\board\include\sr5e1\evbe7000p.h ****      GPIO_MODE_IHYSTR_CMOS |                     \
 675:d:\project\9388\e1\2023_7_27\sr5e1_l9388_freeosek\modules\platform\board\include\sr5e1\evbe7000p.h ****      GPIO_MODE_TRIGENR_IN_ENABLED |              \
 676:d:\project\9388\e1\2023_7_27\sr5e1_l9388_freeosek\modules\platform\board\include\sr5e1\evbe7000p.h ****      GPIO_MODE_SAFESELR_DISABLED |               \
 677:d:\project\9388\e1\2023_7_27\sr5e1_l9388_freeosek\modules\platform\board\include\sr5e1\evbe7000p.h ****      GPIO_MODE_SAFEVALR_LOW)
 678:d:\project\9388\e1\2023_7_27\sr5e1_l9388_freeosek\modules\platform\board\include\sr5e1\evbe7000p.h **** 
 679:d:\project\9388\e1\2023_7_27\sr5e1_l9388_freeosek\modules\platform\board\include\sr5e1\evbe7000p.h **** #define HRTIM1_CHF2 gpio_iopack(GPIO_PORT_D, GPIO_PIN_7)
 680:d:\project\9388\e1\2023_7_27\sr5e1_l9388_freeosek\modules\platform\board\include\sr5e1\evbe7000p.h **** #define HRTIM1_CHF2_CFG                          \
 681:d:\project\9388\e1\2023_7_27\sr5e1_l9388_freeosek\modules\platform\board\include\sr5e1\evbe7000p.h ****     (GPIO_MODE_MODER_ALTERNATE |                 \
 682:d:\project\9388\e1\2023_7_27\sr5e1_l9388_freeosek\modules\platform\board\include\sr5e1\evbe7000p.h ****      GPIO_MODE_OTYPER_PUSHPULL |                 \
 683:d:\project\9388\e1\2023_7_27\sr5e1_l9388_freeosek\modules\platform\board\include\sr5e1\evbe7000p.h ****      GPIO_MODE_OSPEEDR_LOW |                     \
 684:d:\project\9388\e1\2023_7_27\sr5e1_l9388_freeosek\modules\platform\board\include\sr5e1\evbe7000p.h ****      GPIO_MODE_PUPDR_FLOATING |                  \
 685:d:\project\9388\e1\2023_7_27\sr5e1_l9388_freeosek\modules\platform\board\include\sr5e1\evbe7000p.h ****      GPIO_MODE_AFR(3U) |                         \
 686:d:\project\9388\e1\2023_7_27\sr5e1_l9388_freeosek\modules\platform\board\include\sr5e1\evbe7000p.h ****      GPIO_MODE_IHYSTR_CMOS |                     \
 687:d:\project\9388\e1\2023_7_27\sr5e1_l9388_freeosek\modules\platform\board\include\sr5e1\evbe7000p.h ****      GPIO_MODE_TRIGENR_IN_DISABLED |             \
 688:d:\project\9388\e1\2023_7_27\sr5e1_l9388_freeosek\modules\platform\board\include\sr5e1\evbe7000p.h ****      GPIO_MODE_SAFESELR_DISABLED |               \
 689:d:\project\9388\e1\2023_7_27\sr5e1_l9388_freeosek\modules\platform\board\include\sr5e1\evbe7000p.h ****      GPIO_MODE_SAFEVALR_LOW)
 690:d:\project\9388\e1\2023_7_27\sr5e1_l9388_freeosek\modules\platform\board\include\sr5e1\evbe7000p.h **** 
 691:d:\project\9388\e1\2023_7_27\sr5e1_l9388_freeosek\modules\platform\board\include\sr5e1\evbe7000p.h **** #define HRTIM1_CHF1 gpio_iopack(GPIO_PORT_D, GPIO_PIN_8)
 692:d:\project\9388\e1\2023_7_27\sr5e1_l9388_freeosek\modules\platform\board\include\sr5e1\evbe7000p.h **** #define HRTIM1_CHF1_CFG                          \
 693:d:\project\9388\e1\2023_7_27\sr5e1_l9388_freeosek\modules\platform\board\include\sr5e1\evbe7000p.h ****     (GPIO_MODE_MODER_ALTERNATE |                 \
 694:d:\project\9388\e1\2023_7_27\sr5e1_l9388_freeosek\modules\platform\board\include\sr5e1\evbe7000p.h ****      GPIO_MODE_OTYPER_PUSHPULL |                 \
 695:d:\project\9388\e1\2023_7_27\sr5e1_l9388_freeosek\modules\platform\board\include\sr5e1\evbe7000p.h ****      GPIO_MODE_OSPEEDR_LOW |                     \
 696:d:\project\9388\e1\2023_7_27\sr5e1_l9388_freeosek\modules\platform\board\include\sr5e1\evbe7000p.h ****      GPIO_MODE_PUPDR_FLOATING |                  \
 697:d:\project\9388\e1\2023_7_27\sr5e1_l9388_freeosek\modules\platform\board\include\sr5e1\evbe7000p.h ****      GPIO_MODE_AFR(3U) |                         \
 698:d:\project\9388\e1\2023_7_27\sr5e1_l9388_freeosek\modules\platform\board\include\sr5e1\evbe7000p.h ****      GPIO_MODE_IHYSTR_CMOS |                     \
 699:d:\project\9388\e1\2023_7_27\sr5e1_l9388_freeosek\modules\platform\board\include\sr5e1\evbe7000p.h ****      GPIO_MODE_TRIGENR_IN_DISABLED |             \
 700:d:\project\9388\e1\2023_7_27\sr5e1_l9388_freeosek\modules\platform\board\include\sr5e1\evbe7000p.h ****      GPIO_MODE_SAFESELR_DISABLED |               \
 701:d:\project\9388\e1\2023_7_27\sr5e1_l9388_freeosek\modules\platform\board\include\sr5e1\evbe7000p.h ****      GPIO_MODE_SAFEVALR_LOW)
 702:d:\project\9388\e1\2023_7_27\sr5e1_l9388_freeosek\modules\platform\board\include\sr5e1\evbe7000p.h **** 
 703:d:\project\9388\e1\2023_7_27\sr5e1_l9388_freeosek\modules\platform\board\include\sr5e1\evbe7000p.h **** #define HRTIM1_EEV2 gpio_iopack(GPIO_PORT_D, GPIO_PIN_9)
 704:d:\project\9388\e1\2023_7_27\sr5e1_l9388_freeosek\modules\platform\board\include\sr5e1\evbe7000p.h **** #define HRTIM1_EEV2_CFG                          \
 705:d:\project\9388\e1\2023_7_27\sr5e1_l9388_freeosek\modules\platform\board\include\sr5e1\evbe7000p.h ****     (GPIO_MODE_MODER_ALTERNATE |                 \
 706:d:\project\9388\e1\2023_7_27\sr5e1_l9388_freeosek\modules\platform\board\include\sr5e1\evbe7000p.h ****      GPIO_MODE_OTYPER_PUSHPULL |                 \
 707:d:\project\9388\e1\2023_7_27\sr5e1_l9388_freeosek\modules\platform\board\include\sr5e1\evbe7000p.h ****      GPIO_MODE_OSPEEDR_LOW |                     \
 708:d:\project\9388\e1\2023_7_27\sr5e1_l9388_freeosek\modules\platform\board\include\sr5e1\evbe7000p.h ****      GPIO_MODE_PUPDR_FLOATING |                  \
 709:d:\project\9388\e1\2023_7_27\sr5e1_l9388_freeosek\modules\platform\board\include\sr5e1\evbe7000p.h ****      GPIO_MODE_AFR(3U) |                         \
 710:d:\project\9388\e1\2023_7_27\sr5e1_l9388_freeosek\modules\platform\board\include\sr5e1\evbe7000p.h ****      GPIO_MODE_IHYSTR_CMOS |                     \
 711:d:\project\9388\e1\2023_7_27\sr5e1_l9388_freeosek\modules\platform\board\include\sr5e1\evbe7000p.h ****      GPIO_MODE_TRIGENR_IN_ENABLED |              \
 712:d:\project\9388\e1\2023_7_27\sr5e1_l9388_freeosek\modules\platform\board\include\sr5e1\evbe7000p.h ****      GPIO_MODE_SAFESELR_DISABLED |               \
 713:d:\project\9388\e1\2023_7_27\sr5e1_l9388_freeosek\modules\platform\board\include\sr5e1\evbe7000p.h ****      GPIO_MODE_SAFEVALR_LOW)
 714:d:\project\9388\e1\2023_7_27\sr5e1_l9388_freeosek\modules\platform\board\include\sr5e1\evbe7000p.h **** 
 715:d:\project\9388\e1\2023_7_27\sr5e1_l9388_freeosek\modules\platform\board\include\sr5e1\evbe7000p.h **** #define HRTIM1_CHE2 gpio_iopack(GPIO_PORT_D, GPIO_PIN_10)
 716:d:\project\9388\e1\2023_7_27\sr5e1_l9388_freeosek\modules\platform\board\include\sr5e1\evbe7000p.h **** #define HRTIM1_CHE2_CFG                          \
 717:d:\project\9388\e1\2023_7_27\sr5e1_l9388_freeosek\modules\platform\board\include\sr5e1\evbe7000p.h ****     (GPIO_MODE_MODER_ALTERNATE |                 \
 718:d:\project\9388\e1\2023_7_27\sr5e1_l9388_freeosek\modules\platform\board\include\sr5e1\evbe7000p.h ****      GPIO_MODE_OTYPER_PUSHPULL |                 \
 719:d:\project\9388\e1\2023_7_27\sr5e1_l9388_freeosek\modules\platform\board\include\sr5e1\evbe7000p.h ****      GPIO_MODE_OSPEEDR_LOW |                     \
 720:d:\project\9388\e1\2023_7_27\sr5e1_l9388_freeosek\modules\platform\board\include\sr5e1\evbe7000p.h ****      GPIO_MODE_PUPDR_FLOATING |                  \
 721:d:\project\9388\e1\2023_7_27\sr5e1_l9388_freeosek\modules\platform\board\include\sr5e1\evbe7000p.h ****      GPIO_MODE_AFR(3U) |                         \
 722:d:\project\9388\e1\2023_7_27\sr5e1_l9388_freeosek\modules\platform\board\include\sr5e1\evbe7000p.h ****      GPIO_MODE_IHYSTR_CMOS |                     \
 723:d:\project\9388\e1\2023_7_27\sr5e1_l9388_freeosek\modules\platform\board\include\sr5e1\evbe7000p.h ****      GPIO_MODE_TRIGENR_IN_DISABLED |             \
 724:d:\project\9388\e1\2023_7_27\sr5e1_l9388_freeosek\modules\platform\board\include\sr5e1\evbe7000p.h ****      GPIO_MODE_SAFESELR_DISABLED |               \
 725:d:\project\9388\e1\2023_7_27\sr5e1_l9388_freeosek\modules\platform\board\include\sr5e1\evbe7000p.h ****      GPIO_MODE_SAFEVALR_LOW)
 726:d:\project\9388\e1\2023_7_27\sr5e1_l9388_freeosek\modules\platform\board\include\sr5e1\evbe7000p.h **** 
 727:d:\project\9388\e1\2023_7_27\sr5e1_l9388_freeosek\modules\platform\board\include\sr5e1\evbe7000p.h **** #define HRTIM1_CHE1 gpio_iopack(GPIO_PORT_D, GPIO_PIN_11)
 728:d:\project\9388\e1\2023_7_27\sr5e1_l9388_freeosek\modules\platform\board\include\sr5e1\evbe7000p.h **** #define HRTIM1_CHE1_CFG                          \
 729:d:\project\9388\e1\2023_7_27\sr5e1_l9388_freeosek\modules\platform\board\include\sr5e1\evbe7000p.h ****     (GPIO_MODE_MODER_ALTERNATE |                 \
 730:d:\project\9388\e1\2023_7_27\sr5e1_l9388_freeosek\modules\platform\board\include\sr5e1\evbe7000p.h ****      GPIO_MODE_OTYPER_PUSHPULL |                 \
 731:d:\project\9388\e1\2023_7_27\sr5e1_l9388_freeosek\modules\platform\board\include\sr5e1\evbe7000p.h ****      GPIO_MODE_OSPEEDR_LOW |                     \
 732:d:\project\9388\e1\2023_7_27\sr5e1_l9388_freeosek\modules\platform\board\include\sr5e1\evbe7000p.h ****      GPIO_MODE_PUPDR_FLOATING |                  \
 733:d:\project\9388\e1\2023_7_27\sr5e1_l9388_freeosek\modules\platform\board\include\sr5e1\evbe7000p.h ****      GPIO_MODE_AFR(3U) |                         \
 734:d:\project\9388\e1\2023_7_27\sr5e1_l9388_freeosek\modules\platform\board\include\sr5e1\evbe7000p.h ****      GPIO_MODE_IHYSTR_CMOS |                     \
 735:d:\project\9388\e1\2023_7_27\sr5e1_l9388_freeosek\modules\platform\board\include\sr5e1\evbe7000p.h ****      GPIO_MODE_TRIGENR_IN_DISABLED |             \
 736:d:\project\9388\e1\2023_7_27\sr5e1_l9388_freeosek\modules\platform\board\include\sr5e1\evbe7000p.h ****      GPIO_MODE_SAFESELR_DISABLED |               \
 737:d:\project\9388\e1\2023_7_27\sr5e1_l9388_freeosek\modules\platform\board\include\sr5e1\evbe7000p.h ****      GPIO_MODE_SAFEVALR_LOW)
 738:d:\project\9388\e1\2023_7_27\sr5e1_l9388_freeosek\modules\platform\board\include\sr5e1\evbe7000p.h **** 
 739:d:\project\9388\e1\2023_7_27\sr5e1_l9388_freeosek\modules\platform\board\include\sr5e1\evbe7000p.h **** #define HRTIM1_CHD2 gpio_iopack(GPIO_PORT_D, GPIO_PIN_12)
 740:d:\project\9388\e1\2023_7_27\sr5e1_l9388_freeosek\modules\platform\board\include\sr5e1\evbe7000p.h **** #define HRTIM1_CHD2_CFG                          \
 741:d:\project\9388\e1\2023_7_27\sr5e1_l9388_freeosek\modules\platform\board\include\sr5e1\evbe7000p.h ****     (GPIO_MODE_MODER_ALTERNATE |                 \
 742:d:\project\9388\e1\2023_7_27\sr5e1_l9388_freeosek\modules\platform\board\include\sr5e1\evbe7000p.h ****      GPIO_MODE_OTYPER_PUSHPULL |                 \
 743:d:\project\9388\e1\2023_7_27\sr5e1_l9388_freeosek\modules\platform\board\include\sr5e1\evbe7000p.h ****      GPIO_MODE_OSPEEDR_LOW |                     \
 744:d:\project\9388\e1\2023_7_27\sr5e1_l9388_freeosek\modules\platform\board\include\sr5e1\evbe7000p.h ****      GPIO_MODE_PUPDR_FLOATING |                  \
 745:d:\project\9388\e1\2023_7_27\sr5e1_l9388_freeosek\modules\platform\board\include\sr5e1\evbe7000p.h ****      GPIO_MODE_AFR(3U) |                         \
 746:d:\project\9388\e1\2023_7_27\sr5e1_l9388_freeosek\modules\platform\board\include\sr5e1\evbe7000p.h ****      GPIO_MODE_IHYSTR_CMOS |                     \
 747:d:\project\9388\e1\2023_7_27\sr5e1_l9388_freeosek\modules\platform\board\include\sr5e1\evbe7000p.h ****      GPIO_MODE_TRIGENR_IN_DISABLED |             \
 748:d:\project\9388\e1\2023_7_27\sr5e1_l9388_freeosek\modules\platform\board\include\sr5e1\evbe7000p.h ****      GPIO_MODE_SAFESELR_DISABLED |               \
 749:d:\project\9388\e1\2023_7_27\sr5e1_l9388_freeosek\modules\platform\board\include\sr5e1\evbe7000p.h ****      GPIO_MODE_SAFEVALR_LOW)
 750:d:\project\9388\e1\2023_7_27\sr5e1_l9388_freeosek\modules\platform\board\include\sr5e1\evbe7000p.h **** 
 751:d:\project\9388\e1\2023_7_27\sr5e1_l9388_freeosek\modules\platform\board\include\sr5e1\evbe7000p.h **** #define HRTIM1_CHD1 gpio_iopack(GPIO_PORT_D, GPIO_PIN_13)
 752:d:\project\9388\e1\2023_7_27\sr5e1_l9388_freeosek\modules\platform\board\include\sr5e1\evbe7000p.h **** #define HRTIM1_CHD1_CFG                          \
 753:d:\project\9388\e1\2023_7_27\sr5e1_l9388_freeosek\modules\platform\board\include\sr5e1\evbe7000p.h ****     (GPIO_MODE_MODER_ALTERNATE |                 \
 754:d:\project\9388\e1\2023_7_27\sr5e1_l9388_freeosek\modules\platform\board\include\sr5e1\evbe7000p.h ****      GPIO_MODE_OTYPER_PUSHPULL |                 \
 755:d:\project\9388\e1\2023_7_27\sr5e1_l9388_freeosek\modules\platform\board\include\sr5e1\evbe7000p.h ****      GPIO_MODE_OSPEEDR_LOW |                     \
 756:d:\project\9388\e1\2023_7_27\sr5e1_l9388_freeosek\modules\platform\board\include\sr5e1\evbe7000p.h ****      GPIO_MODE_PUPDR_FLOATING |                  \
 757:d:\project\9388\e1\2023_7_27\sr5e1_l9388_freeosek\modules\platform\board\include\sr5e1\evbe7000p.h ****      GPIO_MODE_AFR(3U) |                         \
 758:d:\project\9388\e1\2023_7_27\sr5e1_l9388_freeosek\modules\platform\board\include\sr5e1\evbe7000p.h ****      GPIO_MODE_IHYSTR_CMOS |                     \
 759:d:\project\9388\e1\2023_7_27\sr5e1_l9388_freeosek\modules\platform\board\include\sr5e1\evbe7000p.h ****      GPIO_MODE_TRIGENR_IN_DISABLED |             \
 760:d:\project\9388\e1\2023_7_27\sr5e1_l9388_freeosek\modules\platform\board\include\sr5e1\evbe7000p.h ****      GPIO_MODE_SAFESELR_DISABLED |               \
 761:d:\project\9388\e1\2023_7_27\sr5e1_l9388_freeosek\modules\platform\board\include\sr5e1\evbe7000p.h ****      GPIO_MODE_SAFEVALR_LOW)
 762:d:\project\9388\e1\2023_7_27\sr5e1_l9388_freeosek\modules\platform\board\include\sr5e1\evbe7000p.h **** 
 763:d:\project\9388\e1\2023_7_27\sr5e1_l9388_freeosek\modules\platform\board\include\sr5e1\evbe7000p.h **** #define HRTIM1_CHC2 gpio_iopack(GPIO_PORT_D, GPIO_PIN_14)
 764:d:\project\9388\e1\2023_7_27\sr5e1_l9388_freeosek\modules\platform\board\include\sr5e1\evbe7000p.h **** #define HRTIM1_CHC2_CFG                          \
 765:d:\project\9388\e1\2023_7_27\sr5e1_l9388_freeosek\modules\platform\board\include\sr5e1\evbe7000p.h ****     (GPIO_MODE_MODER_ALTERNATE |                 \
 766:d:\project\9388\e1\2023_7_27\sr5e1_l9388_freeosek\modules\platform\board\include\sr5e1\evbe7000p.h ****      GPIO_MODE_OTYPER_PUSHPULL |                 \
 767:d:\project\9388\e1\2023_7_27\sr5e1_l9388_freeosek\modules\platform\board\include\sr5e1\evbe7000p.h ****      GPIO_MODE_OSPEEDR_LOW |                     \
 768:d:\project\9388\e1\2023_7_27\sr5e1_l9388_freeosek\modules\platform\board\include\sr5e1\evbe7000p.h ****      GPIO_MODE_PUPDR_FLOATING |                  \
 769:d:\project\9388\e1\2023_7_27\sr5e1_l9388_freeosek\modules\platform\board\include\sr5e1\evbe7000p.h ****      GPIO_MODE_AFR(3U) |                         \
 770:d:\project\9388\e1\2023_7_27\sr5e1_l9388_freeosek\modules\platform\board\include\sr5e1\evbe7000p.h ****      GPIO_MODE_IHYSTR_CMOS |                     \
 771:d:\project\9388\e1\2023_7_27\sr5e1_l9388_freeosek\modules\platform\board\include\sr5e1\evbe7000p.h ****      GPIO_MODE_TRIGENR_IN_DISABLED |             \
