   1              		.cpu cortex-m7
   2              		.arch armv7e-m
   3              		.fpu fpv5-d16
   4              		.eabi_attribute 28, 1
   5              		.eabi_attribute 20, 1
   6              		.eabi_attribute 21, 1
   7              		.eabi_attribute 23, 3
   8              		.eabi_attribute 24, 1
   9              		.eabi_attribute 25, 1
  10              		.eabi_attribute 26, 1
  11              		.eabi_attribute 30, 6
  12              		.eabi_attribute 34, 1
  13              		.eabi_attribute 18, 4
  14              		.file	"test_env.c"
  15              		.text
  16              	.Ltext0:
  17              		.cfi_sections	.debug_frame
  18              		.section	.text.gpio_set_pin_moder,"ax",%progbits
  19              		.align	1
  20              		.p2align 4,,15
  21              		.syntax unified
  22              		.thumb
  23              		.thumb_func
  25              	gpio_set_pin_moder:
  26              	.LFB396:
  27              		.file 1 "d:\\project\\9388\\e1\\2023_7_27\\sr5e1_l9388_freeosek\\modules\\drivers\\system\\gpio\\i
   1:d:\project\9388\e1\2023_7_27\sr5e1_l9388_freeosek\modules\drivers\system\gpio\include\gpio.h **** /****************************************************************************
   2:d:\project\9388\e1\2023_7_27\sr5e1_l9388_freeosek\modules\drivers\system\gpio\include\gpio.h ****  *
   3:d:\project\9388\e1\2023_7_27\sr5e1_l9388_freeosek\modules\drivers\system\gpio\include\gpio.h ****  * Copyright (c) 2022 STMicroelectronics - All Rights Reserved
   4:d:\project\9388\e1\2023_7_27\sr5e1_l9388_freeosek\modules\drivers\system\gpio\include\gpio.h ****  *
   5:d:\project\9388\e1\2023_7_27\sr5e1_l9388_freeosek\modules\drivers\system\gpio\include\gpio.h ****  * License terms: STMicroelectronics Proprietary in accordance with licensing
   6:d:\project\9388\e1\2023_7_27\sr5e1_l9388_freeosek\modules\drivers\system\gpio\include\gpio.h ****  * terms SLA0098 at www.st.com.
   7:d:\project\9388\e1\2023_7_27\sr5e1_l9388_freeosek\modules\drivers\system\gpio\include\gpio.h ****  *
   8:d:\project\9388\e1\2023_7_27\sr5e1_l9388_freeosek\modules\drivers\system\gpio\include\gpio.h ****  * THIS SOFTWARE IS DISTRIBUTED "AS IS," AND ALL WARRANTIES ARE DISCLAIMED,
   9:d:\project\9388\e1\2023_7_27\sr5e1_l9388_freeosek\modules\drivers\system\gpio\include\gpio.h ****  * INCLUDING MERCHANTABILITY AND FITNESS FOR A PARTICULAR PURPOSE.
  10:d:\project\9388\e1\2023_7_27\sr5e1_l9388_freeosek\modules\drivers\system\gpio\include\gpio.h ****  *
  11:d:\project\9388\e1\2023_7_27\sr5e1_l9388_freeosek\modules\drivers\system\gpio\include\gpio.h ****  *****************************************************************************/
  12:d:\project\9388\e1\2023_7_27\sr5e1_l9388_freeosek\modules\drivers\system\gpio\include\gpio.h **** /**
  13:d:\project\9388\e1\2023_7_27\sr5e1_l9388_freeosek\modules\drivers\system\gpio\include\gpio.h ****  * @file    gpio.h
  14:d:\project\9388\e1\2023_7_27\sr5e1_l9388_freeosek\modules\drivers\system\gpio\include\gpio.h ****  * @brief   GPIO driver header file.
  15:d:\project\9388\e1\2023_7_27\sr5e1_l9388_freeosek\modules\drivers\system\gpio\include\gpio.h ****  *
  16:d:\project\9388\e1\2023_7_27\sr5e1_l9388_freeosek\modules\drivers\system\gpio\include\gpio.h ****  * @addtogroup DRIVERS
  17:d:\project\9388\e1\2023_7_27\sr5e1_l9388_freeosek\modules\drivers\system\gpio\include\gpio.h ****  * @addtogroup SYSTEM
  18:d:\project\9388\e1\2023_7_27\sr5e1_l9388_freeosek\modules\drivers\system\gpio\include\gpio.h ****  * @ingroup DRIVERS
  19:d:\project\9388\e1\2023_7_27\sr5e1_l9388_freeosek\modules\drivers\system\gpio\include\gpio.h ****  * @addtogroup GPIO
  20:d:\project\9388\e1\2023_7_27\sr5e1_l9388_freeosek\modules\drivers\system\gpio\include\gpio.h ****  * @ingroup SYSTEM
  21:d:\project\9388\e1\2023_7_27\sr5e1_l9388_freeosek\modules\drivers\system\gpio\include\gpio.h ****  * @{
  22:d:\project\9388\e1\2023_7_27\sr5e1_l9388_freeosek\modules\drivers\system\gpio\include\gpio.h ****  */
  23:d:\project\9388\e1\2023_7_27\sr5e1_l9388_freeosek\modules\drivers\system\gpio\include\gpio.h **** 
  24:d:\project\9388\e1\2023_7_27\sr5e1_l9388_freeosek\modules\drivers\system\gpio\include\gpio.h **** #ifndef _GPIO_H_
  25:d:\project\9388\e1\2023_7_27\sr5e1_l9388_freeosek\modules\drivers\system\gpio\include\gpio.h **** #define _GPIO_H_
  26:d:\project\9388\e1\2023_7_27\sr5e1_l9388_freeosek\modules\drivers\system\gpio\include\gpio.h **** 
  27:d:\project\9388\e1\2023_7_27\sr5e1_l9388_freeosek\modules\drivers\system\gpio\include\gpio.h **** #include <platform.h>
  28:d:\project\9388\e1\2023_7_27\sr5e1_l9388_freeosek\modules\drivers\system\gpio\include\gpio.h **** #include <typedefs.h>
  29:d:\project\9388\e1\2023_7_27\sr5e1_l9388_freeosek\modules\drivers\system\gpio\include\gpio.h **** 
  30:d:\project\9388\e1\2023_7_27\sr5e1_l9388_freeosek\modules\drivers\system\gpio\include\gpio.h **** /*===========================================================================*/
  31:d:\project\9388\e1\2023_7_27\sr5e1_l9388_freeosek\modules\drivers\system\gpio\include\gpio.h **** /* Module constants.                                                         */
  32:d:\project\9388\e1\2023_7_27\sr5e1_l9388_freeosek\modules\drivers\system\gpio\include\gpio.h **** /*===========================================================================*/
  33:d:\project\9388\e1\2023_7_27\sr5e1_l9388_freeosek\modules\drivers\system\gpio\include\gpio.h **** 
  34:d:\project\9388\e1\2023_7_27\sr5e1_l9388_freeosek\modules\drivers\system\gpio\include\gpio.h **** /**
  35:d:\project\9388\e1\2023_7_27\sr5e1_l9388_freeosek\modules\drivers\system\gpio\include\gpio.h ****  * @name    GPIO Port identifiers
  36:d:\project\9388\e1\2023_7_27\sr5e1_l9388_freeosek\modules\drivers\system\gpio\include\gpio.h ****  * @{
  37:d:\project\9388\e1\2023_7_27\sr5e1_l9388_freeosek\modules\drivers\system\gpio\include\gpio.h ****  */
  38:d:\project\9388\e1\2023_7_27\sr5e1_l9388_freeosek\modules\drivers\system\gpio\include\gpio.h **** #define GPIO_PORT_A                    0U   /**< GPIO Port A */
  39:d:\project\9388\e1\2023_7_27\sr5e1_l9388_freeosek\modules\drivers\system\gpio\include\gpio.h **** #define GPIO_PORT_B                    1U   /**< GPIO Port B */
  40:d:\project\9388\e1\2023_7_27\sr5e1_l9388_freeosek\modules\drivers\system\gpio\include\gpio.h **** #define GPIO_PORT_C                    2U   /**< GPIO Port C */
  41:d:\project\9388\e1\2023_7_27\sr5e1_l9388_freeosek\modules\drivers\system\gpio\include\gpio.h **** #define GPIO_PORT_D                    3U   /**< GPIO Port D */
  42:d:\project\9388\e1\2023_7_27\sr5e1_l9388_freeosek\modules\drivers\system\gpio\include\gpio.h **** #define GPIO_PORT_E                    4U   /**< GPIO Port E */
  43:d:\project\9388\e1\2023_7_27\sr5e1_l9388_freeosek\modules\drivers\system\gpio\include\gpio.h **** #define GPIO_PORT_F                    5U   /**< GPIO Port F */
  44:d:\project\9388\e1\2023_7_27\sr5e1_l9388_freeosek\modules\drivers\system\gpio\include\gpio.h **** #define GPIO_PORT_G                    6U   /**< GPIO Port G */
  45:d:\project\9388\e1\2023_7_27\sr5e1_l9388_freeosek\modules\drivers\system\gpio\include\gpio.h **** #define GPIO_PORT_H                    7U   /**< GPIO Port G */
  46:d:\project\9388\e1\2023_7_27\sr5e1_l9388_freeosek\modules\drivers\system\gpio\include\gpio.h **** #define GPIO_PORT_I                    8U   /**< GPIO Port I */
  47:d:\project\9388\e1\2023_7_27\sr5e1_l9388_freeosek\modules\drivers\system\gpio\include\gpio.h **** #define GPIO_PORT_J                    9U   /**< GPIO Port J */
  48:d:\project\9388\e1\2023_7_27\sr5e1_l9388_freeosek\modules\drivers\system\gpio\include\gpio.h **** #define GPIO_PORT_K                    10U  /**< GPIO Port K */
  49:d:\project\9388\e1\2023_7_27\sr5e1_l9388_freeosek\modules\drivers\system\gpio\include\gpio.h **** #define GPIO_PORT_L                    11U  /**< GPIO Port L */
  50:d:\project\9388\e1\2023_7_27\sr5e1_l9388_freeosek\modules\drivers\system\gpio\include\gpio.h **** #define GPIO_PORT_M                    12U  /**< GPIO Port M */
  51:d:\project\9388\e1\2023_7_27\sr5e1_l9388_freeosek\modules\drivers\system\gpio\include\gpio.h **** #define GPIO_PORT_N                    13U  /**< GPIO Port N */
  52:d:\project\9388\e1\2023_7_27\sr5e1_l9388_freeosek\modules\drivers\system\gpio\include\gpio.h **** #define GPIO_PORT_Q                    14U  /**< GPIO Port Q */
  53:d:\project\9388\e1\2023_7_27\sr5e1_l9388_freeosek\modules\drivers\system\gpio\include\gpio.h **** #define GPIO_PORT_R                    15U  /**< GPIO Port R */
  54:d:\project\9388\e1\2023_7_27\sr5e1_l9388_freeosek\modules\drivers\system\gpio\include\gpio.h **** #define GPIO_PORT_S                    16U  /**< GPIO Port S */
  55:d:\project\9388\e1\2023_7_27\sr5e1_l9388_freeosek\modules\drivers\system\gpio\include\gpio.h **** #define GPIO_PORT_T                    17U  /**< GPIO Port T */
  56:d:\project\9388\e1\2023_7_27\sr5e1_l9388_freeosek\modules\drivers\system\gpio\include\gpio.h **** #define GPIO_PORT_V                    18U  /**< GPIO Port V */
  57:d:\project\9388\e1\2023_7_27\sr5e1_l9388_freeosek\modules\drivers\system\gpio\include\gpio.h **** #define GPIO_PORT_W                    19U  /**< GPIO Port W */
  58:d:\project\9388\e1\2023_7_27\sr5e1_l9388_freeosek\modules\drivers\system\gpio\include\gpio.h **** #define GPIO_PORT_X                    20U  /**< GPIO Port X */
  59:d:\project\9388\e1\2023_7_27\sr5e1_l9388_freeosek\modules\drivers\system\gpio\include\gpio.h **** #define GPIO_PORT_Y                    21U  /**< GPIO Port Y */
  60:d:\project\9388\e1\2023_7_27\sr5e1_l9388_freeosek\modules\drivers\system\gpio\include\gpio.h **** /** @} */
  61:d:\project\9388\e1\2023_7_27\sr5e1_l9388_freeosek\modules\drivers\system\gpio\include\gpio.h **** 
  62:d:\project\9388\e1\2023_7_27\sr5e1_l9388_freeosek\modules\drivers\system\gpio\include\gpio.h **** /**
  63:d:\project\9388\e1\2023_7_27\sr5e1_l9388_freeosek\modules\drivers\system\gpio\include\gpio.h ****  * @name    GPIO Pin identifiers
  64:d:\project\9388\e1\2023_7_27\sr5e1_l9388_freeosek\modules\drivers\system\gpio\include\gpio.h ****  * @{
  65:d:\project\9388\e1\2023_7_27\sr5e1_l9388_freeosek\modules\drivers\system\gpio\include\gpio.h ****  */
  66:d:\project\9388\e1\2023_7_27\sr5e1_l9388_freeosek\modules\drivers\system\gpio\include\gpio.h **** #define GPIO_PIN_0                     0U   /**< GPIO Pin 0  */
  67:d:\project\9388\e1\2023_7_27\sr5e1_l9388_freeosek\modules\drivers\system\gpio\include\gpio.h **** #define GPIO_PIN_1                     1U   /**< GPIO Pin 1  */
  68:d:\project\9388\e1\2023_7_27\sr5e1_l9388_freeosek\modules\drivers\system\gpio\include\gpio.h **** #define GPIO_PIN_2                     2U   /**< GPIO Pin 2  */
  69:d:\project\9388\e1\2023_7_27\sr5e1_l9388_freeosek\modules\drivers\system\gpio\include\gpio.h **** #define GPIO_PIN_3                     3U   /**< GPIO Pin 3  */
  70:d:\project\9388\e1\2023_7_27\sr5e1_l9388_freeosek\modules\drivers\system\gpio\include\gpio.h **** #define GPIO_PIN_4                     4U   /**< GPIO Pin 4  */
  71:d:\project\9388\e1\2023_7_27\sr5e1_l9388_freeosek\modules\drivers\system\gpio\include\gpio.h **** #define GPIO_PIN_5                     5U   /**< GPIO Pin 5  */
  72:d:\project\9388\e1\2023_7_27\sr5e1_l9388_freeosek\modules\drivers\system\gpio\include\gpio.h **** #define GPIO_PIN_6                     6U   /**< GPIO Pin 6  */
  73:d:\project\9388\e1\2023_7_27\sr5e1_l9388_freeosek\modules\drivers\system\gpio\include\gpio.h **** #define GPIO_PIN_7                     7U   /**< GPIO Pin 7  */
  74:d:\project\9388\e1\2023_7_27\sr5e1_l9388_freeosek\modules\drivers\system\gpio\include\gpio.h **** #define GPIO_PIN_8                     8U   /**< GPIO Pin 8  */
  75:d:\project\9388\e1\2023_7_27\sr5e1_l9388_freeosek\modules\drivers\system\gpio\include\gpio.h **** #define GPIO_PIN_9                     9U   /**< GPIO Pin 9  */
  76:d:\project\9388\e1\2023_7_27\sr5e1_l9388_freeosek\modules\drivers\system\gpio\include\gpio.h **** #define GPIO_PIN_10                    10U  /**< GPIO Pin 10 */
  77:d:\project\9388\e1\2023_7_27\sr5e1_l9388_freeosek\modules\drivers\system\gpio\include\gpio.h **** #define GPIO_PIN_11                    11U  /**< GPIO Pin 11 */
  78:d:\project\9388\e1\2023_7_27\sr5e1_l9388_freeosek\modules\drivers\system\gpio\include\gpio.h **** #define GPIO_PIN_12                    12U  /**< GPIO Pin 12 */
  79:d:\project\9388\e1\2023_7_27\sr5e1_l9388_freeosek\modules\drivers\system\gpio\include\gpio.h **** #define GPIO_PIN_13                    13U  /**< GPIO Pin 13 */
  80:d:\project\9388\e1\2023_7_27\sr5e1_l9388_freeosek\modules\drivers\system\gpio\include\gpio.h **** #define GPIO_PIN_14                    14U  /**< GPIO Pin 14 */
  81:d:\project\9388\e1\2023_7_27\sr5e1_l9388_freeosek\modules\drivers\system\gpio\include\gpio.h **** #define GPIO_PIN_15                    15U  /**< GPIO Pin 15 */
  82:d:\project\9388\e1\2023_7_27\sr5e1_l9388_freeosek\modules\drivers\system\gpio\include\gpio.h **** /** @} */
  83:d:\project\9388\e1\2023_7_27\sr5e1_l9388_freeosek\modules\drivers\system\gpio\include\gpio.h **** 
  84:d:\project\9388\e1\2023_7_27\sr5e1_l9388_freeosek\modules\drivers\system\gpio\include\gpio.h **** /**
  85:d:\project\9388\e1\2023_7_27\sr5e1_l9388_freeosek\modules\drivers\system\gpio\include\gpio.h ****  * @name    GPIO mode flags
  86:d:\project\9388\e1\2023_7_27\sr5e1_l9388_freeosek\modules\drivers\system\gpio\include\gpio.h ****  * @{
  87:d:\project\9388\e1\2023_7_27\sr5e1_l9388_freeosek\modules\drivers\system\gpio\include\gpio.h ****  */
  88:d:\project\9388\e1\2023_7_27\sr5e1_l9388_freeosek\modules\drivers\system\gpio\include\gpio.h **** #define GPIO_MODE_MODER_POS            (0U)
  89:d:\project\9388\e1\2023_7_27\sr5e1_l9388_freeosek\modules\drivers\system\gpio\include\gpio.h **** #define GPIO_MODE_MODER_MASK           (3UL << GPIO_MODE_MODER_POS)
  90:d:\project\9388\e1\2023_7_27\sr5e1_l9388_freeosek\modules\drivers\system\gpio\include\gpio.h **** #define GPIO_MODE_MODER_INPUT          (0UL << GPIO_MODE_MODER_POS)
  91:d:\project\9388\e1\2023_7_27\sr5e1_l9388_freeosek\modules\drivers\system\gpio\include\gpio.h **** #define GPIO_MODE_MODER_OUTPUT         (1UL << GPIO_MODE_MODER_POS)
  92:d:\project\9388\e1\2023_7_27\sr5e1_l9388_freeosek\modules\drivers\system\gpio\include\gpio.h **** #define GPIO_MODE_MODER_ALTERNATE      (2UL << GPIO_MODE_MODER_POS)
  93:d:\project\9388\e1\2023_7_27\sr5e1_l9388_freeosek\modules\drivers\system\gpio\include\gpio.h **** #define GPIO_MODE_MODER_ANALOG         (3UL << GPIO_MODE_MODER_POS)
  94:d:\project\9388\e1\2023_7_27\sr5e1_l9388_freeosek\modules\drivers\system\gpio\include\gpio.h **** 
  95:d:\project\9388\e1\2023_7_27\sr5e1_l9388_freeosek\modules\drivers\system\gpio\include\gpio.h **** #define GPIO_MODE_OTYPER_POS           (2U)
  96:d:\project\9388\e1\2023_7_27\sr5e1_l9388_freeosek\modules\drivers\system\gpio\include\gpio.h **** #define GPIO_MODE_OTYPER_MASK          (1UL << GPIO_MODE_OTYPER_POS)
  97:d:\project\9388\e1\2023_7_27\sr5e1_l9388_freeosek\modules\drivers\system\gpio\include\gpio.h **** #define GPIO_MODE_OTYPER_PUSHPULL      (0UL << GPIO_MODE_OTYPER_POS)
  98:d:\project\9388\e1\2023_7_27\sr5e1_l9388_freeosek\modules\drivers\system\gpio\include\gpio.h **** #define GPIO_MODE_OTYPER_OPENDRAIN     (1UL << GPIO_MODE_OTYPER_POS)
  99:d:\project\9388\e1\2023_7_27\sr5e1_l9388_freeosek\modules\drivers\system\gpio\include\gpio.h **** 
 100:d:\project\9388\e1\2023_7_27\sr5e1_l9388_freeosek\modules\drivers\system\gpio\include\gpio.h **** #define GPIO_MODE_OSPEEDR_POS          (3U)
 101:d:\project\9388\e1\2023_7_27\sr5e1_l9388_freeosek\modules\drivers\system\gpio\include\gpio.h **** #define GPIO_MODE_OSPEEDR_MASK         (3UL << GPIO_MODE_OSPEEDR_POS)
 102:d:\project\9388\e1\2023_7_27\sr5e1_l9388_freeosek\modules\drivers\system\gpio\include\gpio.h **** #define GPIO_MODE_OSPEEDR_LOW          (0UL << GPIO_MODE_OSPEEDR_POS)
 103:d:\project\9388\e1\2023_7_27\sr5e1_l9388_freeosek\modules\drivers\system\gpio\include\gpio.h **** #define GPIO_MODE_OSPEEDR_MEDIUM       (1UL << GPIO_MODE_OSPEEDR_POS)
 104:d:\project\9388\e1\2023_7_27\sr5e1_l9388_freeosek\modules\drivers\system\gpio\include\gpio.h **** #define GPIO_MODE_OSPEEDR_HIGH         (2UL << GPIO_MODE_OSPEEDR_POS)
 105:d:\project\9388\e1\2023_7_27\sr5e1_l9388_freeosek\modules\drivers\system\gpio\include\gpio.h **** #define GPIO_MODE_OSPEEDR_VERYHIGH     (3UL << GPIO_MODE_OSPEEDR_POS)
 106:d:\project\9388\e1\2023_7_27\sr5e1_l9388_freeosek\modules\drivers\system\gpio\include\gpio.h **** 
 107:d:\project\9388\e1\2023_7_27\sr5e1_l9388_freeosek\modules\drivers\system\gpio\include\gpio.h **** #define GPIO_MODE_PUPDR_POS            (5U)
 108:d:\project\9388\e1\2023_7_27\sr5e1_l9388_freeosek\modules\drivers\system\gpio\include\gpio.h **** #define GPIO_MODE_PUPDR_MASK           (3UL << GPIO_MODE_PUPDR_POS)
 109:d:\project\9388\e1\2023_7_27\sr5e1_l9388_freeosek\modules\drivers\system\gpio\include\gpio.h **** #define GPIO_MODE_PUPDR_FLOATING       (0UL << GPIO_MODE_PUPDR_POS)
 110:d:\project\9388\e1\2023_7_27\sr5e1_l9388_freeosek\modules\drivers\system\gpio\include\gpio.h **** #define GPIO_MODE_PUPDR_PULLUP         (1UL << GPIO_MODE_PUPDR_POS)
 111:d:\project\9388\e1\2023_7_27\sr5e1_l9388_freeosek\modules\drivers\system\gpio\include\gpio.h **** #define GPIO_MODE_PUPDR_PULLDOWN       (2UL << GPIO_MODE_PUPDR_POS)
 112:d:\project\9388\e1\2023_7_27\sr5e1_l9388_freeosek\modules\drivers\system\gpio\include\gpio.h **** 
 113:d:\project\9388\e1\2023_7_27\sr5e1_l9388_freeosek\modules\drivers\system\gpio\include\gpio.h **** #define GPIO_MODE_AFR_POS              (7U)
 114:d:\project\9388\e1\2023_7_27\sr5e1_l9388_freeosek\modules\drivers\system\gpio\include\gpio.h **** #define GPIO_MODE_AFR_MASK             (15UL << GPIO_MODE_AFR_POS)
 115:d:\project\9388\e1\2023_7_27\sr5e1_l9388_freeosek\modules\drivers\system\gpio\include\gpio.h **** #define GPIO_MODE_AFR(n)               ((uint32_t)(n) << GPIO_MODE_AFR_POS)
 116:d:\project\9388\e1\2023_7_27\sr5e1_l9388_freeosek\modules\drivers\system\gpio\include\gpio.h **** 
 117:d:\project\9388\e1\2023_7_27\sr5e1_l9388_freeosek\modules\drivers\system\gpio\include\gpio.h **** #define GPIO_MODE_IHYSTR_POS           (11U)
 118:d:\project\9388\e1\2023_7_27\sr5e1_l9388_freeosek\modules\drivers\system\gpio\include\gpio.h **** #define GPIO_MODE_IHYSTR_MASK          (3UL << GPIO_MODE_IHYSTR_POS)
 119:d:\project\9388\e1\2023_7_27\sr5e1_l9388_freeosek\modules\drivers\system\gpio\include\gpio.h **** #define GPIO_MODE_IHYSTR_CMOS          (0UL << GPIO_MODE_IHYSTR_POS)
 120:d:\project\9388\e1\2023_7_27\sr5e1_l9388_freeosek\modules\drivers\system\gpio\include\gpio.h **** #define GPIO_MODE_IHYSTR_AUTO          (1UL << GPIO_MODE_IHYSTR_POS)
 121:d:\project\9388\e1\2023_7_27\sr5e1_l9388_freeosek\modules\drivers\system\gpio\include\gpio.h **** #define GPIO_MODE_IHYSTR_TTL           (2UL << GPIO_MODE_IHYSTR_POS)
 122:d:\project\9388\e1\2023_7_27\sr5e1_l9388_freeosek\modules\drivers\system\gpio\include\gpio.h **** 
 123:d:\project\9388\e1\2023_7_27\sr5e1_l9388_freeosek\modules\drivers\system\gpio\include\gpio.h **** #define GPIO_MODE_TRIGENR_POS          (13U)
 124:d:\project\9388\e1\2023_7_27\sr5e1_l9388_freeosek\modules\drivers\system\gpio\include\gpio.h **** #define GPIO_MODE_TRIGENR_MASK         (1UL << GPIO_MODE_TRIGENR_POS)
 125:d:\project\9388\e1\2023_7_27\sr5e1_l9388_freeosek\modules\drivers\system\gpio\include\gpio.h **** #define GPIO_MODE_TRIGENR_IN_DISABLED  (0UL << GPIO_MODE_TRIGENR_POS)
 126:d:\project\9388\e1\2023_7_27\sr5e1_l9388_freeosek\modules\drivers\system\gpio\include\gpio.h **** #define GPIO_MODE_TRIGENR_IN_ENABLED   (1UL << GPIO_MODE_TRIGENR_POS)
 127:d:\project\9388\e1\2023_7_27\sr5e1_l9388_freeosek\modules\drivers\system\gpio\include\gpio.h **** 
 128:d:\project\9388\e1\2023_7_27\sr5e1_l9388_freeosek\modules\drivers\system\gpio\include\gpio.h **** #define GPIO_MODE_SAFESELR_POS         (14U)
 129:d:\project\9388\e1\2023_7_27\sr5e1_l9388_freeosek\modules\drivers\system\gpio\include\gpio.h **** #define GPIO_MODE_SAFESELR_MASK        (1UL << GPIO_MODE_SAFESELR_POS)
 130:d:\project\9388\e1\2023_7_27\sr5e1_l9388_freeosek\modules\drivers\system\gpio\include\gpio.h **** #define GPIO_MODE_SAFESELR_DISABLED    (0UL << GPIO_MODE_SAFESELR_POS)
 131:d:\project\9388\e1\2023_7_27\sr5e1_l9388_freeosek\modules\drivers\system\gpio\include\gpio.h **** #define GPIO_MODE_SAFESELR_ENABLED     (1UL << GPIO_MODE_SAFESELR_POS)
 132:d:\project\9388\e1\2023_7_27\sr5e1_l9388_freeosek\modules\drivers\system\gpio\include\gpio.h **** 
 133:d:\project\9388\e1\2023_7_27\sr5e1_l9388_freeosek\modules\drivers\system\gpio\include\gpio.h **** #define GPIO_MODE_SAFEVALR_POS         (15U)
 134:d:\project\9388\e1\2023_7_27\sr5e1_l9388_freeosek\modules\drivers\system\gpio\include\gpio.h **** #define GPIO_MODE_SAFEVALR_MASK        (1UL << GPIO_MODE_SAFEVALR_POS)
 135:d:\project\9388\e1\2023_7_27\sr5e1_l9388_freeosek\modules\drivers\system\gpio\include\gpio.h **** #define GPIO_MODE_SAFEVALR_LOW         (0UL << GPIO_MODE_SAFEVALR_POS)
 136:d:\project\9388\e1\2023_7_27\sr5e1_l9388_freeosek\modules\drivers\system\gpio\include\gpio.h **** #define GPIO_MODE_SAFEVALR_HIGH        (1UL << GPIO_MODE_SAFEVALR_POS)
 137:d:\project\9388\e1\2023_7_27\sr5e1_l9388_freeosek\modules\drivers\system\gpio\include\gpio.h **** /** @} */
 138:d:\project\9388\e1\2023_7_27\sr5e1_l9388_freeosek\modules\drivers\system\gpio\include\gpio.h **** 
 139:d:\project\9388\e1\2023_7_27\sr5e1_l9388_freeosek\modules\drivers\system\gpio\include\gpio.h **** /*===========================================================================*/
 140:d:\project\9388\e1\2023_7_27\sr5e1_l9388_freeosek\modules\drivers\system\gpio\include\gpio.h **** /* Module pre-compile time settings.                                         */
 141:d:\project\9388\e1\2023_7_27\sr5e1_l9388_freeosek\modules\drivers\system\gpio\include\gpio.h **** /*===========================================================================*/
 142:d:\project\9388\e1\2023_7_27\sr5e1_l9388_freeosek\modules\drivers\system\gpio\include\gpio.h **** 
 143:d:\project\9388\e1\2023_7_27\sr5e1_l9388_freeosek\modules\drivers\system\gpio\include\gpio.h **** /*===========================================================================*/
 144:d:\project\9388\e1\2023_7_27\sr5e1_l9388_freeosek\modules\drivers\system\gpio\include\gpio.h **** /* Derived constants and error checks.                                       */
 145:d:\project\9388\e1\2023_7_27\sr5e1_l9388_freeosek\modules\drivers\system\gpio\include\gpio.h **** /*===========================================================================*/
 146:d:\project\9388\e1\2023_7_27\sr5e1_l9388_freeosek\modules\drivers\system\gpio\include\gpio.h **** 
 147:d:\project\9388\e1\2023_7_27\sr5e1_l9388_freeosek\modules\drivers\system\gpio\include\gpio.h **** /*===========================================================================*/
 148:d:\project\9388\e1\2023_7_27\sr5e1_l9388_freeosek\modules\drivers\system\gpio\include\gpio.h **** /* Module data structures and types.                                         */
 149:d:\project\9388\e1\2023_7_27\sr5e1_l9388_freeosek\modules\drivers\system\gpio\include\gpio.h **** /*===========================================================================*/
 150:d:\project\9388\e1\2023_7_27\sr5e1_l9388_freeosek\modules\drivers\system\gpio\include\gpio.h **** 
 151:d:\project\9388\e1\2023_7_27\sr5e1_l9388_freeosek\modules\drivers\system\gpio\include\gpio.h **** /**
 152:d:\project\9388\e1\2023_7_27\sr5e1_l9388_freeosek\modules\drivers\system\gpio\include\gpio.h ****  * @brief   GPIO Port type.
 153:d:\project\9388\e1\2023_7_27\sr5e1_l9388_freeosek\modules\drivers\system\gpio\include\gpio.h ****  */
 154:d:\project\9388\e1\2023_7_27\sr5e1_l9388_freeosek\modules\drivers\system\gpio\include\gpio.h **** typedef uint8_t gpio_port_t;
 155:d:\project\9388\e1\2023_7_27\sr5e1_l9388_freeosek\modules\drivers\system\gpio\include\gpio.h **** 
 156:d:\project\9388\e1\2023_7_27\sr5e1_l9388_freeosek\modules\drivers\system\gpio\include\gpio.h **** /**
 157:d:\project\9388\e1\2023_7_27\sr5e1_l9388_freeosek\modules\drivers\system\gpio\include\gpio.h ****  * @brief   GPIO Pin type.
 158:d:\project\9388\e1\2023_7_27\sr5e1_l9388_freeosek\modules\drivers\system\gpio\include\gpio.h ****  */
 159:d:\project\9388\e1\2023_7_27\sr5e1_l9388_freeosek\modules\drivers\system\gpio\include\gpio.h **** typedef uint8_t gpio_pin_t;
 160:d:\project\9388\e1\2023_7_27\sr5e1_l9388_freeosek\modules\drivers\system\gpio\include\gpio.h **** 
 161:d:\project\9388\e1\2023_7_27\sr5e1_l9388_freeosek\modules\drivers\system\gpio\include\gpio.h **** /**
 162:d:\project\9388\e1\2023_7_27\sr5e1_l9388_freeosek\modules\drivers\system\gpio\include\gpio.h ****  * @brief   GPIO I/O type.
 163:d:\project\9388\e1\2023_7_27\sr5e1_l9388_freeosek\modules\drivers\system\gpio\include\gpio.h ****  */
 164:d:\project\9388\e1\2023_7_27\sr5e1_l9388_freeosek\modules\drivers\system\gpio\include\gpio.h **** typedef uint16_t gpio_io_t;
 165:d:\project\9388\e1\2023_7_27\sr5e1_l9388_freeosek\modules\drivers\system\gpio\include\gpio.h **** 
 166:d:\project\9388\e1\2023_7_27\sr5e1_l9388_freeosek\modules\drivers\system\gpio\include\gpio.h **** /**
 167:d:\project\9388\e1\2023_7_27\sr5e1_l9388_freeosek\modules\drivers\system\gpio\include\gpio.h ****  * @enum gpio_mode_t
 168:d:\project\9388\e1\2023_7_27\sr5e1_l9388_freeosek\modules\drivers\system\gpio\include\gpio.h ****  * GPIO Mode type.
 169:d:\project\9388\e1\2023_7_27\sr5e1_l9388_freeosek\modules\drivers\system\gpio\include\gpio.h ****  */
 170:d:\project\9388\e1\2023_7_27\sr5e1_l9388_freeosek\modules\drivers\system\gpio\include\gpio.h **** typedef enum {
 171:d:\project\9388\e1\2023_7_27\sr5e1_l9388_freeosek\modules\drivers\system\gpio\include\gpio.h ****     GPIO_MODER_INPUT,        /**< GPIO Mode Input              */
 172:d:\project\9388\e1\2023_7_27\sr5e1_l9388_freeosek\modules\drivers\system\gpio\include\gpio.h ****     GPIO_MODER_OUTPUT,       /**< GPIO Mode Output             */
 173:d:\project\9388\e1\2023_7_27\sr5e1_l9388_freeosek\modules\drivers\system\gpio\include\gpio.h ****     GPIO_MODER_ALTERNATE,    /**< GPIO Mode Alternate Function */
 174:d:\project\9388\e1\2023_7_27\sr5e1_l9388_freeosek\modules\drivers\system\gpio\include\gpio.h ****     GPIO_MODER_ANALOG        /**< GPIO Mode Analog             */
 175:d:\project\9388\e1\2023_7_27\sr5e1_l9388_freeosek\modules\drivers\system\gpio\include\gpio.h **** } gpio_mode_t;
 176:d:\project\9388\e1\2023_7_27\sr5e1_l9388_freeosek\modules\drivers\system\gpio\include\gpio.h **** 
 177:d:\project\9388\e1\2023_7_27\sr5e1_l9388_freeosek\modules\drivers\system\gpio\include\gpio.h **** /**
 178:d:\project\9388\e1\2023_7_27\sr5e1_l9388_freeosek\modules\drivers\system\gpio\include\gpio.h ****  * @enum gpio_otype_t
 179:d:\project\9388\e1\2023_7_27\sr5e1_l9388_freeosek\modules\drivers\system\gpio\include\gpio.h ****  * GPIO Output Type type.
 180:d:\project\9388\e1\2023_7_27\sr5e1_l9388_freeosek\modules\drivers\system\gpio\include\gpio.h ****  */
 181:d:\project\9388\e1\2023_7_27\sr5e1_l9388_freeosek\modules\drivers\system\gpio\include\gpio.h **** typedef enum {
 182:d:\project\9388\e1\2023_7_27\sr5e1_l9388_freeosek\modules\drivers\system\gpio\include\gpio.h ****     GPIO_OTYPER_PUSHPULL,    /**< GPIO Output Push-Pull  */
 183:d:\project\9388\e1\2023_7_27\sr5e1_l9388_freeosek\modules\drivers\system\gpio\include\gpio.h ****     GPIO_OTYPER_OPENDRAIN,   /**< GPIO Output Open-Drain */
 184:d:\project\9388\e1\2023_7_27\sr5e1_l9388_freeosek\modules\drivers\system\gpio\include\gpio.h **** } gpio_otype_t;
 185:d:\project\9388\e1\2023_7_27\sr5e1_l9388_freeosek\modules\drivers\system\gpio\include\gpio.h **** 
 186:d:\project\9388\e1\2023_7_27\sr5e1_l9388_freeosek\modules\drivers\system\gpio\include\gpio.h **** /**
 187:d:\project\9388\e1\2023_7_27\sr5e1_l9388_freeosek\modules\drivers\system\gpio\include\gpio.h ****  * @enum gpio_ospeed_t
 188:d:\project\9388\e1\2023_7_27\sr5e1_l9388_freeosek\modules\drivers\system\gpio\include\gpio.h ****  * GPIO Output Speed type.
 189:d:\project\9388\e1\2023_7_27\sr5e1_l9388_freeosek\modules\drivers\system\gpio\include\gpio.h ****  */
 190:d:\project\9388\e1\2023_7_27\sr5e1_l9388_freeosek\modules\drivers\system\gpio\include\gpio.h **** typedef enum {
 191:d:\project\9388\e1\2023_7_27\sr5e1_l9388_freeosek\modules\drivers\system\gpio\include\gpio.h ****     GPIO_OSPEEDR_LOW,        /**< GPIO Low Speed       */
 192:d:\project\9388\e1\2023_7_27\sr5e1_l9388_freeosek\modules\drivers\system\gpio\include\gpio.h ****     GPIO_OSPEEDR_MEDIUM,     /**< GPIO Medium Speed    */
 193:d:\project\9388\e1\2023_7_27\sr5e1_l9388_freeosek\modules\drivers\system\gpio\include\gpio.h ****     GPIO_OSPEEDR_HIGH,       /**< GPIO High Speed      */
 194:d:\project\9388\e1\2023_7_27\sr5e1_l9388_freeosek\modules\drivers\system\gpio\include\gpio.h ****     GPIO_OSPEEDR_VERYHIGH    /**< GPIO Very High Speed */
 195:d:\project\9388\e1\2023_7_27\sr5e1_l9388_freeosek\modules\drivers\system\gpio\include\gpio.h **** } gpio_ospeed_t;
 196:d:\project\9388\e1\2023_7_27\sr5e1_l9388_freeosek\modules\drivers\system\gpio\include\gpio.h **** 
 197:d:\project\9388\e1\2023_7_27\sr5e1_l9388_freeosek\modules\drivers\system\gpio\include\gpio.h **** /**
 198:d:\project\9388\e1\2023_7_27\sr5e1_l9388_freeosek\modules\drivers\system\gpio\include\gpio.h ****  * @enum gpio_pupd_t
 199:d:\project\9388\e1\2023_7_27\sr5e1_l9388_freeosek\modules\drivers\system\gpio\include\gpio.h ****  * GPIO Pull-up/Pull-down type.
 200:d:\project\9388\e1\2023_7_27\sr5e1_l9388_freeosek\modules\drivers\system\gpio\include\gpio.h ****  */
 201:d:\project\9388\e1\2023_7_27\sr5e1_l9388_freeosek\modules\drivers\system\gpio\include\gpio.h **** typedef enum {
 202:d:\project\9388\e1\2023_7_27\sr5e1_l9388_freeosek\modules\drivers\system\gpio\include\gpio.h ****     GPIO_PUPDR_FLOATING,     /**< GPIO No Pull-Up, No Pull-Down */
 203:d:\project\9388\e1\2023_7_27\sr5e1_l9388_freeosek\modules\drivers\system\gpio\include\gpio.h ****     GPIO_PUPDR_PULLUP,       /**< GPIO Pull-Up                  */
 204:d:\project\9388\e1\2023_7_27\sr5e1_l9388_freeosek\modules\drivers\system\gpio\include\gpio.h ****     GPIO_PUPDR_PULLDOWN      /**< GPIO Pull-Down                */
 205:d:\project\9388\e1\2023_7_27\sr5e1_l9388_freeosek\modules\drivers\system\gpio\include\gpio.h **** } gpio_pupd_t;
 206:d:\project\9388\e1\2023_7_27\sr5e1_l9388_freeosek\modules\drivers\system\gpio\include\gpio.h **** 
 207:d:\project\9388\e1\2023_7_27\sr5e1_l9388_freeosek\modules\drivers\system\gpio\include\gpio.h **** /**
 208:d:\project\9388\e1\2023_7_27\sr5e1_l9388_freeosek\modules\drivers\system\gpio\include\gpio.h ****  * @enum gpio_od_t
 209:d:\project\9388\e1\2023_7_27\sr5e1_l9388_freeosek\modules\drivers\system\gpio\include\gpio.h ****  * GPIO Output Data type.
 210:d:\project\9388\e1\2023_7_27\sr5e1_l9388_freeosek\modules\drivers\system\gpio\include\gpio.h ****  */
 211:d:\project\9388\e1\2023_7_27\sr5e1_l9388_freeosek\modules\drivers\system\gpio\include\gpio.h **** typedef enum {
 212:d:\project\9388\e1\2023_7_27\sr5e1_l9388_freeosek\modules\drivers\system\gpio\include\gpio.h ****     GPIO_ODR_LOW,            /**< GPIO Output Data Low  */
 213:d:\project\9388\e1\2023_7_27\sr5e1_l9388_freeosek\modules\drivers\system\gpio\include\gpio.h ****     GPIO_ODR_HIGH            /**< GPIO Output Data High */
 214:d:\project\9388\e1\2023_7_27\sr5e1_l9388_freeosek\modules\drivers\system\gpio\include\gpio.h **** } gpio_od_t;
 215:d:\project\9388\e1\2023_7_27\sr5e1_l9388_freeosek\modules\drivers\system\gpio\include\gpio.h **** 
 216:d:\project\9388\e1\2023_7_27\sr5e1_l9388_freeosek\modules\drivers\system\gpio\include\gpio.h **** /**
 217:d:\project\9388\e1\2023_7_27\sr5e1_l9388_freeosek\modules\drivers\system\gpio\include\gpio.h ****  * @brief   GPIO Alternate Function type.
 218:d:\project\9388\e1\2023_7_27\sr5e1_l9388_freeosek\modules\drivers\system\gpio\include\gpio.h ****  */
 219:d:\project\9388\e1\2023_7_27\sr5e1_l9388_freeosek\modules\drivers\system\gpio\include\gpio.h **** typedef uint8_t gpio_af_t;
 220:d:\project\9388\e1\2023_7_27\sr5e1_l9388_freeosek\modules\drivers\system\gpio\include\gpio.h **** 
 221:d:\project\9388\e1\2023_7_27\sr5e1_l9388_freeosek\modules\drivers\system\gpio\include\gpio.h **** /**
 222:d:\project\9388\e1\2023_7_27\sr5e1_l9388_freeosek\modules\drivers\system\gpio\include\gpio.h ****  * @enum gpio_ihyst_t
 223:d:\project\9388\e1\2023_7_27\sr5e1_l9388_freeosek\modules\drivers\system\gpio\include\gpio.h ****  * GPIO Port Hysteresis type.
 224:d:\project\9388\e1\2023_7_27\sr5e1_l9388_freeosek\modules\drivers\system\gpio\include\gpio.h ****  */
 225:d:\project\9388\e1\2023_7_27\sr5e1_l9388_freeosek\modules\drivers\system\gpio\include\gpio.h **** typedef enum {
 226:d:\project\9388\e1\2023_7_27\sr5e1_l9388_freeosek\modules\drivers\system\gpio\include\gpio.h ****     GPIO_IHYSTR_CMOS,        /**< GPIO Port Input Buffer Disabled */
 227:d:\project\9388\e1\2023_7_27\sr5e1_l9388_freeosek\modules\drivers\system\gpio\include\gpio.h ****     GPIO_IHYSTR_TTL,         /**< GPIO Port Input Buffer Enabled  */
 228:d:\project\9388\e1\2023_7_27\sr5e1_l9388_freeosek\modules\drivers\system\gpio\include\gpio.h ****     GPIO_IHYSTR_AUTO,        /**< GPIO Port Input Buffer Enabled  */
 229:d:\project\9388\e1\2023_7_27\sr5e1_l9388_freeosek\modules\drivers\system\gpio\include\gpio.h **** } gpio_ihyst_t;
 230:d:\project\9388\e1\2023_7_27\sr5e1_l9388_freeosek\modules\drivers\system\gpio\include\gpio.h **** 
 231:d:\project\9388\e1\2023_7_27\sr5e1_l9388_freeosek\modules\drivers\system\gpio\include\gpio.h **** /**
 232:d:\project\9388\e1\2023_7_27\sr5e1_l9388_freeosek\modules\drivers\system\gpio\include\gpio.h ****  * @enum gpio_trigen_t
 233:d:\project\9388\e1\2023_7_27\sr5e1_l9388_freeosek\modules\drivers\system\gpio\include\gpio.h ****  * GPIO Port Input Buffer Enable type.
 234:d:\project\9388\e1\2023_7_27\sr5e1_l9388_freeosek\modules\drivers\system\gpio\include\gpio.h ****  */
 235:d:\project\9388\e1\2023_7_27\sr5e1_l9388_freeosek\modules\drivers\system\gpio\include\gpio.h **** typedef enum {
 236:d:\project\9388\e1\2023_7_27\sr5e1_l9388_freeosek\modules\drivers\system\gpio\include\gpio.h ****     GPIO_TRIGENR_IN_DISABLED,     /**< GPIO Port Input Buffer Disabled */
 237:d:\project\9388\e1\2023_7_27\sr5e1_l9388_freeosek\modules\drivers\system\gpio\include\gpio.h ****     GPIO_TRIGENR_IN_ENABLED       /**< GPIO Port Input Buffer Enabled  */
 238:d:\project\9388\e1\2023_7_27\sr5e1_l9388_freeosek\modules\drivers\system\gpio\include\gpio.h **** } gpio_trigen_t;
 239:d:\project\9388\e1\2023_7_27\sr5e1_l9388_freeosek\modules\drivers\system\gpio\include\gpio.h **** 
 240:d:\project\9388\e1\2023_7_27\sr5e1_l9388_freeosek\modules\drivers\system\gpio\include\gpio.h **** /**
 241:d:\project\9388\e1\2023_7_27\sr5e1_l9388_freeosek\modules\drivers\system\gpio\include\gpio.h ****  * @enum gpio_safesel_t
 242:d:\project\9388\e1\2023_7_27\sr5e1_l9388_freeosek\modules\drivers\system\gpio\include\gpio.h ****  * GPIO Safe IO Selection Enable type.
 243:d:\project\9388\e1\2023_7_27\sr5e1_l9388_freeosek\modules\drivers\system\gpio\include\gpio.h ****  */
 244:d:\project\9388\e1\2023_7_27\sr5e1_l9388_freeosek\modules\drivers\system\gpio\include\gpio.h **** typedef enum {
 245:d:\project\9388\e1\2023_7_27\sr5e1_l9388_freeosek\modules\drivers\system\gpio\include\gpio.h ****     GPIO_SAFESEL_DISABLED,   /**< GPIO Safe IO Selection Disabled */
 246:d:\project\9388\e1\2023_7_27\sr5e1_l9388_freeosek\modules\drivers\system\gpio\include\gpio.h ****     GPIO_SAFESEL_ENABLED     /**< GPIO Safe IO Selection Enabled  */
 247:d:\project\9388\e1\2023_7_27\sr5e1_l9388_freeosek\modules\drivers\system\gpio\include\gpio.h **** } gpio_safesel_t;
 248:d:\project\9388\e1\2023_7_27\sr5e1_l9388_freeosek\modules\drivers\system\gpio\include\gpio.h **** 
 249:d:\project\9388\e1\2023_7_27\sr5e1_l9388_freeosek\modules\drivers\system\gpio\include\gpio.h **** /**
 250:d:\project\9388\e1\2023_7_27\sr5e1_l9388_freeosek\modules\drivers\system\gpio\include\gpio.h ****  * @enum gpio_safeval_t
 251:d:\project\9388\e1\2023_7_27\sr5e1_l9388_freeosek\modules\drivers\system\gpio\include\gpio.h ****  * GPIO Safe IO Selection value type.
 252:d:\project\9388\e1\2023_7_27\sr5e1_l9388_freeosek\modules\drivers\system\gpio\include\gpio.h ****  */
 253:d:\project\9388\e1\2023_7_27\sr5e1_l9388_freeosek\modules\drivers\system\gpio\include\gpio.h **** typedef enum {
 254:d:\project\9388\e1\2023_7_27\sr5e1_l9388_freeosek\modules\drivers\system\gpio\include\gpio.h ****     GPIO_SAFEVAL_LOW,        /**< GPIO Safe IO Selection Low  */
 255:d:\project\9388\e1\2023_7_27\sr5e1_l9388_freeosek\modules\drivers\system\gpio\include\gpio.h ****     GPIO_SAFEVAL_HIGT        /**< GPIO Safe IO Selection High */
 256:d:\project\9388\e1\2023_7_27\sr5e1_l9388_freeosek\modules\drivers\system\gpio\include\gpio.h **** } gpio_safeval_t;
 257:d:\project\9388\e1\2023_7_27\sr5e1_l9388_freeosek\modules\drivers\system\gpio\include\gpio.h **** 
 258:d:\project\9388\e1\2023_7_27\sr5e1_l9388_freeosek\modules\drivers\system\gpio\include\gpio.h **** /*===========================================================================*/
 259:d:\project\9388\e1\2023_7_27\sr5e1_l9388_freeosek\modules\drivers\system\gpio\include\gpio.h **** /* Module macros.                                                            */
 260:d:\project\9388\e1\2023_7_27\sr5e1_l9388_freeosek\modules\drivers\system\gpio\include\gpio.h **** /*===========================================================================*/
 261:d:\project\9388\e1\2023_7_27\sr5e1_l9388_freeosek\modules\drivers\system\gpio\include\gpio.h **** 
 262:d:\project\9388\e1\2023_7_27\sr5e1_l9388_freeosek\modules\drivers\system\gpio\include\gpio.h **** /**
 263:d:\project\9388\e1\2023_7_27\sr5e1_l9388_freeosek\modules\drivers\system\gpio\include\gpio.h ****  * @brief   Packs unique pin identifier.
 264:d:\project\9388\e1\2023_7_27\sr5e1_l9388_freeosek\modules\drivers\system\gpio\include\gpio.h ****  * @note    The low nibble contains the pin number, the high nibble the port
 265:d:\project\9388\e1\2023_7_27\sr5e1_l9388_freeosek\modules\drivers\system\gpio\include\gpio.h ****  *          number.
 266:d:\project\9388\e1\2023_7_27\sr5e1_l9388_freeosek\modules\drivers\system\gpio\include\gpio.h ****  *
 267:d:\project\9388\e1\2023_7_27\sr5e1_l9388_freeosek\modules\drivers\system\gpio\include\gpio.h ****  * @param[in] port      port number; it can be one of the following values:
 268:d:\project\9388\e1\2023_7_27\sr5e1_l9388_freeosek\modules\drivers\system\gpio\include\gpio.h ****  *            @arg @ref GPIO_PORT_A
 269:d:\project\9388\e1\2023_7_27\sr5e1_l9388_freeosek\modules\drivers\system\gpio\include\gpio.h ****  *            @arg @ref GPIO_PORT_B
 270:d:\project\9388\e1\2023_7_27\sr5e1_l9388_freeosek\modules\drivers\system\gpio\include\gpio.h ****  *            @arg @ref GPIO_PORT_C
 271:d:\project\9388\e1\2023_7_27\sr5e1_l9388_freeosek\modules\drivers\system\gpio\include\gpio.h ****  *            @arg @ref GPIO_PORT_D
 272:d:\project\9388\e1\2023_7_27\sr5e1_l9388_freeosek\modules\drivers\system\gpio\include\gpio.h ****  *            @arg @ref GPIO_PORT_E
 273:d:\project\9388\e1\2023_7_27\sr5e1_l9388_freeosek\modules\drivers\system\gpio\include\gpio.h ****  *            @arg @ref GPIO_PORT_F
 274:d:\project\9388\e1\2023_7_27\sr5e1_l9388_freeosek\modules\drivers\system\gpio\include\gpio.h ****  *            @arg @ref GPIO_PORT_G
 275:d:\project\9388\e1\2023_7_27\sr5e1_l9388_freeosek\modules\drivers\system\gpio\include\gpio.h ****  *            @arg @ref GPIO_PORT_H
 276:d:\project\9388\e1\2023_7_27\sr5e1_l9388_freeosek\modules\drivers\system\gpio\include\gpio.h ****  *            @arg @ref GPIO_PORT_I
 277:d:\project\9388\e1\2023_7_27\sr5e1_l9388_freeosek\modules\drivers\system\gpio\include\gpio.h ****  *            @arg @ref GPIO_PORT_J
 278:d:\project\9388\e1\2023_7_27\sr5e1_l9388_freeosek\modules\drivers\system\gpio\include\gpio.h ****  *            @arg @ref GPIO_PORT_K
 279:d:\project\9388\e1\2023_7_27\sr5e1_l9388_freeosek\modules\drivers\system\gpio\include\gpio.h ****  *            @arg @ref GPIO_PORT_L
 280:d:\project\9388\e1\2023_7_27\sr5e1_l9388_freeosek\modules\drivers\system\gpio\include\gpio.h ****  *            @arg @ref GPIO_PORT_M
 281:d:\project\9388\e1\2023_7_27\sr5e1_l9388_freeosek\modules\drivers\system\gpio\include\gpio.h ****  *            @arg @ref GPIO_PORT_N
 282:d:\project\9388\e1\2023_7_27\sr5e1_l9388_freeosek\modules\drivers\system\gpio\include\gpio.h ****  *            @arg @ref GPIO_PORT_Q
 283:d:\project\9388\e1\2023_7_27\sr5e1_l9388_freeosek\modules\drivers\system\gpio\include\gpio.h ****  *            @arg @ref GPIO_PORT_R
 284:d:\project\9388\e1\2023_7_27\sr5e1_l9388_freeosek\modules\drivers\system\gpio\include\gpio.h ****  *            @arg @ref GPIO_PORT_S
 285:d:\project\9388\e1\2023_7_27\sr5e1_l9388_freeosek\modules\drivers\system\gpio\include\gpio.h ****  *            @arg @ref GPIO_PORT_T
 286:d:\project\9388\e1\2023_7_27\sr5e1_l9388_freeosek\modules\drivers\system\gpio\include\gpio.h ****  *            @arg @ref GPIO_PORT_V
 287:d:\project\9388\e1\2023_7_27\sr5e1_l9388_freeosek\modules\drivers\system\gpio\include\gpio.h ****  *            @arg @ref GPIO_PORT_W
 288:d:\project\9388\e1\2023_7_27\sr5e1_l9388_freeosek\modules\drivers\system\gpio\include\gpio.h ****  *            @arg @ref GPIO_PORT_X
 289:d:\project\9388\e1\2023_7_27\sr5e1_l9388_freeosek\modules\drivers\system\gpio\include\gpio.h ****  *            @arg @ref GPIO_PORT_Y
 290:d:\project\9388\e1\2023_7_27\sr5e1_l9388_freeosek\modules\drivers\system\gpio\include\gpio.h ****  * @param[in] pin       pin number; it can be one of the following values:
 291:d:\project\9388\e1\2023_7_27\sr5e1_l9388_freeosek\modules\drivers\system\gpio\include\gpio.h ****  *            @arg @ref GPIO_PIN_0
 292:d:\project\9388\e1\2023_7_27\sr5e1_l9388_freeosek\modules\drivers\system\gpio\include\gpio.h ****  *            @arg @ref GPIO_PIN_1
 293:d:\project\9388\e1\2023_7_27\sr5e1_l9388_freeosek\modules\drivers\system\gpio\include\gpio.h ****  *            @arg @ref GPIO_PIN_2
 294:d:\project\9388\e1\2023_7_27\sr5e1_l9388_freeosek\modules\drivers\system\gpio\include\gpio.h ****  *            @arg @ref GPIO_PIN_3
 295:d:\project\9388\e1\2023_7_27\sr5e1_l9388_freeosek\modules\drivers\system\gpio\include\gpio.h ****  *            @arg @ref GPIO_PIN_4
 296:d:\project\9388\e1\2023_7_27\sr5e1_l9388_freeosek\modules\drivers\system\gpio\include\gpio.h ****  *            @arg @ref GPIO_PIN_5
 297:d:\project\9388\e1\2023_7_27\sr5e1_l9388_freeosek\modules\drivers\system\gpio\include\gpio.h ****  *            @arg @ref GPIO_PIN_6
 298:d:\project\9388\e1\2023_7_27\sr5e1_l9388_freeosek\modules\drivers\system\gpio\include\gpio.h ****  *            @arg @ref GPIO_PIN_7
 299:d:\project\9388\e1\2023_7_27\sr5e1_l9388_freeosek\modules\drivers\system\gpio\include\gpio.h ****  *            @arg @ref GPIO_PIN_8
 300:d:\project\9388\e1\2023_7_27\sr5e1_l9388_freeosek\modules\drivers\system\gpio\include\gpio.h ****  *            @arg @ref GPIO_PIN_9
 301:d:\project\9388\e1\2023_7_27\sr5e1_l9388_freeosek\modules\drivers\system\gpio\include\gpio.h ****  *            @arg @ref GPIO_PIN_10
 302:d:\project\9388\e1\2023_7_27\sr5e1_l9388_freeosek\modules\drivers\system\gpio\include\gpio.h ****  *            @arg @ref GPIO_PIN_11
 303:d:\project\9388\e1\2023_7_27\sr5e1_l9388_freeosek\modules\drivers\system\gpio\include\gpio.h ****  *            @arg @ref GPIO_PIN_12
 304:d:\project\9388\e1\2023_7_27\sr5e1_l9388_freeosek\modules\drivers\system\gpio\include\gpio.h ****  *            @arg @ref GPIO_PIN_13
 305:d:\project\9388\e1\2023_7_27\sr5e1_l9388_freeosek\modules\drivers\system\gpio\include\gpio.h ****  *            @arg @ref GPIO_PIN_14
 306:d:\project\9388\e1\2023_7_27\sr5e1_l9388_freeosek\modules\drivers\system\gpio\include\gpio.h ****  *            @arg @ref GPIO_PIN_15
 307:d:\project\9388\e1\2023_7_27\sr5e1_l9388_freeosek\modules\drivers\system\gpio\include\gpio.h ****  * @return              unique pin identifier
 308:d:\project\9388\e1\2023_7_27\sr5e1_l9388_freeosek\modules\drivers\system\gpio\include\gpio.h ****  *
 309:d:\project\9388\e1\2023_7_27\sr5e1_l9388_freeosek\modules\drivers\system\gpio\include\gpio.h ****  * @api
 310:d:\project\9388\e1\2023_7_27\sr5e1_l9388_freeosek\modules\drivers\system\gpio\include\gpio.h ****  */
 311:d:\project\9388\e1\2023_7_27\sr5e1_l9388_freeosek\modules\drivers\system\gpio\include\gpio.h **** #define gpio_iopack(_port_, _pin_)                                             \
 312:d:\project\9388\e1\2023_7_27\sr5e1_l9388_freeosek\modules\drivers\system\gpio\include\gpio.h ****     ((gpio_io_t)((((uint32_t)(_port_)) << 4U) | (((uint32_t)(_pin_)) & 0x0FU)))
 313:d:\project\9388\e1\2023_7_27\sr5e1_l9388_freeosek\modules\drivers\system\gpio\include\gpio.h **** 
 314:d:\project\9388\e1\2023_7_27\sr5e1_l9388_freeosek\modules\drivers\system\gpio\include\gpio.h **** /**
 315:d:\project\9388\e1\2023_7_27\sr5e1_l9388_freeosek\modules\drivers\system\gpio\include\gpio.h ****  * @brief   Unpacks unique pin identifier.
 316:d:\project\9388\e1\2023_7_27\sr5e1_l9388_freeosek\modules\drivers\system\gpio\include\gpio.h ****  * @note    Returns port number related to the unique pin identifier.
 317:d:\project\9388\e1\2023_7_27\sr5e1_l9388_freeosek\modules\drivers\system\gpio\include\gpio.h ****  *
 318:d:\project\9388\e1\2023_7_27\sr5e1_l9388_freeosek\modules\drivers\system\gpio\include\gpio.h ****  * @param[in]           unique pin identifier
 319:d:\project\9388\e1\2023_7_27\sr5e1_l9388_freeosek\modules\drivers\system\gpio\include\gpio.h ****  * @return              port number; it can be one of the following values:
 320:d:\project\9388\e1\2023_7_27\sr5e1_l9388_freeosek\modules\drivers\system\gpio\include\gpio.h ****  *            @arg @ref GPIO_PORT_A
 321:d:\project\9388\e1\2023_7_27\sr5e1_l9388_freeosek\modules\drivers\system\gpio\include\gpio.h ****  *            @arg @ref GPIO_PORT_B
 322:d:\project\9388\e1\2023_7_27\sr5e1_l9388_freeosek\modules\drivers\system\gpio\include\gpio.h ****  *            @arg @ref GPIO_PORT_C
 323:d:\project\9388\e1\2023_7_27\sr5e1_l9388_freeosek\modules\drivers\system\gpio\include\gpio.h ****  *            @arg @ref GPIO_PORT_D
 324:d:\project\9388\e1\2023_7_27\sr5e1_l9388_freeosek\modules\drivers\system\gpio\include\gpio.h ****  *            @arg @ref GPIO_PORT_E
 325:d:\project\9388\e1\2023_7_27\sr5e1_l9388_freeosek\modules\drivers\system\gpio\include\gpio.h ****  *            @arg @ref GPIO_PORT_F
 326:d:\project\9388\e1\2023_7_27\sr5e1_l9388_freeosek\modules\drivers\system\gpio\include\gpio.h ****  *            @arg @ref GPIO_PORT_G
 327:d:\project\9388\e1\2023_7_27\sr5e1_l9388_freeosek\modules\drivers\system\gpio\include\gpio.h ****  *            @arg @ref GPIO_PORT_H
 328:d:\project\9388\e1\2023_7_27\sr5e1_l9388_freeosek\modules\drivers\system\gpio\include\gpio.h ****  *            @arg @ref GPIO_PORT_I
 329:d:\project\9388\e1\2023_7_27\sr5e1_l9388_freeosek\modules\drivers\system\gpio\include\gpio.h ****  *            @arg @ref GPIO_PORT_J
 330:d:\project\9388\e1\2023_7_27\sr5e1_l9388_freeosek\modules\drivers\system\gpio\include\gpio.h ****  *            @arg @ref GPIO_PORT_K
 331:d:\project\9388\e1\2023_7_27\sr5e1_l9388_freeosek\modules\drivers\system\gpio\include\gpio.h ****  *            @arg @ref GPIO_PORT_L
 332:d:\project\9388\e1\2023_7_27\sr5e1_l9388_freeosek\modules\drivers\system\gpio\include\gpio.h ****  *            @arg @ref GPIO_PORT_M
 333:d:\project\9388\e1\2023_7_27\sr5e1_l9388_freeosek\modules\drivers\system\gpio\include\gpio.h ****  *            @arg @ref GPIO_PORT_N
 334:d:\project\9388\e1\2023_7_27\sr5e1_l9388_freeosek\modules\drivers\system\gpio\include\gpio.h ****  *            @arg @ref GPIO_PORT_Q
 335:d:\project\9388\e1\2023_7_27\sr5e1_l9388_freeosek\modules\drivers\system\gpio\include\gpio.h ****  *            @arg @ref GPIO_PORT_R
 336:d:\project\9388\e1\2023_7_27\sr5e1_l9388_freeosek\modules\drivers\system\gpio\include\gpio.h ****  *            @arg @ref GPIO_PORT_S
 337:d:\project\9388\e1\2023_7_27\sr5e1_l9388_freeosek\modules\drivers\system\gpio\include\gpio.h ****  *            @arg @ref GPIO_PORT_T
 338:d:\project\9388\e1\2023_7_27\sr5e1_l9388_freeosek\modules\drivers\system\gpio\include\gpio.h ****  *            @arg @ref GPIO_PORT_V
 339:d:\project\9388\e1\2023_7_27\sr5e1_l9388_freeosek\modules\drivers\system\gpio\include\gpio.h ****  *            @arg @ref GPIO_PORT_W
 340:d:\project\9388\e1\2023_7_27\sr5e1_l9388_freeosek\modules\drivers\system\gpio\include\gpio.h ****  *            @arg @ref GPIO_PORT_X
 341:d:\project\9388\e1\2023_7_27\sr5e1_l9388_freeosek\modules\drivers\system\gpio\include\gpio.h ****  *            @arg @ref GPIO_PORT_Y
 342:d:\project\9388\e1\2023_7_27\sr5e1_l9388_freeosek\modules\drivers\system\gpio\include\gpio.h ****  *
 343:d:\project\9388\e1\2023_7_27\sr5e1_l9388_freeosek\modules\drivers\system\gpio\include\gpio.h ****  * @api
 344:d:\project\9388\e1\2023_7_27\sr5e1_l9388_freeosek\modules\drivers\system\gpio\include\gpio.h ****  */
 345:d:\project\9388\e1\2023_7_27\sr5e1_l9388_freeosek\modules\drivers\system\gpio\include\gpio.h **** #define gpio_iounpack_port(_io_)                                               \
 346:d:\project\9388\e1\2023_7_27\sr5e1_l9388_freeosek\modules\drivers\system\gpio\include\gpio.h ****     ((gpio_port_t)(((uint32_t)(_io_)) >> 4U))
 347:d:\project\9388\e1\2023_7_27\sr5e1_l9388_freeosek\modules\drivers\system\gpio\include\gpio.h **** 
 348:d:\project\9388\e1\2023_7_27\sr5e1_l9388_freeosek\modules\drivers\system\gpio\include\gpio.h **** /**
 349:d:\project\9388\e1\2023_7_27\sr5e1_l9388_freeosek\modules\drivers\system\gpio\include\gpio.h ****  * @brief   Unpacks unique pin identifier.
 350:d:\project\9388\e1\2023_7_27\sr5e1_l9388_freeosek\modules\drivers\system\gpio\include\gpio.h ****  * @note    Returns pin number related to the unique pin identifier.
 351:d:\project\9388\e1\2023_7_27\sr5e1_l9388_freeosek\modules\drivers\system\gpio\include\gpio.h ****  *
 352:d:\project\9388\e1\2023_7_27\sr5e1_l9388_freeosek\modules\drivers\system\gpio\include\gpio.h ****  * @param[in]           unique pin identifier
 353:d:\project\9388\e1\2023_7_27\sr5e1_l9388_freeosek\modules\drivers\system\gpio\include\gpio.h ****  * @return              pin number; it can be one of the following values:
 354:d:\project\9388\e1\2023_7_27\sr5e1_l9388_freeosek\modules\drivers\system\gpio\include\gpio.h ****  *            @arg @ref GPIO_PIN_0
 355:d:\project\9388\e1\2023_7_27\sr5e1_l9388_freeosek\modules\drivers\system\gpio\include\gpio.h ****  *            @arg @ref GPIO_PIN_1
 356:d:\project\9388\e1\2023_7_27\sr5e1_l9388_freeosek\modules\drivers\system\gpio\include\gpio.h ****  *            @arg @ref GPIO_PIN_2
 357:d:\project\9388\e1\2023_7_27\sr5e1_l9388_freeosek\modules\drivers\system\gpio\include\gpio.h ****  *            @arg @ref GPIO_PIN_3
 358:d:\project\9388\e1\2023_7_27\sr5e1_l9388_freeosek\modules\drivers\system\gpio\include\gpio.h ****  *            @arg @ref GPIO_PIN_4
 359:d:\project\9388\e1\2023_7_27\sr5e1_l9388_freeosek\modules\drivers\system\gpio\include\gpio.h ****  *            @arg @ref GPIO_PIN_5
 360:d:\project\9388\e1\2023_7_27\sr5e1_l9388_freeosek\modules\drivers\system\gpio\include\gpio.h ****  *            @arg @ref GPIO_PIN_6
 361:d:\project\9388\e1\2023_7_27\sr5e1_l9388_freeosek\modules\drivers\system\gpio\include\gpio.h ****  *            @arg @ref GPIO_PIN_7
 362:d:\project\9388\e1\2023_7_27\sr5e1_l9388_freeosek\modules\drivers\system\gpio\include\gpio.h ****  *            @arg @ref GPIO_PIN_8
 363:d:\project\9388\e1\2023_7_27\sr5e1_l9388_freeosek\modules\drivers\system\gpio\include\gpio.h ****  *            @arg @ref GPIO_PIN_9
 364:d:\project\9388\e1\2023_7_27\sr5e1_l9388_freeosek\modules\drivers\system\gpio\include\gpio.h ****  *            @arg @ref GPIO_PIN_10
 365:d:\project\9388\e1\2023_7_27\sr5e1_l9388_freeosek\modules\drivers\system\gpio\include\gpio.h ****  *            @arg @ref GPIO_PIN_11
 366:d:\project\9388\e1\2023_7_27\sr5e1_l9388_freeosek\modules\drivers\system\gpio\include\gpio.h ****  *            @arg @ref GPIO_PIN_12
 367:d:\project\9388\e1\2023_7_27\sr5e1_l9388_freeosek\modules\drivers\system\gpio\include\gpio.h ****  *            @arg @ref GPIO_PIN_13
 368:d:\project\9388\e1\2023_7_27\sr5e1_l9388_freeosek\modules\drivers\system\gpio\include\gpio.h ****  *            @arg @ref GPIO_PIN_14
 369:d:\project\9388\e1\2023_7_27\sr5e1_l9388_freeosek\modules\drivers\system\gpio\include\gpio.h ****  *            @arg @ref GPIO_PIN_15
 370:d:\project\9388\e1\2023_7_27\sr5e1_l9388_freeosek\modules\drivers\system\gpio\include\gpio.h ****  *
 371:d:\project\9388\e1\2023_7_27\sr5e1_l9388_freeosek\modules\drivers\system\gpio\include\gpio.h ****  * @api
 372:d:\project\9388\e1\2023_7_27\sr5e1_l9388_freeosek\modules\drivers\system\gpio\include\gpio.h ****  */
 373:d:\project\9388\e1\2023_7_27\sr5e1_l9388_freeosek\modules\drivers\system\gpio\include\gpio.h **** #define gpio_iounpack_pin(_io_)                                                \
 374:d:\project\9388\e1\2023_7_27\sr5e1_l9388_freeosek\modules\drivers\system\gpio\include\gpio.h ****     ((gpio_pin_t)(((uint32_t)(_io_)) & 0x0FU));
 375:d:\project\9388\e1\2023_7_27\sr5e1_l9388_freeosek\modules\drivers\system\gpio\include\gpio.h **** 
 376:d:\project\9388\e1\2023_7_27\sr5e1_l9388_freeosek\modules\drivers\system\gpio\include\gpio.h **** /*===========================================================================*/
 377:d:\project\9388\e1\2023_7_27\sr5e1_l9388_freeosek\modules\drivers\system\gpio\include\gpio.h **** /* External declarations.                                                    */
 378:d:\project\9388\e1\2023_7_27\sr5e1_l9388_freeosek\modules\drivers\system\gpio\include\gpio.h **** /*===========================================================================*/
 379:d:\project\9388\e1\2023_7_27\sr5e1_l9388_freeosek\modules\drivers\system\gpio\include\gpio.h **** 
 380:d:\project\9388\e1\2023_7_27\sr5e1_l9388_freeosek\modules\drivers\system\gpio\include\gpio.h **** /* Export driver modules.*/
 381:d:\project\9388\e1\2023_7_27\sr5e1_l9388_freeosek\modules\drivers\system\gpio\include\gpio.h **** #include <gpio_dev.h>
 382:d:\project\9388\e1\2023_7_27\sr5e1_l9388_freeosek\modules\drivers\system\gpio\include\gpio.h **** 
 383:d:\project\9388\e1\2023_7_27\sr5e1_l9388_freeosek\modules\drivers\system\gpio\include\gpio.h **** #ifdef __cplusplus
 384:d:\project\9388\e1\2023_7_27\sr5e1_l9388_freeosek\modules\drivers\system\gpio\include\gpio.h **** extern "C" {
 385:d:\project\9388\e1\2023_7_27\sr5e1_l9388_freeosek\modules\drivers\system\gpio\include\gpio.h **** #endif
 386:d:\project\9388\e1\2023_7_27\sr5e1_l9388_freeosek\modules\drivers\system\gpio\include\gpio.h **** 
 387:d:\project\9388\e1\2023_7_27\sr5e1_l9388_freeosek\modules\drivers\system\gpio\include\gpio.h **** /**
 388:d:\project\9388\e1\2023_7_27\sr5e1_l9388_freeosek\modules\drivers\system\gpio\include\gpio.h ****  * @brief   Initializes GPIO instances.
 389:d:\project\9388\e1\2023_7_27\sr5e1_l9388_freeosek\modules\drivers\system\gpio\include\gpio.h ****  *
 390:d:\project\9388\e1\2023_7_27\sr5e1_l9388_freeosek\modules\drivers\system\gpio\include\gpio.h ****  * @api
 391:d:\project\9388\e1\2023_7_27\sr5e1_l9388_freeosek\modules\drivers\system\gpio\include\gpio.h ****  */
 392:d:\project\9388\e1\2023_7_27\sr5e1_l9388_freeosek\modules\drivers\system\gpio\include\gpio.h **** void gpio_init(void);
 393:d:\project\9388\e1\2023_7_27\sr5e1_l9388_freeosek\modules\drivers\system\gpio\include\gpio.h **** 
 394:d:\project\9388\e1\2023_7_27\sr5e1_l9388_freeosek\modules\drivers\system\gpio\include\gpio.h **** #ifdef __cplusplus
 395:d:\project\9388\e1\2023_7_27\sr5e1_l9388_freeosek\modules\drivers\system\gpio\include\gpio.h **** }
 396:d:\project\9388\e1\2023_7_27\sr5e1_l9388_freeosek\modules\drivers\system\gpio\include\gpio.h **** #endif
 397:d:\project\9388\e1\2023_7_27\sr5e1_l9388_freeosek\modules\drivers\system\gpio\include\gpio.h **** 
 398:d:\project\9388\e1\2023_7_27\sr5e1_l9388_freeosek\modules\drivers\system\gpio\include\gpio.h **** /*===========================================================================*/
 399:d:\project\9388\e1\2023_7_27\sr5e1_l9388_freeosek\modules\drivers\system\gpio\include\gpio.h **** /* Module inline functions.                                                  */
 400:d:\project\9388\e1\2023_7_27\sr5e1_l9388_freeosek\modules\drivers\system\gpio\include\gpio.h **** /*===========================================================================*/
 401:d:\project\9388\e1\2023_7_27\sr5e1_l9388_freeosek\modules\drivers\system\gpio\include\gpio.h **** 
 402:d:\project\9388\e1\2023_7_27\sr5e1_l9388_freeosek\modules\drivers\system\gpio\include\gpio.h **** /**
 403:d:\project\9388\e1\2023_7_27\sr5e1_l9388_freeosek\modules\drivers\system\gpio\include\gpio.h ****  * @brief   Sets Mode Register pin value.
 404:d:\project\9388\e1\2023_7_27\sr5e1_l9388_freeosek\modules\drivers\system\gpio\include\gpio.h ****  * @note    Sets Mode value of the pin related to the unique pin identifier.
 405:d:\project\9388\e1\2023_7_27\sr5e1_l9388_freeosek\modules\drivers\system\gpio\include\gpio.h ****  *
 406:d:\project\9388\e1\2023_7_27\sr5e1_l9388_freeosek\modules\drivers\system\gpio\include\gpio.h ****  * @param[in] io        unique pin identifier
 407:d:\project\9388\e1\2023_7_27\sr5e1_l9388_freeosek\modules\drivers\system\gpio\include\gpio.h ****  * @param[in] mode      mode value; it can be one of the following values:
 408:d:\project\9388\e1\2023_7_27\sr5e1_l9388_freeosek\modules\drivers\system\gpio\include\gpio.h ****  *            @arg @ref GPIO_MODER_INPUT
 409:d:\project\9388\e1\2023_7_27\sr5e1_l9388_freeosek\modules\drivers\system\gpio\include\gpio.h ****  *            @arg @ref GPIO_MODER_OUTPUT
 410:d:\project\9388\e1\2023_7_27\sr5e1_l9388_freeosek\modules\drivers\system\gpio\include\gpio.h ****  *            @arg @ref GPIO_MODER_ALTERNATE
 411:d:\project\9388\e1\2023_7_27\sr5e1_l9388_freeosek\modules\drivers\system\gpio\include\gpio.h ****  *            @arg @ref GPIO_MODER_ANALOG
 412:d:\project\9388\e1\2023_7_27\sr5e1_l9388_freeosek\modules\drivers\system\gpio\include\gpio.h ****  *
 413:d:\project\9388\e1\2023_7_27\sr5e1_l9388_freeosek\modules\drivers\system\gpio\include\gpio.h ****  * @api
 414:d:\project\9388\e1\2023_7_27\sr5e1_l9388_freeosek\modules\drivers\system\gpio\include\gpio.h ****  */
 415:d:\project\9388\e1\2023_7_27\sr5e1_l9388_freeosek\modules\drivers\system\gpio\include\gpio.h **** __STATIC_INLINE void gpio_set_pin_moder(gpio_io_t io,
 416:d:\project\9388\e1\2023_7_27\sr5e1_l9388_freeosek\modules\drivers\system\gpio\include\gpio.h ****                                         gpio_mode_t mode) {
  28              		.loc 1 416 59
  29              		.cfi_startproc
  30              		@ args = 0, pretend = 0, frame = 16
  31              		@ frame_needed = 0, uses_anonymous_args = 0
  32 0000 00B5     		push	{lr}
  33              		.cfi_def_cfa_offset 4
  34              		.cfi_offset 14, -4
  35 0002 85B0     		sub	sp, sp, #20
  36              		.cfi_def_cfa_offset 24
  37 0004 0346     		mov	r3, r0
  38 0006 0A46     		mov	r2, r1
  39 0008 ADF80630 		strh	r3, [sp, #6]	@ movhi
  40 000c 1346     		mov	r3, r2
  41 000e 8DF80530 		strb	r3, [sp, #5]
 417:d:\project\9388\e1\2023_7_27\sr5e1_l9388_freeosek\modules\drivers\system\gpio\include\gpio.h **** 
 418:d:\project\9388\e1\2023_7_27\sr5e1_l9388_freeosek\modules\drivers\system\gpio\include\gpio.h **** 
 419:d:\project\9388\e1\2023_7_27\sr5e1_l9388_freeosek\modules\drivers\system\gpio\include\gpio.h ****     gpio_port_t port = gpio_iounpack_port(io);
  42              		.loc 1 419 24
  43 0012 BDF80630 		ldrh	r3, [sp, #6]
  44 0016 1B09     		lsrs	r3, r3, #4
  45 0018 9BB2     		uxth	r3, r3
  46              		.loc 1 419 17
  47 001a 8DF80F30 		strb	r3, [sp, #15]
 420:d:\project\9388\e1\2023_7_27\sr5e1_l9388_freeosek\modules\drivers\system\gpio\include\gpio.h ****     gpio_pin_t pin   = gpio_iounpack_pin(io);
  48              		.loc 1 420 24
  49 001e BDF80630 		ldrh	r3, [sp, #6]	@ movhi
  50 0022 DBB2     		uxtb	r3, r3
  51              		.loc 1 420 16
  52 0024 03F00F03 		and	r3, r3, #15
  53 0028 8DF80E30 		strb	r3, [sp, #14]
 421:d:\project\9388\e1\2023_7_27\sr5e1_l9388_freeosek\modules\drivers\system\gpio\include\gpio.h ****     GPIO_TypeDef *p  = gpio_dev_get_port_reg_ptr(port);
  54              		.loc 1 421 24
  55 002c 9DF80F30 		ldrb	r3, [sp, #15]	@ zero_extendqisi2
  56 0030 1846     		mov	r0, r3
  57 0032 FFF7FEFF 		bl	gpio_dev_get_port_reg_ptr
  58 0036 0290     		str	r0, [sp, #8]
 422:d:\project\9388\e1\2023_7_27\sr5e1_l9388_freeosek\modules\drivers\system\gpio\include\gpio.h **** 
 423:d:\project\9388\e1\2023_7_27\sr5e1_l9388_freeosek\modules\drivers\system\gpio\include\gpio.h ****     if (p != NULL) {
  59              		.loc 1 423 8
  60 0038 029B     		ldr	r3, [sp, #8]
  61 003a 002B     		cmp	r3, #0
  62 003c 19D0     		beq	.L3
 424:d:\project\9388\e1\2023_7_27\sr5e1_l9388_freeosek\modules\drivers\system\gpio\include\gpio.h ****         p->MODER &= (uint32_t)(~(0x3U << (2 * pin)));
  63              		.loc 1 424 18
  64 003e 029B     		ldr	r3, [sp, #8]
  65 0040 1A68     		ldr	r2, [r3]
  66              		.loc 1 424 45
  67 0042 9DF80E30 		ldrb	r3, [sp, #14]	@ zero_extendqisi2
  68 0046 5B00     		lsls	r3, r3, #1
  69              		.loc 1 424 39
  70 0048 0321     		movs	r1, #3
  71 004a 01FA03F3 		lsl	r3, r1, r3
  72              		.loc 1 424 32
  73 004e DB43     		mvns	r3, r3
  74              		.loc 1 424 18
  75 0050 1A40     		ands	r2, r2, r3
  76 0052 029B     		ldr	r3, [sp, #8]
  77 0054 1A60     		str	r2, [r3]
 425:d:\project\9388\e1\2023_7_27\sr5e1_l9388_freeosek\modules\drivers\system\gpio\include\gpio.h ****         p->MODER |= (uint32_t)((mode & 0x3U) << (2 * pin));
  78              		.loc 1 425 18
  79 0056 029B     		ldr	r3, [sp, #8]
  80 0058 1A68     		ldr	r2, [r3]
  81              		.loc 1 425 38
  82 005a 9DF80530 		ldrb	r3, [sp, #5]	@ zero_extendqisi2
  83 005e 03F00301 		and	r1, r3, #3
  84              		.loc 1 425 52
  85 0062 9DF80E30 		ldrb	r3, [sp, #14]	@ zero_extendqisi2
  86 0066 5B00     		lsls	r3, r3, #1
  87              		.loc 1 425 46
  88 0068 01FA03F3 		lsl	r3, r1, r3
  89              		.loc 1 425 18
  90 006c 1A43     		orrs	r2, r2, r3
  91 006e 029B     		ldr	r3, [sp, #8]
  92 0070 1A60     		str	r2, [r3]
  93              	.L3:
 426:d:\project\9388\e1\2023_7_27\sr5e1_l9388_freeosek\modules\drivers\system\gpio\include\gpio.h ****     }
 427:d:\project\9388\e1\2023_7_27\sr5e1_l9388_freeosek\modules\drivers\system\gpio\include\gpio.h **** }
  94              		.loc 1 427 1
  95 0072 00BF     		nop
  96 0074 05B0     		add	sp, sp, #20
  97              		.cfi_def_cfa_offset 4
  98              		@ sp needed
  99 0076 5DF804FB 		ldr	pc, [sp], #4
 100              		.cfi_endproc
 101              	.LFE396:
 103 007a 00BF     		.section	.text.gpio_set_pin_otyper,"ax",%progbits
 104              		.align	1
 105              		.p2align 4,,15
 106              		.syntax unified
 107              		.thumb
 108              		.thumb_func
 110              	gpio_set_pin_otyper:
 111              	.LFB397:
 428:d:\project\9388\e1\2023_7_27\sr5e1_l9388_freeosek\modules\drivers\system\gpio\include\gpio.h **** 
 429:d:\project\9388\e1\2023_7_27\sr5e1_l9388_freeosek\modules\drivers\system\gpio\include\gpio.h **** /**
 430:d:\project\9388\e1\2023_7_27\sr5e1_l9388_freeosek\modules\drivers\system\gpio\include\gpio.h ****  * @brief   Sets Output Type pin value.
 431:d:\project\9388\e1\2023_7_27\sr5e1_l9388_freeosek\modules\drivers\system\gpio\include\gpio.h ****  * @note    Sets Output Type value of the pin related to the unique pin
 432:d:\project\9388\e1\2023_7_27\sr5e1_l9388_freeosek\modules\drivers\system\gpio\include\gpio.h ****  *          identifier.
 433:d:\project\9388\e1\2023_7_27\sr5e1_l9388_freeosek\modules\drivers\system\gpio\include\gpio.h ****  *
 434:d:\project\9388\e1\2023_7_27\sr5e1_l9388_freeosek\modules\drivers\system\gpio\include\gpio.h ****  * @param[in] io        unique pin identifier
 435:d:\project\9388\e1\2023_7_27\sr5e1_l9388_freeosek\modules\drivers\system\gpio\include\gpio.h ****  * @param[in] otype     output type value; it can be one of the following
 436:d:\project\9388\e1\2023_7_27\sr5e1_l9388_freeosek\modules\drivers\system\gpio\include\gpio.h ****  *                      values:
 437:d:\project\9388\e1\2023_7_27\sr5e1_l9388_freeosek\modules\drivers\system\gpio\include\gpio.h ****  *            @arg @ref GPIO_OTYPER_PUSHPULL
 438:d:\project\9388\e1\2023_7_27\sr5e1_l9388_freeosek\modules\drivers\system\gpio\include\gpio.h ****  *            @arg @ref GPIO_OTYPER_OPENDRAIN
 439:d:\project\9388\e1\2023_7_27\sr5e1_l9388_freeosek\modules\drivers\system\gpio\include\gpio.h ****  *
 440:d:\project\9388\e1\2023_7_27\sr5e1_l9388_freeosek\modules\drivers\system\gpio\include\gpio.h ****  * @api
 441:d:\project\9388\e1\2023_7_27\sr5e1_l9388_freeosek\modules\drivers\system\gpio\include\gpio.h ****  */
 442:d:\project\9388\e1\2023_7_27\sr5e1_l9388_freeosek\modules\drivers\system\gpio\include\gpio.h **** __STATIC_INLINE void gpio_set_pin_otyper(gpio_io_t io,
 443:d:\project\9388\e1\2023_7_27\sr5e1_l9388_freeosek\modules\drivers\system\gpio\include\gpio.h ****                                          gpio_otype_t otype) {
 112              		.loc 1 443 62
 113              		.cfi_startproc
 114              		@ args = 0, pretend = 0, frame = 16
 115              		@ frame_needed = 0, uses_anonymous_args = 0
 116 0000 00B5     		push	{lr}
 117              		.cfi_def_cfa_offset 4
 118              		.cfi_offset 14, -4
 119 0002 85B0     		sub	sp, sp, #20
 120              		.cfi_def_cfa_offset 24
 121 0004 0346     		mov	r3, r0
 122 0006 0A46     		mov	r2, r1
 123 0008 ADF80630 		strh	r3, [sp, #6]	@ movhi
 124 000c 1346     		mov	r3, r2
 125 000e 8DF80530 		strb	r3, [sp, #5]
 444:d:\project\9388\e1\2023_7_27\sr5e1_l9388_freeosek\modules\drivers\system\gpio\include\gpio.h **** 
 445:d:\project\9388\e1\2023_7_27\sr5e1_l9388_freeosek\modules\drivers\system\gpio\include\gpio.h ****     gpio_port_t port = gpio_iounpack_port(io);
 126              		.loc 1 445 24
 127 0012 BDF80630 		ldrh	r3, [sp, #6]
 128 0016 1B09     		lsrs	r3, r3, #4
 129 0018 9BB2     		uxth	r3, r3
 130              		.loc 1 445 17
 131 001a 8DF80F30 		strb	r3, [sp, #15]
 446:d:\project\9388\e1\2023_7_27\sr5e1_l9388_freeosek\modules\drivers\system\gpio\include\gpio.h ****     gpio_pin_t pin   = gpio_iounpack_pin(io);
 132              		.loc 1 446 24
 133 001e BDF80630 		ldrh	r3, [sp, #6]	@ movhi
 134 0022 DBB2     		uxtb	r3, r3
 135              		.loc 1 446 16
 136 0024 03F00F03 		and	r3, r3, #15
 137 0028 8DF80E30 		strb	r3, [sp, #14]
 447:d:\project\9388\e1\2023_7_27\sr5e1_l9388_freeosek\modules\drivers\system\gpio\include\gpio.h ****     GPIO_TypeDef *p  = gpio_dev_get_port_reg_ptr(port);
 138              		.loc 1 447 24
 139 002c 9DF80F30 		ldrb	r3, [sp, #15]	@ zero_extendqisi2
 140 0030 1846     		mov	r0, r3
 141 0032 FFF7FEFF 		bl	gpio_dev_get_port_reg_ptr
 142 0036 0290     		str	r0, [sp, #8]
 448:d:\project\9388\e1\2023_7_27\sr5e1_l9388_freeosek\modules\drivers\system\gpio\include\gpio.h **** 
 449:d:\project\9388\e1\2023_7_27\sr5e1_l9388_freeosek\modules\drivers\system\gpio\include\gpio.h ****     if (p != NULL) {
 143              		.loc 1 449 8
 144 0038 029B     		ldr	r3, [sp, #8]
 145 003a 002B     		cmp	r3, #0
 146 003c 17D0     		beq	.L6
 450:d:\project\9388\e1\2023_7_27\sr5e1_l9388_freeosek\modules\drivers\system\gpio\include\gpio.h ****         p->OTYPER &= (uint32_t)((~(0x1U << pin)));
 147              		.loc 1 450 19
 148 003e 029B     		ldr	r3, [sp, #8]
 149 0040 5A68     		ldr	r2, [r3, #4]
 150              		.loc 1 450 41
 151 0042 9DF80E30 		ldrb	r3, [sp, #14]	@ zero_extendqisi2
 152 0046 0121     		movs	r1, #1
 153 0048 01FA03F3 		lsl	r3, r1, r3
 154              		.loc 1 450 34
 155 004c DB43     		mvns	r3, r3
 156              		.loc 1 450 19
 157 004e 1A40     		ands	r2, r2, r3
 158 0050 029B     		ldr	r3, [sp, #8]
 159 0052 5A60     		str	r2, [r3, #4]
 451:d:\project\9388\e1\2023_7_27\sr5e1_l9388_freeosek\modules\drivers\system\gpio\include\gpio.h ****         p->OTYPER |= (uint32_t)((otype & 0x1U) << pin);
 160              		.loc 1 451 19
 161 0054 029B     		ldr	r3, [sp, #8]
 162 0056 5A68     		ldr	r2, [r3, #4]
 163              		.loc 1 451 40
 164 0058 9DF80530 		ldrb	r3, [sp, #5]	@ zero_extendqisi2
 165 005c 03F00101 		and	r1, r3, #1
 166              		.loc 1 451 22
 167 0060 9DF80E30 		ldrb	r3, [sp, #14]	@ zero_extendqisi2
 168              		.loc 1 451 48
 169 0064 01FA03F3 		lsl	r3, r1, r3
 170              		.loc 1 451 19
 171 0068 1A43     		orrs	r2, r2, r3
 172 006a 029B     		ldr	r3, [sp, #8]
 173 006c 5A60     		str	r2, [r3, #4]
 174              	.L6:
 452:d:\project\9388\e1\2023_7_27\sr5e1_l9388_freeosek\modules\drivers\system\gpio\include\gpio.h ****     }
 453:d:\project\9388\e1\2023_7_27\sr5e1_l9388_freeosek\modules\drivers\system\gpio\include\gpio.h **** }
 175              		.loc 1 453 1
 176 006e 00BF     		nop
 177 0070 05B0     		add	sp, sp, #20
 178              		.cfi_def_cfa_offset 4
 179              		@ sp needed
 180 0072 5DF804FB 		ldr	pc, [sp], #4
 181              		.cfi_endproc
 182              	.LFE397:
 184 0076 00BF     		.section	.text.gpio_set_pin_ospeedr,"ax",%progbits
 185              		.align	1
 186              		.p2align 4,,15
 187              		.syntax unified
 188              		.thumb
 189              		.thumb_func
 191              	gpio_set_pin_ospeedr:
 192              	.LFB398:
 454:d:\project\9388\e1\2023_7_27\sr5e1_l9388_freeosek\modules\drivers\system\gpio\include\gpio.h **** 
 455:d:\project\9388\e1\2023_7_27\sr5e1_l9388_freeosek\modules\drivers\system\gpio\include\gpio.h **** /**
 456:d:\project\9388\e1\2023_7_27\sr5e1_l9388_freeosek\modules\drivers\system\gpio\include\gpio.h ****  * @brief   Sets Output Speed pin value.
 457:d:\project\9388\e1\2023_7_27\sr5e1_l9388_freeosek\modules\drivers\system\gpio\include\gpio.h ****  * @note    Sets Output Speed value of the pin related to the unique pin
 458:d:\project\9388\e1\2023_7_27\sr5e1_l9388_freeosek\modules\drivers\system\gpio\include\gpio.h ****  *          identifier.
 459:d:\project\9388\e1\2023_7_27\sr5e1_l9388_freeosek\modules\drivers\system\gpio\include\gpio.h ****  *
 460:d:\project\9388\e1\2023_7_27\sr5e1_l9388_freeosek\modules\drivers\system\gpio\include\gpio.h ****  * @param[in] io        unique pin identifier
 461:d:\project\9388\e1\2023_7_27\sr5e1_l9388_freeosek\modules\drivers\system\gpio\include\gpio.h ****  * @param[in] ospeed    output speed value; it can be one of the following
 462:d:\project\9388\e1\2023_7_27\sr5e1_l9388_freeosek\modules\drivers\system\gpio\include\gpio.h ****  *                      values:
 463:d:\project\9388\e1\2023_7_27\sr5e1_l9388_freeosek\modules\drivers\system\gpio\include\gpio.h ****  *            @arg @ref GPIO_OSPEEDR_LOW
 464:d:\project\9388\e1\2023_7_27\sr5e1_l9388_freeosek\modules\drivers\system\gpio\include\gpio.h ****  *            @arg @ref GPIO_OSPEEDR_MEDIUM
 465:d:\project\9388\e1\2023_7_27\sr5e1_l9388_freeosek\modules\drivers\system\gpio\include\gpio.h ****  *            @arg @ref GPIO_OSPEEDR_HIGH
 466:d:\project\9388\e1\2023_7_27\sr5e1_l9388_freeosek\modules\drivers\system\gpio\include\gpio.h ****  *            @arg @ref GPIO_OSPEEDR_VERYHIGH
 467:d:\project\9388\e1\2023_7_27\sr5e1_l9388_freeosek\modules\drivers\system\gpio\include\gpio.h ****  *
 468:d:\project\9388\e1\2023_7_27\sr5e1_l9388_freeosek\modules\drivers\system\gpio\include\gpio.h ****  * @api
 469:d:\project\9388\e1\2023_7_27\sr5e1_l9388_freeosek\modules\drivers\system\gpio\include\gpio.h ****  */
 470:d:\project\9388\e1\2023_7_27\sr5e1_l9388_freeosek\modules\drivers\system\gpio\include\gpio.h **** __STATIC_INLINE void gpio_set_pin_ospeedr(gpio_io_t io,
 471:d:\project\9388\e1\2023_7_27\sr5e1_l9388_freeosek\modules\drivers\system\gpio\include\gpio.h ****                                           gpio_ospeed_t ospeed) {
 193              		.loc 1 471 65
 194              		.cfi_startproc
 195              		@ args = 0, pretend = 0, frame = 16
 196              		@ frame_needed = 0, uses_anonymous_args = 0
 197 0000 00B5     		push	{lr}
 198              		.cfi_def_cfa_offset 4
 199              		.cfi_offset 14, -4
 200 0002 85B0     		sub	sp, sp, #20
 201              		.cfi_def_cfa_offset 24
 202 0004 0346     		mov	r3, r0
 203 0006 0A46     		mov	r2, r1
 204 0008 ADF80630 		strh	r3, [sp, #6]	@ movhi
 205 000c 1346     		mov	r3, r2
 206 000e 8DF80530 		strb	r3, [sp, #5]
 472:d:\project\9388\e1\2023_7_27\sr5e1_l9388_freeosek\modules\drivers\system\gpio\include\gpio.h **** 
 473:d:\project\9388\e1\2023_7_27\sr5e1_l9388_freeosek\modules\drivers\system\gpio\include\gpio.h ****     gpio_port_t port = gpio_iounpack_port(io);
 207              		.loc 1 473 24
 208 0012 BDF80630 		ldrh	r3, [sp, #6]
 209 0016 1B09     		lsrs	r3, r3, #4
 210 0018 9BB2     		uxth	r3, r3
 211              		.loc 1 473 17
 212 001a 8DF80F30 		strb	r3, [sp, #15]
 474:d:\project\9388\e1\2023_7_27\sr5e1_l9388_freeosek\modules\drivers\system\gpio\include\gpio.h ****     gpio_pin_t pin   = gpio_iounpack_pin(io);
 213              		.loc 1 474 24
 214 001e BDF80630 		ldrh	r3, [sp, #6]	@ movhi
 215 0022 DBB2     		uxtb	r3, r3
 216              		.loc 1 474 16
 217 0024 03F00F03 		and	r3, r3, #15
 218 0028 8DF80E30 		strb	r3, [sp, #14]
 475:d:\project\9388\e1\2023_7_27\sr5e1_l9388_freeosek\modules\drivers\system\gpio\include\gpio.h ****     GPIO_TypeDef *p  = gpio_dev_get_port_reg_ptr(port);
 219              		.loc 1 475 24
 220 002c 9DF80F30 		ldrb	r3, [sp, #15]	@ zero_extendqisi2
 221 0030 1846     		mov	r0, r3
 222 0032 FFF7FEFF 		bl	gpio_dev_get_port_reg_ptr
 223 0036 0290     		str	r0, [sp, #8]
 476:d:\project\9388\e1\2023_7_27\sr5e1_l9388_freeosek\modules\drivers\system\gpio\include\gpio.h **** 
 477:d:\project\9388\e1\2023_7_27\sr5e1_l9388_freeosek\modules\drivers\system\gpio\include\gpio.h ****     if (p != NULL) {
 224              		.loc 1 477 8
 225 0038 029B     		ldr	r3, [sp, #8]
 226 003a 002B     		cmp	r3, #0
 227 003c 19D0     		beq	.L9
 478:d:\project\9388\e1\2023_7_27\sr5e1_l9388_freeosek\modules\drivers\system\gpio\include\gpio.h ****         p->OSPEEDR &= (uint32_t)(~(0x3U << (2 * pin)));
 228              		.loc 1 478 20
 229 003e 029B     		ldr	r3, [sp, #8]
 230 0040 9A68     		ldr	r2, [r3, #8]
 231              		.loc 1 478 47
 232 0042 9DF80E30 		ldrb	r3, [sp, #14]	@ zero_extendqisi2
 233 0046 5B00     		lsls	r3, r3, #1
 234              		.loc 1 478 41
 235 0048 0321     		movs	r1, #3
 236 004a 01FA03F3 		lsl	r3, r1, r3
 237              		.loc 1 478 34
 238 004e DB43     		mvns	r3, r3
 239              		.loc 1 478 20
 240 0050 1A40     		ands	r2, r2, r3
 241 0052 029B     		ldr	r3, [sp, #8]
 242 0054 9A60     		str	r2, [r3, #8]
 479:d:\project\9388\e1\2023_7_27\sr5e1_l9388_freeosek\modules\drivers\system\gpio\include\gpio.h ****         p->OSPEEDR |= (uint32_t)((ospeed & 0x3U) << (2 * pin));
 243              		.loc 1 479 20
 244 0056 029B     		ldr	r3, [sp, #8]
 245 0058 9A68     		ldr	r2, [r3, #8]
 246              		.loc 1 479 42
 247 005a 9DF80530 		ldrb	r3, [sp, #5]	@ zero_extendqisi2
 248 005e 03F00301 		and	r1, r3, #3
 249              		.loc 1 479 56
 250 0062 9DF80E30 		ldrb	r3, [sp, #14]	@ zero_extendqisi2
 251 0066 5B00     		lsls	r3, r3, #1
 252              		.loc 1 479 50
 253 0068 01FA03F3 		lsl	r3, r1, r3
 254              		.loc 1 479 20
 255 006c 1A43     		orrs	r2, r2, r3
 256 006e 029B     		ldr	r3, [sp, #8]
 257 0070 9A60     		str	r2, [r3, #8]
 258              	.L9:
 480:d:\project\9388\e1\2023_7_27\sr5e1_l9388_freeosek\modules\drivers\system\gpio\include\gpio.h ****     }
 481:d:\project\9388\e1\2023_7_27\sr5e1_l9388_freeosek\modules\drivers\system\gpio\include\gpio.h **** }
 259              		.loc 1 481 1
 260 0072 00BF     		nop
 261 0074 05B0     		add	sp, sp, #20
 262              		.cfi_def_cfa_offset 4
 263              		@ sp needed
 264 0076 5DF804FB 		ldr	pc, [sp], #4
 265              		.cfi_endproc
 266              	.LFE398:
 268 007a 00BF     		.section	.text.gpio_set_pin_pupdr,"ax",%progbits
 269              		.align	1
 270              		.p2align 4,,15
 271              		.syntax unified
 272              		.thumb
 273              		.thumb_func
 275              	gpio_set_pin_pupdr:
 276              	.LFB399:
 482:d:\project\9388\e1\2023_7_27\sr5e1_l9388_freeosek\modules\drivers\system\gpio\include\gpio.h **** 
 483:d:\project\9388\e1\2023_7_27\sr5e1_l9388_freeosek\modules\drivers\system\gpio\include\gpio.h **** /**
 484:d:\project\9388\e1\2023_7_27\sr5e1_l9388_freeosek\modules\drivers\system\gpio\include\gpio.h ****  * @brief   Sets Pull-up/Pull-down pin value.
 485:d:\project\9388\e1\2023_7_27\sr5e1_l9388_freeosek\modules\drivers\system\gpio\include\gpio.h ****  * @note    Sets Pull-up/Pull-down value of the pin related to the unique pin
 486:d:\project\9388\e1\2023_7_27\sr5e1_l9388_freeosek\modules\drivers\system\gpio\include\gpio.h ****  *          identifier.
 487:d:\project\9388\e1\2023_7_27\sr5e1_l9388_freeosek\modules\drivers\system\gpio\include\gpio.h ****  *
 488:d:\project\9388\e1\2023_7_27\sr5e1_l9388_freeosek\modules\drivers\system\gpio\include\gpio.h ****  * @param[in] io        unique pin identifier
 489:d:\project\9388\e1\2023_7_27\sr5e1_l9388_freeosek\modules\drivers\system\gpio\include\gpio.h ****  * @param[in] pupd      pull-up/pull-down value; it can be one of the following
 490:d:\project\9388\e1\2023_7_27\sr5e1_l9388_freeosek\modules\drivers\system\gpio\include\gpio.h ****  *                      values:
 491:d:\project\9388\e1\2023_7_27\sr5e1_l9388_freeosek\modules\drivers\system\gpio\include\gpio.h ****  *            @arg @ref GPIO_PUPDR_FLOATING
 492:d:\project\9388\e1\2023_7_27\sr5e1_l9388_freeosek\modules\drivers\system\gpio\include\gpio.h ****  *            @arg @ref GPIO_PUPDR_PULLUP
 493:d:\project\9388\e1\2023_7_27\sr5e1_l9388_freeosek\modules\drivers\system\gpio\include\gpio.h ****  *            @arg @ref GPIO_PUPDR_PULLDOWN
 494:d:\project\9388\e1\2023_7_27\sr5e1_l9388_freeosek\modules\drivers\system\gpio\include\gpio.h ****  *
 495:d:\project\9388\e1\2023_7_27\sr5e1_l9388_freeosek\modules\drivers\system\gpio\include\gpio.h ****  * @api
 496:d:\project\9388\e1\2023_7_27\sr5e1_l9388_freeosek\modules\drivers\system\gpio\include\gpio.h ****  */
 497:d:\project\9388\e1\2023_7_27\sr5e1_l9388_freeosek\modules\drivers\system\gpio\include\gpio.h **** __STATIC_INLINE void gpio_set_pin_pupdr(gpio_io_t io,
 498:d:\project\9388\e1\2023_7_27\sr5e1_l9388_freeosek\modules\drivers\system\gpio\include\gpio.h ****                                         gpio_pupd_t pupd) {
 277              		.loc 1 498 59
 278              		.cfi_startproc
 279              		@ args = 0, pretend = 0, frame = 16
 280              		@ frame_needed = 0, uses_anonymous_args = 0
 281 0000 00B5     		push	{lr}
 282              		.cfi_def_cfa_offset 4
 283              		.cfi_offset 14, -4
 284 0002 85B0     		sub	sp, sp, #20
 285              		.cfi_def_cfa_offset 24
 286 0004 0346     		mov	r3, r0
 287 0006 0A46     		mov	r2, r1
 288 0008 ADF80630 		strh	r3, [sp, #6]	@ movhi
 289 000c 1346     		mov	r3, r2
 290 000e 8DF80530 		strb	r3, [sp, #5]
 499:d:\project\9388\e1\2023_7_27\sr5e1_l9388_freeosek\modules\drivers\system\gpio\include\gpio.h **** 
 500:d:\project\9388\e1\2023_7_27\sr5e1_l9388_freeosek\modules\drivers\system\gpio\include\gpio.h ****     gpio_port_t port = gpio_iounpack_port(io);
 291              		.loc 1 500 24
 292 0012 BDF80630 		ldrh	r3, [sp, #6]
 293 0016 1B09     		lsrs	r3, r3, #4
 294 0018 9BB2     		uxth	r3, r3
 295              		.loc 1 500 17
 296 001a 8DF80F30 		strb	r3, [sp, #15]
 501:d:\project\9388\e1\2023_7_27\sr5e1_l9388_freeosek\modules\drivers\system\gpio\include\gpio.h ****     gpio_pin_t pin   = gpio_iounpack_pin(io);
 297              		.loc 1 501 24
 298 001e BDF80630 		ldrh	r3, [sp, #6]	@ movhi
 299 0022 DBB2     		uxtb	r3, r3
 300              		.loc 1 501 16
 301 0024 03F00F03 		and	r3, r3, #15
 302 0028 8DF80E30 		strb	r3, [sp, #14]
 502:d:\project\9388\e1\2023_7_27\sr5e1_l9388_freeosek\modules\drivers\system\gpio\include\gpio.h ****     GPIO_TypeDef *p  = gpio_dev_get_port_reg_ptr(port);
 303              		.loc 1 502 24
 304 002c 9DF80F30 		ldrb	r3, [sp, #15]	@ zero_extendqisi2
 305 0030 1846     		mov	r0, r3
 306 0032 FFF7FEFF 		bl	gpio_dev_get_port_reg_ptr
 307 0036 0290     		str	r0, [sp, #8]
 503:d:\project\9388\e1\2023_7_27\sr5e1_l9388_freeosek\modules\drivers\system\gpio\include\gpio.h **** 
 504:d:\project\9388\e1\2023_7_27\sr5e1_l9388_freeosek\modules\drivers\system\gpio\include\gpio.h ****     if (p != NULL) {
 308              		.loc 1 504 8
 309 0038 029B     		ldr	r3, [sp, #8]
 310 003a 002B     		cmp	r3, #0
 311 003c 19D0     		beq	.L12
 505:d:\project\9388\e1\2023_7_27\sr5e1_l9388_freeosek\modules\drivers\system\gpio\include\gpio.h ****         p->PUPDR &= (uint32_t)((~(0x3U << (2 * pin))));
 312              		.loc 1 505 18
 313 003e 029B     		ldr	r3, [sp, #8]
 314 0040 DA68     		ldr	r2, [r3, #12]
 315              		.loc 1 505 46
 316 0042 9DF80E30 		ldrb	r3, [sp, #14]	@ zero_extendqisi2
 317 0046 5B00     		lsls	r3, r3, #1
 318              		.loc 1 505 40
 319 0048 0321     		movs	r1, #3
 320 004a 01FA03F3 		lsl	r3, r1, r3
 321              		.loc 1 505 33
 322 004e DB43     		mvns	r3, r3
 323              		.loc 1 505 18
 324 0050 1A40     		ands	r2, r2, r3
 325 0052 029B     		ldr	r3, [sp, #8]
 326 0054 DA60     		str	r2, [r3, #12]
 506:d:\project\9388\e1\2023_7_27\sr5e1_l9388_freeosek\modules\drivers\system\gpio\include\gpio.h ****         p->PUPDR |= (uint32_t)((pupd & 0x3U) << (2 * pin));
 327              		.loc 1 506 18
 328 0056 029B     		ldr	r3, [sp, #8]
 329 0058 DA68     		ldr	r2, [r3, #12]
 330              		.loc 1 506 38
 331 005a 9DF80530 		ldrb	r3, [sp, #5]	@ zero_extendqisi2
 332 005e 03F00301 		and	r1, r3, #3
 333              		.loc 1 506 52
 334 0062 9DF80E30 		ldrb	r3, [sp, #14]	@ zero_extendqisi2
 335 0066 5B00     		lsls	r3, r3, #1
 336              		.loc 1 506 46
 337 0068 01FA03F3 		lsl	r3, r1, r3
 338              		.loc 1 506 18
 339 006c 1A43     		orrs	r2, r2, r3
 340 006e 029B     		ldr	r3, [sp, #8]
 341 0070 DA60     		str	r2, [r3, #12]
 342              	.L12:
 507:d:\project\9388\e1\2023_7_27\sr5e1_l9388_freeosek\modules\drivers\system\gpio\include\gpio.h ****     }
 508:d:\project\9388\e1\2023_7_27\sr5e1_l9388_freeosek\modules\drivers\system\gpio\include\gpio.h **** }
 343              		.loc 1 508 1
 344 0072 00BF     		nop
 345 0074 05B0     		add	sp, sp, #20
 346              		.cfi_def_cfa_offset 4
 347              		@ sp needed
 348 0076 5DF804FB 		ldr	pc, [sp], #4
 349              		.cfi_endproc
 350              	.LFE399:
 352 007a 00BF     		.section	.text.gpio_set_pin_afr,"ax",%progbits
 353              		.align	1
 354              		.p2align 4,,15
 355              		.syntax unified
 356              		.thumb
 357              		.thumb_func
 359              	gpio_set_pin_afr:
 360              	.LFB401:
 509:d:\project\9388\e1\2023_7_27\sr5e1_l9388_freeosek\modules\drivers\system\gpio\include\gpio.h **** 
 510:d:\project\9388\e1\2023_7_27\sr5e1_l9388_freeosek\modules\drivers\system\gpio\include\gpio.h **** /**
 511:d:\project\9388\e1\2023_7_27\sr5e1_l9388_freeosek\modules\drivers\system\gpio\include\gpio.h ****  * @brief   Sets Output Data pin value.
 512:d:\project\9388\e1\2023_7_27\sr5e1_l9388_freeosek\modules\drivers\system\gpio\include\gpio.h ****  * @note    Sets Output Data value of the pin related to the unique pin
 513:d:\project\9388\e1\2023_7_27\sr5e1_l9388_freeosek\modules\drivers\system\gpio\include\gpio.h ****  *          identifier.
 514:d:\project\9388\e1\2023_7_27\sr5e1_l9388_freeosek\modules\drivers\system\gpio\include\gpio.h ****  *
 515:d:\project\9388\e1\2023_7_27\sr5e1_l9388_freeosek\modules\drivers\system\gpio\include\gpio.h ****  * @param[in] io        unique pin identifier
 516:d:\project\9388\e1\2023_7_27\sr5e1_l9388_freeosek\modules\drivers\system\gpio\include\gpio.h ****  * @param[in] od        output data value; it can be one of the following
 517:d:\project\9388\e1\2023_7_27\sr5e1_l9388_freeosek\modules\drivers\system\gpio\include\gpio.h ****  *                      values:
 518:d:\project\9388\e1\2023_7_27\sr5e1_l9388_freeosek\modules\drivers\system\gpio\include\gpio.h ****  *            @arg @ref GPIO_ODR_LOW
 519:d:\project\9388\e1\2023_7_27\sr5e1_l9388_freeosek\modules\drivers\system\gpio\include\gpio.h ****  *            @arg @ref GPIO_ODR_HIGH
 520:d:\project\9388\e1\2023_7_27\sr5e1_l9388_freeosek\modules\drivers\system\gpio\include\gpio.h ****  *
 521:d:\project\9388\e1\2023_7_27\sr5e1_l9388_freeosek\modules\drivers\system\gpio\include\gpio.h ****  * @api
 522:d:\project\9388\e1\2023_7_27\sr5e1_l9388_freeosek\modules\drivers\system\gpio\include\gpio.h ****  */
 523:d:\project\9388\e1\2023_7_27\sr5e1_l9388_freeosek\modules\drivers\system\gpio\include\gpio.h **** __STATIC_INLINE void gpio_set_pin_odr(gpio_io_t io,
 524:d:\project\9388\e1\2023_7_27\sr5e1_l9388_freeosek\modules\drivers\system\gpio\include\gpio.h ****                                       gpio_od_t od) {
 525:d:\project\9388\e1\2023_7_27\sr5e1_l9388_freeosek\modules\drivers\system\gpio\include\gpio.h **** 
 526:d:\project\9388\e1\2023_7_27\sr5e1_l9388_freeosek\modules\drivers\system\gpio\include\gpio.h ****     gpio_port_t port = gpio_iounpack_port(io);
 527:d:\project\9388\e1\2023_7_27\sr5e1_l9388_freeosek\modules\drivers\system\gpio\include\gpio.h ****     gpio_pin_t pin   = gpio_iounpack_pin(io);
 528:d:\project\9388\e1\2023_7_27\sr5e1_l9388_freeosek\modules\drivers\system\gpio\include\gpio.h ****     GPIO_TypeDef *p  = gpio_dev_get_port_reg_ptr(port);
 529:d:\project\9388\e1\2023_7_27\sr5e1_l9388_freeosek\modules\drivers\system\gpio\include\gpio.h **** 
 530:d:\project\9388\e1\2023_7_27\sr5e1_l9388_freeosek\modules\drivers\system\gpio\include\gpio.h ****     if (p != NULL) {
 531:d:\project\9388\e1\2023_7_27\sr5e1_l9388_freeosek\modules\drivers\system\gpio\include\gpio.h ****         p->ODR &= (uint32_t)((~(0x1U << pin)));
 532:d:\project\9388\e1\2023_7_27\sr5e1_l9388_freeosek\modules\drivers\system\gpio\include\gpio.h ****         p->ODR |= (uint32_t)((od & 0x1U) << pin);
 533:d:\project\9388\e1\2023_7_27\sr5e1_l9388_freeosek\modules\drivers\system\gpio\include\gpio.h ****     }
 534:d:\project\9388\e1\2023_7_27\sr5e1_l9388_freeosek\modules\drivers\system\gpio\include\gpio.h **** }
 535:d:\project\9388\e1\2023_7_27\sr5e1_l9388_freeosek\modules\drivers\system\gpio\include\gpio.h **** 
 536:d:\project\9388\e1\2023_7_27\sr5e1_l9388_freeosek\modules\drivers\system\gpio\include\gpio.h **** /**
 537:d:\project\9388\e1\2023_7_27\sr5e1_l9388_freeosek\modules\drivers\system\gpio\include\gpio.h ****  * @brief   Sets Alternate Function pin value.
 538:d:\project\9388\e1\2023_7_27\sr5e1_l9388_freeosek\modules\drivers\system\gpio\include\gpio.h ****  * @note    Sets Alternate Function value of the pin related to the unique pin
 539:d:\project\9388\e1\2023_7_27\sr5e1_l9388_freeosek\modules\drivers\system\gpio\include\gpio.h ****  *          identifier.
 540:d:\project\9388\e1\2023_7_27\sr5e1_l9388_freeosek\modules\drivers\system\gpio\include\gpio.h ****  *
 541:d:\project\9388\e1\2023_7_27\sr5e1_l9388_freeosek\modules\drivers\system\gpio\include\gpio.h ****  * @param[in] io        unique pin identifier
 542:d:\project\9388\e1\2023_7_27\sr5e1_l9388_freeosek\modules\drivers\system\gpio\include\gpio.h ****  * @param[in] af        alternate function value
 543:d:\project\9388\e1\2023_7_27\sr5e1_l9388_freeosek\modules\drivers\system\gpio\include\gpio.h ****  *
 544:d:\project\9388\e1\2023_7_27\sr5e1_l9388_freeosek\modules\drivers\system\gpio\include\gpio.h ****  * @api
 545:d:\project\9388\e1\2023_7_27\sr5e1_l9388_freeosek\modules\drivers\system\gpio\include\gpio.h ****  */
 546:d:\project\9388\e1\2023_7_27\sr5e1_l9388_freeosek\modules\drivers\system\gpio\include\gpio.h **** __STATIC_INLINE void gpio_set_pin_afr(gpio_io_t io,
 547:d:\project\9388\e1\2023_7_27\sr5e1_l9388_freeosek\modules\drivers\system\gpio\include\gpio.h ****                                       gpio_af_t af) {
 361              		.loc 1 547 53
 362              		.cfi_startproc
 363              		@ args = 0, pretend = 0, frame = 16
 364              		@ frame_needed = 0, uses_anonymous_args = 0
 365 0000 00B5     		push	{lr}
 366              		.cfi_def_cfa_offset 4
 367              		.cfi_offset 14, -4
 368 0002 85B0     		sub	sp, sp, #20
 369              		.cfi_def_cfa_offset 24
 370 0004 0346     		mov	r3, r0
 371 0006 0A46     		mov	r2, r1
 372 0008 ADF80630 		strh	r3, [sp, #6]	@ movhi
 373 000c 1346     		mov	r3, r2
 374 000e 8DF80530 		strb	r3, [sp, #5]
 548:d:\project\9388\e1\2023_7_27\sr5e1_l9388_freeosek\modules\drivers\system\gpio\include\gpio.h **** 
 549:d:\project\9388\e1\2023_7_27\sr5e1_l9388_freeosek\modules\drivers\system\gpio\include\gpio.h ****     gpio_port_t port = gpio_iounpack_port(io);
 375              		.loc 1 549 24
 376 0012 BDF80630 		ldrh	r3, [sp, #6]
 377 0016 1B09     		lsrs	r3, r3, #4
 378 0018 9BB2     		uxth	r3, r3
 379              		.loc 1 549 17
 380 001a 8DF80F30 		strb	r3, [sp, #15]
 550:d:\project\9388\e1\2023_7_27\sr5e1_l9388_freeosek\modules\drivers\system\gpio\include\gpio.h ****     gpio_pin_t pin   = gpio_iounpack_pin(io);
 381              		.loc 1 550 24
 382 001e BDF80630 		ldrh	r3, [sp, #6]	@ movhi
 383 0022 DBB2     		uxtb	r3, r3
 384              		.loc 1 550 16
 385 0024 03F00F03 		and	r3, r3, #15
 386 0028 8DF80E30 		strb	r3, [sp, #14]
 551:d:\project\9388\e1\2023_7_27\sr5e1_l9388_freeosek\modules\drivers\system\gpio\include\gpio.h ****     GPIO_TypeDef *p  = gpio_dev_get_port_reg_ptr(port);
 387              		.loc 1 551 24
 388 002c 9DF80F30 		ldrb	r3, [sp, #15]	@ zero_extendqisi2
 389 0030 1846     		mov	r0, r3
 390 0032 FFF7FEFF 		bl	gpio_dev_get_port_reg_ptr
 391 0036 0290     		str	r0, [sp, #8]
 552:d:\project\9388\e1\2023_7_27\sr5e1_l9388_freeosek\modules\drivers\system\gpio\include\gpio.h **** 
 553:d:\project\9388\e1\2023_7_27\sr5e1_l9388_freeosek\modules\drivers\system\gpio\include\gpio.h ****     if (p != NULL) {
 392              		.loc 1 553 8
 393 0038 029B     		ldr	r3, [sp, #8]
 394 003a 002B     		cmp	r3, #0
 395 003c 3AD0     		beq	.L16
 554:d:\project\9388\e1\2023_7_27\sr5e1_l9388_freeosek\modules\drivers\system\gpio\include\gpio.h ****         if (pin < 8U) {
 396              		.loc 1 554 12
 397 003e 9DF80E30 		ldrb	r3, [sp, #14]	@ zero_extendqisi2
 398 0042 072B     		cmp	r3, #7
 399 0044 1AD8     		bhi	.L15
 555:d:\project\9388\e1\2023_7_27\sr5e1_l9388_freeosek\modules\drivers\system\gpio\include\gpio.h ****             p->AFR[0] &= (uint32_t)(~(0xFU << (4 * pin)));
 400              		.loc 1 555 23
 401 0046 029B     		ldr	r3, [sp, #8]
 402 0048 1A6A     		ldr	r2, [r3, #32]
 403              		.loc 1 555 50
 404 004a 9DF80E30 		ldrb	r3, [sp, #14]	@ zero_extendqisi2
 405 004e 9B00     		lsls	r3, r3, #2
 406              		.loc 1 555 44
 407 0050 0F21     		movs	r1, #15
 408 0052 01FA03F3 		lsl	r3, r1, r3
 409              		.loc 1 555 37
 410 0056 DB43     		mvns	r3, r3
 411              		.loc 1 555 23
 412 0058 1A40     		ands	r2, r2, r3
 413 005a 029B     		ldr	r3, [sp, #8]
 414 005c 1A62     		str	r2, [r3, #32]
 556:d:\project\9388\e1\2023_7_27\sr5e1_l9388_freeosek\modules\drivers\system\gpio\include\gpio.h ****             p->AFR[0] |= (uint32_t)((af & 0xFU) << (4 * pin));
 415              		.loc 1 556 23
 416 005e 029B     		ldr	r3, [sp, #8]
 417 0060 1A6A     		ldr	r2, [r3, #32]
 418              		.loc 1 556 41
 419 0062 9DF80530 		ldrb	r3, [sp, #5]	@ zero_extendqisi2
 420 0066 03F00F01 		and	r1, r3, #15
 421              		.loc 1 556 55
 422 006a 9DF80E30 		ldrb	r3, [sp, #14]	@ zero_extendqisi2
 423 006e 9B00     		lsls	r3, r3, #2
 424              		.loc 1 556 49
 425 0070 01FA03F3 		lsl	r3, r1, r3
 426              		.loc 1 556 23
 427 0074 1A43     		orrs	r2, r2, r3
 428 0076 029B     		ldr	r3, [sp, #8]
 429 0078 1A62     		str	r2, [r3, #32]
 557:d:\project\9388\e1\2023_7_27\sr5e1_l9388_freeosek\modules\drivers\system\gpio\include\gpio.h ****         } else {
 558:d:\project\9388\e1\2023_7_27\sr5e1_l9388_freeosek\modules\drivers\system\gpio\include\gpio.h ****             p->AFR[1] &= (uint32_t)(~(0xFU << (4 * (pin - 8))));
 559:d:\project\9388\e1\2023_7_27\sr5e1_l9388_freeosek\modules\drivers\system\gpio\include\gpio.h ****             p->AFR[1] |= (uint32_t)((af & 0xFU) << (4 * (pin - 8)));
 560:d:\project\9388\e1\2023_7_27\sr5e1_l9388_freeosek\modules\drivers\system\gpio\include\gpio.h ****         }
 561:d:\project\9388\e1\2023_7_27\sr5e1_l9388_freeosek\modules\drivers\system\gpio\include\gpio.h ****     }
 562:d:\project\9388\e1\2023_7_27\sr5e1_l9388_freeosek\modules\drivers\system\gpio\include\gpio.h **** }
 430              		.loc 1 562 1
 431 007a 1BE0     		b	.L16
 432              	.L15:
 558:d:\project\9388\e1\2023_7_27\sr5e1_l9388_freeosek\modules\drivers\system\gpio\include\gpio.h ****             p->AFR[1] |= (uint32_t)((af & 0xFU) << (4 * (pin - 8)));
 433              		.loc 1 558 23
 434 007c 029B     		ldr	r3, [sp, #8]
 435 007e 5A6A     		ldr	r2, [r3, #36]
 558:d:\project\9388\e1\2023_7_27\sr5e1_l9388_freeosek\modules\drivers\system\gpio\include\gpio.h ****             p->AFR[1] |= (uint32_t)((af & 0xFU) << (4 * (pin - 8)));
 436              		.loc 1 558 57
 437 0080 9DF80E30 		ldrb	r3, [sp, #14]	@ zero_extendqisi2
 438 0084 083B     		subs	r3, r3, #8
 558:d:\project\9388\e1\2023_7_27\sr5e1_l9388_freeosek\modules\drivers\system\gpio\include\gpio.h ****             p->AFR[1] |= (uint32_t)((af & 0xFU) << (4 * (pin - 8)));
 439              		.loc 1 558 50
 440 0086 9B00     		lsls	r3, r3, #2
 558:d:\project\9388\e1\2023_7_27\sr5e1_l9388_freeosek\modules\drivers\system\gpio\include\gpio.h ****             p->AFR[1] |= (uint32_t)((af & 0xFU) << (4 * (pin - 8)));
 441              		.loc 1 558 44
 442 0088 0F21     		movs	r1, #15
 443 008a 01FA03F3 		lsl	r3, r1, r3
 558:d:\project\9388\e1\2023_7_27\sr5e1_l9388_freeosek\modules\drivers\system\gpio\include\gpio.h ****             p->AFR[1] |= (uint32_t)((af & 0xFU) << (4 * (pin - 8)));
 444              		.loc 1 558 37
 445 008e DB43     		mvns	r3, r3
 558:d:\project\9388\e1\2023_7_27\sr5e1_l9388_freeosek\modules\drivers\system\gpio\include\gpio.h ****             p->AFR[1] |= (uint32_t)((af & 0xFU) << (4 * (pin - 8)));
 446              		.loc 1 558 23
 447 0090 1A40     		ands	r2, r2, r3
 448 0092 029B     		ldr	r3, [sp, #8]
 449 0094 5A62     		str	r2, [r3, #36]
 559:d:\project\9388\e1\2023_7_27\sr5e1_l9388_freeosek\modules\drivers\system\gpio\include\gpio.h ****         }
 450              		.loc 1 559 23
 451 0096 029B     		ldr	r3, [sp, #8]
 452 0098 5A6A     		ldr	r2, [r3, #36]
 559:d:\project\9388\e1\2023_7_27\sr5e1_l9388_freeosek\modules\drivers\system\gpio\include\gpio.h ****         }
 453              		.loc 1 559 41
 454 009a 9DF80530 		ldrb	r3, [sp, #5]	@ zero_extendqisi2
 455 009e 03F00F01 		and	r1, r3, #15
 559:d:\project\9388\e1\2023_7_27\sr5e1_l9388_freeosek\modules\drivers\system\gpio\include\gpio.h ****         }
 456              		.loc 1 559 62
 457 00a2 9DF80E30 		ldrb	r3, [sp, #14]	@ zero_extendqisi2
 458 00a6 083B     		subs	r3, r3, #8
 559:d:\project\9388\e1\2023_7_27\sr5e1_l9388_freeosek\modules\drivers\system\gpio\include\gpio.h ****         }
 459              		.loc 1 559 55
 460 00a8 9B00     		lsls	r3, r3, #2
 559:d:\project\9388\e1\2023_7_27\sr5e1_l9388_freeosek\modules\drivers\system\gpio\include\gpio.h ****         }
 461              		.loc 1 559 49
 462 00aa 01FA03F3 		lsl	r3, r1, r3
 559:d:\project\9388\e1\2023_7_27\sr5e1_l9388_freeosek\modules\drivers\system\gpio\include\gpio.h ****         }
 463              		.loc 1 559 23
 464 00ae 1A43     		orrs	r2, r2, r3
 465 00b0 029B     		ldr	r3, [sp, #8]
 466 00b2 5A62     		str	r2, [r3, #36]
 467              	.L16:
 468              		.loc 1 562 1
 469 00b4 00BF     		nop
 470 00b6 05B0     		add	sp, sp, #20
 471              		.cfi_def_cfa_offset 4
 472              		@ sp needed
 473 00b8 5DF804FB 		ldr	pc, [sp], #4
 474              		.cfi_endproc
 475              	.LFE401:
 477              		.section	.text.gpio_set_pin_ihystr,"ax",%progbits
 478              		.align	1
 479              		.p2align 4,,15
 480              		.syntax unified
 481              		.thumb
 482              		.thumb_func
 484              	gpio_set_pin_ihystr:
 485              	.LFB402:
 563:d:\project\9388\e1\2023_7_27\sr5e1_l9388_freeosek\modules\drivers\system\gpio\include\gpio.h **** 
 564:d:\project\9388\e1\2023_7_27\sr5e1_l9388_freeosek\modules\drivers\system\gpio\include\gpio.h **** /**
 565:d:\project\9388\e1\2023_7_27\sr5e1_l9388_freeosek\modules\drivers\system\gpio\include\gpio.h ****  * @brief   Sets Hysteresis pin value.
 566:d:\project\9388\e1\2023_7_27\sr5e1_l9388_freeosek\modules\drivers\system\gpio\include\gpio.h ****  * @note    Sets Hysteresis value of the pin related to the unique pin
 567:d:\project\9388\e1\2023_7_27\sr5e1_l9388_freeosek\modules\drivers\system\gpio\include\gpio.h ****  *          identifier.
 568:d:\project\9388\e1\2023_7_27\sr5e1_l9388_freeosek\modules\drivers\system\gpio\include\gpio.h ****  *
 569:d:\project\9388\e1\2023_7_27\sr5e1_l9388_freeosek\modules\drivers\system\gpio\include\gpio.h ****  * @param[in] io        unique pin identifier
 570:d:\project\9388\e1\2023_7_27\sr5e1_l9388_freeosek\modules\drivers\system\gpio\include\gpio.h ****  * @param[in] ihyst     pin hysteresis value; it can be one of the following
 571:d:\project\9388\e1\2023_7_27\sr5e1_l9388_freeosek\modules\drivers\system\gpio\include\gpio.h ****  *                      values:
 572:d:\project\9388\e1\2023_7_27\sr5e1_l9388_freeosek\modules\drivers\system\gpio\include\gpio.h ****  *            @arg @ref GPIO_IHYSTR_CMOS
 573:d:\project\9388\e1\2023_7_27\sr5e1_l9388_freeosek\modules\drivers\system\gpio\include\gpio.h ****  *            @arg @ref GPIO_IHYSTR_TTL
 574:d:\project\9388\e1\2023_7_27\sr5e1_l9388_freeosek\modules\drivers\system\gpio\include\gpio.h ****  *            @arg @ref GPIO_IHYSTR_AUTO
 575:d:\project\9388\e1\2023_7_27\sr5e1_l9388_freeosek\modules\drivers\system\gpio\include\gpio.h ****  *
 576:d:\project\9388\e1\2023_7_27\sr5e1_l9388_freeosek\modules\drivers\system\gpio\include\gpio.h ****  * @api
 577:d:\project\9388\e1\2023_7_27\sr5e1_l9388_freeosek\modules\drivers\system\gpio\include\gpio.h ****  */
 578:d:\project\9388\e1\2023_7_27\sr5e1_l9388_freeosek\modules\drivers\system\gpio\include\gpio.h **** __STATIC_INLINE void gpio_set_pin_ihystr(gpio_io_t io,
 579:d:\project\9388\e1\2023_7_27\sr5e1_l9388_freeosek\modules\drivers\system\gpio\include\gpio.h ****                                          gpio_ihyst_t ihyst) {
 486              		.loc 1 579 62
 487              		.cfi_startproc
 488              		@ args = 0, pretend = 0, frame = 16
 489              		@ frame_needed = 0, uses_anonymous_args = 0
 490 0000 00B5     		push	{lr}
 491              		.cfi_def_cfa_offset 4
 492              		.cfi_offset 14, -4
 493 0002 85B0     		sub	sp, sp, #20
 494              		.cfi_def_cfa_offset 24
 495 0004 0346     		mov	r3, r0
 496 0006 0A46     		mov	r2, r1
 497 0008 ADF80630 		strh	r3, [sp, #6]	@ movhi
 498 000c 1346     		mov	r3, r2
 499 000e 8DF80530 		strb	r3, [sp, #5]
 580:d:\project\9388\e1\2023_7_27\sr5e1_l9388_freeosek\modules\drivers\system\gpio\include\gpio.h **** 
 581:d:\project\9388\e1\2023_7_27\sr5e1_l9388_freeosek\modules\drivers\system\gpio\include\gpio.h ****     gpio_port_t port = gpio_iounpack_port(io);
 500              		.loc 1 581 24
 501 0012 BDF80630 		ldrh	r3, [sp, #6]
 502 0016 1B09     		lsrs	r3, r3, #4
 503 0018 9BB2     		uxth	r3, r3
 504              		.loc 1 581 17
 505 001a 8DF80F30 		strb	r3, [sp, #15]
 582:d:\project\9388\e1\2023_7_27\sr5e1_l9388_freeosek\modules\drivers\system\gpio\include\gpio.h ****     gpio_pin_t pin   = gpio_iounpack_pin(io);
 506              		.loc 1 582 24
 507 001e BDF80630 		ldrh	r3, [sp, #6]	@ movhi
 508 0022 DBB2     		uxtb	r3, r3
 509              		.loc 1 582 16
 510 0024 03F00F03 		and	r3, r3, #15
 511 0028 8DF80E30 		strb	r3, [sp, #14]
 583:d:\project\9388\e1\2023_7_27\sr5e1_l9388_freeosek\modules\drivers\system\gpio\include\gpio.h ****     GPIO_TypeDef *p  = gpio_dev_get_port_reg_ptr(port);
 512              		.loc 1 583 24
 513 002c 9DF80F30 		ldrb	r3, [sp, #15]	@ zero_extendqisi2
 514 0030 1846     		mov	r0, r3
 515 0032 FFF7FEFF 		bl	gpio_dev_get_port_reg_ptr
 516 0036 0290     		str	r0, [sp, #8]
 584:d:\project\9388\e1\2023_7_27\sr5e1_l9388_freeosek\modules\drivers\system\gpio\include\gpio.h **** 
 585:d:\project\9388\e1\2023_7_27\sr5e1_l9388_freeosek\modules\drivers\system\gpio\include\gpio.h ****     if (p != NULL) {
 517              		.loc 1 585 8
 518 0038 029B     		ldr	r3, [sp, #8]
 519 003a 002B     		cmp	r3, #0
 520 003c 19D0     		beq	.L19
 586:d:\project\9388\e1\2023_7_27\sr5e1_l9388_freeosek\modules\drivers\system\gpio\include\gpio.h ****         p->IHYSTR &= (uint32_t)((~(0x3U << (2 * pin))));
 521              		.loc 1 586 19
 522 003e 029B     		ldr	r3, [sp, #8]
 523 0040 9A6A     		ldr	r2, [r3, #40]
 524              		.loc 1 586 47
 525 0042 9DF80E30 		ldrb	r3, [sp, #14]	@ zero_extendqisi2
 526 0046 5B00     		lsls	r3, r3, #1
 527              		.loc 1 586 41
 528 0048 0321     		movs	r1, #3
 529 004a 01FA03F3 		lsl	r3, r1, r3
 530              		.loc 1 586 34
 531 004e DB43     		mvns	r3, r3
 532              		.loc 1 586 19
 533 0050 1A40     		ands	r2, r2, r3
 534 0052 029B     		ldr	r3, [sp, #8]
 535 0054 9A62     		str	r2, [r3, #40]
 587:d:\project\9388\e1\2023_7_27\sr5e1_l9388_freeosek\modules\drivers\system\gpio\include\gpio.h ****         p->IHYSTR |= (uint32_t)((ihyst & 0x3U) << (2 * pin));
 536              		.loc 1 587 19
 537 0056 029B     		ldr	r3, [sp, #8]
 538 0058 9A6A     		ldr	r2, [r3, #40]
 539              		.loc 1 587 40
 540 005a 9DF80530 		ldrb	r3, [sp, #5]	@ zero_extendqisi2
 541 005e 03F00301 		and	r1, r3, #3
 542              		.loc 1 587 54
 543 0062 9DF80E30 		ldrb	r3, [sp, #14]	@ zero_extendqisi2
 544 0066 5B00     		lsls	r3, r3, #1
 545              		.loc 1 587 48
 546 0068 01FA03F3 		lsl	r3, r1, r3
 547              		.loc 1 587 19
 548 006c 1A43     		orrs	r2, r2, r3
 549 006e 029B     		ldr	r3, [sp, #8]
 550 0070 9A62     		str	r2, [r3, #40]
 551              	.L19:
 588:d:\project\9388\e1\2023_7_27\sr5e1_l9388_freeosek\modules\drivers\system\gpio\include\gpio.h ****     }
 589:d:\project\9388\e1\2023_7_27\sr5e1_l9388_freeosek\modules\drivers\system\gpio\include\gpio.h **** }
 552              		.loc 1 589 1
 553 0072 00BF     		nop
 554 0074 05B0     		add	sp, sp, #20
 555              		.cfi_def_cfa_offset 4
 556              		@ sp needed
 557 0076 5DF804FB 		ldr	pc, [sp], #4
 558              		.cfi_endproc
 559              	.LFE402:
 561 007a 00BF     		.section	.text.gpio_set_pin_trigenr,"ax",%progbits
 562              		.align	1
 563              		.p2align 4,,15
 564              		.syntax unified
 565              		.thumb
 566              		.thumb_func
 568              	gpio_set_pin_trigenr:
 569              	.LFB403:
 590:d:\project\9388\e1\2023_7_27\sr5e1_l9388_freeosek\modules\drivers\system\gpio\include\gpio.h **** 
 591:d:\project\9388\e1\2023_7_27\sr5e1_l9388_freeosek\modules\drivers\system\gpio\include\gpio.h **** /**
 592:d:\project\9388\e1\2023_7_27\sr5e1_l9388_freeosek\modules\drivers\system\gpio\include\gpio.h ****  * @brief   Sets Port Input Buffer Enable pin value.
 593:d:\project\9388\e1\2023_7_27\sr5e1_l9388_freeosek\modules\drivers\system\gpio\include\gpio.h ****  * @note    Sets Port Input Buffer Enable value of the pin related to the
 594:d:\project\9388\e1\2023_7_27\sr5e1_l9388_freeosek\modules\drivers\system\gpio\include\gpio.h ****  *          unique pin identifier.
 595:d:\project\9388\e1\2023_7_27\sr5e1_l9388_freeosek\modules\drivers\system\gpio\include\gpio.h ****  *
 596:d:\project\9388\e1\2023_7_27\sr5e1_l9388_freeosek\modules\drivers\system\gpio\include\gpio.h ****  * @param[in] io        unique pin identifier
 597:d:\project\9388\e1\2023_7_27\sr5e1_l9388_freeosek\modules\drivers\system\gpio\include\gpio.h ****  * @param[in] trigen    pin input buffer enable value; it can be one of the
 598:d:\project\9388\e1\2023_7_27\sr5e1_l9388_freeosek\modules\drivers\system\gpio\include\gpio.h ****  *                      following values:
 599:d:\project\9388\e1\2023_7_27\sr5e1_l9388_freeosek\modules\drivers\system\gpio\include\gpio.h ****  *            @arg @ref GPIO_TRIGENR_IN_DISABLED
 600:d:\project\9388\e1\2023_7_27\sr5e1_l9388_freeosek\modules\drivers\system\gpio\include\gpio.h ****  *            @arg @ref GPIO_TRIGENR_IN_ENABLED
 601:d:\project\9388\e1\2023_7_27\sr5e1_l9388_freeosek\modules\drivers\system\gpio\include\gpio.h ****  *
 602:d:\project\9388\e1\2023_7_27\sr5e1_l9388_freeosek\modules\drivers\system\gpio\include\gpio.h ****  * @api
 603:d:\project\9388\e1\2023_7_27\sr5e1_l9388_freeosek\modules\drivers\system\gpio\include\gpio.h ****  */
 604:d:\project\9388\e1\2023_7_27\sr5e1_l9388_freeosek\modules\drivers\system\gpio\include\gpio.h **** __STATIC_INLINE void gpio_set_pin_trigenr(gpio_io_t io,
 605:d:\project\9388\e1\2023_7_27\sr5e1_l9388_freeosek\modules\drivers\system\gpio\include\gpio.h ****                                           gpio_trigen_t trigen) {
 570              		.loc 1 605 65
 571              		.cfi_startproc
 572              		@ args = 0, pretend = 0, frame = 16
 573              		@ frame_needed = 0, uses_anonymous_args = 0
 574 0000 00B5     		push	{lr}
 575              		.cfi_def_cfa_offset 4
 576              		.cfi_offset 14, -4
 577 0002 85B0     		sub	sp, sp, #20
 578              		.cfi_def_cfa_offset 24
 579 0004 0346     		mov	r3, r0
 580 0006 0A46     		mov	r2, r1
 581 0008 ADF80630 		strh	r3, [sp, #6]	@ movhi
 582 000c 1346     		mov	r3, r2
 583 000e 8DF80530 		strb	r3, [sp, #5]
 606:d:\project\9388\e1\2023_7_27\sr5e1_l9388_freeosek\modules\drivers\system\gpio\include\gpio.h **** 
 607:d:\project\9388\e1\2023_7_27\sr5e1_l9388_freeosek\modules\drivers\system\gpio\include\gpio.h ****     gpio_port_t port = gpio_iounpack_port(io);
 584              		.loc 1 607 24
 585 0012 BDF80630 		ldrh	r3, [sp, #6]
 586 0016 1B09     		lsrs	r3, r3, #4
 587 0018 9BB2     		uxth	r3, r3
 588              		.loc 1 607 17
 589 001a 8DF80F30 		strb	r3, [sp, #15]
 608:d:\project\9388\e1\2023_7_27\sr5e1_l9388_freeosek\modules\drivers\system\gpio\include\gpio.h ****     gpio_pin_t pin   = gpio_iounpack_pin(io);
 590              		.loc 1 608 24
 591 001e BDF80630 		ldrh	r3, [sp, #6]	@ movhi
 592 0022 DBB2     		uxtb	r3, r3
 593              		.loc 1 608 16
 594 0024 03F00F03 		and	r3, r3, #15
 595 0028 8DF80E30 		strb	r3, [sp, #14]
 609:d:\project\9388\e1\2023_7_27\sr5e1_l9388_freeosek\modules\drivers\system\gpio\include\gpio.h ****     GPIO_TypeDef *p  = gpio_dev_get_port_reg_ptr(port);
 596              		.loc 1 609 24
 597 002c 9DF80F30 		ldrb	r3, [sp, #15]	@ zero_extendqisi2
 598 0030 1846     		mov	r0, r3
 599 0032 FFF7FEFF 		bl	gpio_dev_get_port_reg_ptr
 600 0036 0290     		str	r0, [sp, #8]
 610:d:\project\9388\e1\2023_7_27\sr5e1_l9388_freeosek\modules\drivers\system\gpio\include\gpio.h **** 
 611:d:\project\9388\e1\2023_7_27\sr5e1_l9388_freeosek\modules\drivers\system\gpio\include\gpio.h ****     if (p != NULL) {
 601              		.loc 1 611 8
 602 0038 029B     		ldr	r3, [sp, #8]
 603 003a 002B     		cmp	r3, #0
 604 003c 17D0     		beq	.L22
 612:d:\project\9388\e1\2023_7_27\sr5e1_l9388_freeosek\modules\drivers\system\gpio\include\gpio.h ****         p->TRIGENR &= (uint32_t)(~(0x1U << pin));
 605              		.loc 1 612 20
 606 003e 029B     		ldr	r3, [sp, #8]
 607 0040 DA6A     		ldr	r2, [r3, #44]
 608              		.loc 1 612 41
 609 0042 9DF80E30 		ldrb	r3, [sp, #14]	@ zero_extendqisi2
 610 0046 0121     		movs	r1, #1
 611 0048 01FA03F3 		lsl	r3, r1, r3
 612              		.loc 1 612 34
 613 004c DB43     		mvns	r3, r3
 614              		.loc 1 612 20
 615 004e 1A40     		ands	r2, r2, r3
 616 0050 029B     		ldr	r3, [sp, #8]
 617 0052 DA62     		str	r2, [r3, #44]
 613:d:\project\9388\e1\2023_7_27\sr5e1_l9388_freeosek\modules\drivers\system\gpio\include\gpio.h ****         p->TRIGENR |= (uint32_t)((trigen & 0x1U) << pin);
 618              		.loc 1 613 20
 619 0054 029B     		ldr	r3, [sp, #8]
 620 0056 DA6A     		ldr	r2, [r3, #44]
 621              		.loc 1 613 42
 622 0058 9DF80530 		ldrb	r3, [sp, #5]	@ zero_extendqisi2
 623 005c 03F00101 		and	r1, r3, #1
 624              		.loc 1 613 23
 625 0060 9DF80E30 		ldrb	r3, [sp, #14]	@ zero_extendqisi2
 626              		.loc 1 613 50
 627 0064 01FA03F3 		lsl	r3, r1, r3
 628              		.loc 1 613 20
 629 0068 1A43     		orrs	r2, r2, r3
 630 006a 029B     		ldr	r3, [sp, #8]
 631 006c DA62     		str	r2, [r3, #44]
 632              	.L22:
 614:d:\project\9388\e1\2023_7_27\sr5e1_l9388_freeosek\modules\drivers\system\gpio\include\gpio.h ****     }
 615:d:\project\9388\e1\2023_7_27\sr5e1_l9388_freeosek\modules\drivers\system\gpio\include\gpio.h **** }
 633              		.loc 1 615 1
 634 006e 00BF     		nop
 635 0070 05B0     		add	sp, sp, #20
 636              		.cfi_def_cfa_offset 4
 637              		@ sp needed
 638 0072 5DF804FB 		ldr	pc, [sp], #4
 639              		.cfi_endproc
 640              	.LFE403:
 642 0076 00BF     		.section	.text.gpio_set_pin_safeselr,"ax",%progbits
 643              		.align	1
 644              		.p2align 4,,15
 645              		.syntax unified
 646              		.thumb
 647              		.thumb_func
 649              	gpio_set_pin_safeselr:
 650              	.LFB404:
 616:d:\project\9388\e1\2023_7_27\sr5e1_l9388_freeosek\modules\drivers\system\gpio\include\gpio.h **** 
 617:d:\project\9388\e1\2023_7_27\sr5e1_l9388_freeosek\modules\drivers\system\gpio\include\gpio.h **** /**
 618:d:\project\9388\e1\2023_7_27\sr5e1_l9388_freeosek\modules\drivers\system\gpio\include\gpio.h ****  * @brief   Sets Safe IO Selection pin value.
 619:d:\project\9388\e1\2023_7_27\sr5e1_l9388_freeosek\modules\drivers\system\gpio\include\gpio.h ****  * @note    Sets Safe IO Selection value of the pin related to the unique pin
 620:d:\project\9388\e1\2023_7_27\sr5e1_l9388_freeosek\modules\drivers\system\gpio\include\gpio.h ****  *          identifier.
 621:d:\project\9388\e1\2023_7_27\sr5e1_l9388_freeosek\modules\drivers\system\gpio\include\gpio.h ****  *
 622:d:\project\9388\e1\2023_7_27\sr5e1_l9388_freeosek\modules\drivers\system\gpio\include\gpio.h ****  * @param[in] io        unique pin identifier
 623:d:\project\9388\e1\2023_7_27\sr5e1_l9388_freeosek\modules\drivers\system\gpio\include\gpio.h ****  * @param[in] safesel   safe io selection value; it can be one of the following
 624:d:\project\9388\e1\2023_7_27\sr5e1_l9388_freeosek\modules\drivers\system\gpio\include\gpio.h ****  *                      values:
 625:d:\project\9388\e1\2023_7_27\sr5e1_l9388_freeosek\modules\drivers\system\gpio\include\gpio.h ****  *            @arg @ref GPIO_SAFESEL_DISABLED
 626:d:\project\9388\e1\2023_7_27\sr5e1_l9388_freeosek\modules\drivers\system\gpio\include\gpio.h ****  *            @arg @ref GPIO_SAFESEL_ENABLED
 627:d:\project\9388\e1\2023_7_27\sr5e1_l9388_freeosek\modules\drivers\system\gpio\include\gpio.h ****  *
 628:d:\project\9388\e1\2023_7_27\sr5e1_l9388_freeosek\modules\drivers\system\gpio\include\gpio.h ****  * @api
 629:d:\project\9388\e1\2023_7_27\sr5e1_l9388_freeosek\modules\drivers\system\gpio\include\gpio.h ****  */
 630:d:\project\9388\e1\2023_7_27\sr5e1_l9388_freeosek\modules\drivers\system\gpio\include\gpio.h **** __STATIC_INLINE void gpio_set_pin_safeselr(gpio_io_t io,
 631:d:\project\9388\e1\2023_7_27\sr5e1_l9388_freeosek\modules\drivers\system\gpio\include\gpio.h ****                                            gpio_safesel_t safesel) {
 651              		.loc 1 631 68
 652              		.cfi_startproc
 653              		@ args = 0, pretend = 0, frame = 16
 654              		@ frame_needed = 0, uses_anonymous_args = 0
 655 0000 00B5     		push	{lr}
 656              		.cfi_def_cfa_offset 4
 657              		.cfi_offset 14, -4
 658 0002 85B0     		sub	sp, sp, #20
 659              		.cfi_def_cfa_offset 24
 660 0004 0346     		mov	r3, r0
 661 0006 0A46     		mov	r2, r1
 662 0008 ADF80630 		strh	r3, [sp, #6]	@ movhi
 663 000c 1346     		mov	r3, r2
 664 000e 8DF80530 		strb	r3, [sp, #5]
 632:d:\project\9388\e1\2023_7_27\sr5e1_l9388_freeosek\modules\drivers\system\gpio\include\gpio.h **** 
 633:d:\project\9388\e1\2023_7_27\sr5e1_l9388_freeosek\modules\drivers\system\gpio\include\gpio.h ****     gpio_port_t port = gpio_iounpack_port(io);
 665              		.loc 1 633 24
 666 0012 BDF80630 		ldrh	r3, [sp, #6]
 667 0016 1B09     		lsrs	r3, r3, #4
 668 0018 9BB2     		uxth	r3, r3
 669              		.loc 1 633 17
 670 001a 8DF80F30 		strb	r3, [sp, #15]
 634:d:\project\9388\e1\2023_7_27\sr5e1_l9388_freeosek\modules\drivers\system\gpio\include\gpio.h ****     gpio_pin_t pin   = gpio_iounpack_pin(io);
 671              		.loc 1 634 24
 672 001e BDF80630 		ldrh	r3, [sp, #6]	@ movhi
 673 0022 DBB2     		uxtb	r3, r3
 674              		.loc 1 634 16
 675 0024 03F00F03 		and	r3, r3, #15
 676 0028 8DF80E30 		strb	r3, [sp, #14]
 635:d:\project\9388\e1\2023_7_27\sr5e1_l9388_freeosek\modules\drivers\system\gpio\include\gpio.h ****     GPIO_TypeDef *p  = gpio_dev_get_port_reg_ptr(port);
 677              		.loc 1 635 24
 678 002c 9DF80F30 		ldrb	r3, [sp, #15]	@ zero_extendqisi2
 679 0030 1846     		mov	r0, r3
 680 0032 FFF7FEFF 		bl	gpio_dev_get_port_reg_ptr
 681 0036 0290     		str	r0, [sp, #8]
 636:d:\project\9388\e1\2023_7_27\sr5e1_l9388_freeosek\modules\drivers\system\gpio\include\gpio.h **** 
 637:d:\project\9388\e1\2023_7_27\sr5e1_l9388_freeosek\modules\drivers\system\gpio\include\gpio.h ****     if (p != NULL) {
 682              		.loc 1 637 8
 683 0038 029B     		ldr	r3, [sp, #8]
 684 003a 002B     		cmp	r3, #0
 685 003c 17D0     		beq	.L25
 638:d:\project\9388\e1\2023_7_27\sr5e1_l9388_freeosek\modules\drivers\system\gpio\include\gpio.h ****         p->SAFESELR &= (uint32_t)(~(0x1U << pin));
 686              		.loc 1 638 21
 687 003e 029B     		ldr	r3, [sp, #8]
 688 0040 1A6B     		ldr	r2, [r3, #48]
 689              		.loc 1 638 42
 690 0042 9DF80E30 		ldrb	r3, [sp, #14]	@ zero_extendqisi2
 691 0046 0121     		movs	r1, #1
 692 0048 01FA03F3 		lsl	r3, r1, r3
 693              		.loc 1 638 35
 694 004c DB43     		mvns	r3, r3
 695              		.loc 1 638 21
 696 004e 1A40     		ands	r2, r2, r3
 697 0050 029B     		ldr	r3, [sp, #8]
 698 0052 1A63     		str	r2, [r3, #48]
 639:d:\project\9388\e1\2023_7_27\sr5e1_l9388_freeosek\modules\drivers\system\gpio\include\gpio.h ****         p->SAFESELR |= (uint32_t)((safesel & 0x1U) << pin);
 699              		.loc 1 639 21
 700 0054 029B     		ldr	r3, [sp, #8]
 701 0056 1A6B     		ldr	r2, [r3, #48]
 702              		.loc 1 639 44
 703 0058 9DF80530 		ldrb	r3, [sp, #5]	@ zero_extendqisi2
 704 005c 03F00101 		and	r1, r3, #1
 705              		.loc 1 639 24
 706 0060 9DF80E30 		ldrb	r3, [sp, #14]	@ zero_extendqisi2
 707              		.loc 1 639 52
 708 0064 01FA03F3 		lsl	r3, r1, r3
 709              		.loc 1 639 21
 710 0068 1A43     		orrs	r2, r2, r3
 711 006a 029B     		ldr	r3, [sp, #8]
 712 006c 1A63     		str	r2, [r3, #48]
 713              	.L25:
 640:d:\project\9388\e1\2023_7_27\sr5e1_l9388_freeosek\modules\drivers\system\gpio\include\gpio.h ****     }
 641:d:\project\9388\e1\2023_7_27\sr5e1_l9388_freeosek\modules\drivers\system\gpio\include\gpio.h **** }
 714              		.loc 1 641 1
 715 006e 00BF     		nop
 716 0070 05B0     		add	sp, sp, #20
 717              		.cfi_def_cfa_offset 4
 718              		@ sp needed
 719 0072 5DF804FB 		ldr	pc, [sp], #4
 720              		.cfi_endproc
 721              	.LFE404:
 723 0076 00BF     		.section	.text.gpio_set_pin_safevalr,"ax",%progbits
 724              		.align	1
 725              		.p2align 4,,15
 726              		.syntax unified
 727              		.thumb
 728              		.thumb_func
 730              	gpio_set_pin_safevalr:
 731              	.LFB405:
 642:d:\project\9388\e1\2023_7_27\sr5e1_l9388_freeosek\modules\drivers\system\gpio\include\gpio.h **** 
 643:d:\project\9388\e1\2023_7_27\sr5e1_l9388_freeosek\modules\drivers\system\gpio\include\gpio.h **** /**
 644:d:\project\9388\e1\2023_7_27\sr5e1_l9388_freeosek\modules\drivers\system\gpio\include\gpio.h ****  * @brief   Sets Safe IO Output pin value.
 645:d:\project\9388\e1\2023_7_27\sr5e1_l9388_freeosek\modules\drivers\system\gpio\include\gpio.h ****  * @note    Sets Safe IO Output value of the pin related to the unique pin
 646:d:\project\9388\e1\2023_7_27\sr5e1_l9388_freeosek\modules\drivers\system\gpio\include\gpio.h ****  *          identifier.
 647:d:\project\9388\e1\2023_7_27\sr5e1_l9388_freeosek\modules\drivers\system\gpio\include\gpio.h ****  *
 648:d:\project\9388\e1\2023_7_27\sr5e1_l9388_freeosek\modules\drivers\system\gpio\include\gpio.h ****  * @param[in] io        unique pin identifier
 649:d:\project\9388\e1\2023_7_27\sr5e1_l9388_freeosek\modules\drivers\system\gpio\include\gpio.h ****  * @param[in] safeval   safe io output value; it can be one of the following
 650:d:\project\9388\e1\2023_7_27\sr5e1_l9388_freeosek\modules\drivers\system\gpio\include\gpio.h ****  *                      values:
 651:d:\project\9388\e1\2023_7_27\sr5e1_l9388_freeosek\modules\drivers\system\gpio\include\gpio.h ****  *            @arg @ref GPIO_SAFEVAL_LOW
 652:d:\project\9388\e1\2023_7_27\sr5e1_l9388_freeosek\modules\drivers\system\gpio\include\gpio.h ****  *            @arg @ref GPIO_SAFEVAL_HIGT
 653:d:\project\9388\e1\2023_7_27\sr5e1_l9388_freeosek\modules\drivers\system\gpio\include\gpio.h ****  *
 654:d:\project\9388\e1\2023_7_27\sr5e1_l9388_freeosek\modules\drivers\system\gpio\include\gpio.h ****  * @api
 655:d:\project\9388\e1\2023_7_27\sr5e1_l9388_freeosek\modules\drivers\system\gpio\include\gpio.h ****  */
 656:d:\project\9388\e1\2023_7_27\sr5e1_l9388_freeosek\modules\drivers\system\gpio\include\gpio.h **** __STATIC_INLINE void gpio_set_pin_safevalr(gpio_io_t io,
 657:d:\project\9388\e1\2023_7_27\sr5e1_l9388_freeosek\modules\drivers\system\gpio\include\gpio.h ****                                            gpio_safeval_t safeval) {
 732              		.loc 1 657 68
 733              		.cfi_startproc
 734              		@ args = 0, pretend = 0, frame = 16
 735              		@ frame_needed = 0, uses_anonymous_args = 0
 736 0000 00B5     		push	{lr}
 737              		.cfi_def_cfa_offset 4
 738              		.cfi_offset 14, -4
 739 0002 85B0     		sub	sp, sp, #20
 740              		.cfi_def_cfa_offset 24
 741 0004 0346     		mov	r3, r0
 742 0006 0A46     		mov	r2, r1
 743 0008 ADF80630 		strh	r3, [sp, #6]	@ movhi
 744 000c 1346     		mov	r3, r2
 745 000e 8DF80530 		strb	r3, [sp, #5]
 658:d:\project\9388\e1\2023_7_27\sr5e1_l9388_freeosek\modules\drivers\system\gpio\include\gpio.h **** 
 659:d:\project\9388\e1\2023_7_27\sr5e1_l9388_freeosek\modules\drivers\system\gpio\include\gpio.h ****     gpio_port_t port = gpio_iounpack_port(io);
 746              		.loc 1 659 24
 747 0012 BDF80630 		ldrh	r3, [sp, #6]
 748 0016 1B09     		lsrs	r3, r3, #4
 749 0018 9BB2     		uxth	r3, r3
 750              		.loc 1 659 17
 751 001a 8DF80F30 		strb	r3, [sp, #15]
 660:d:\project\9388\e1\2023_7_27\sr5e1_l9388_freeosek\modules\drivers\system\gpio\include\gpio.h ****     gpio_pin_t pin   = gpio_iounpack_pin(io);
 752              		.loc 1 660 24
 753 001e BDF80630 		ldrh	r3, [sp, #6]	@ movhi
 754 0022 DBB2     		uxtb	r3, r3
 755              		.loc 1 660 16
 756 0024 03F00F03 		and	r3, r3, #15
 757 0028 8DF80E30 		strb	r3, [sp, #14]
 661:d:\project\9388\e1\2023_7_27\sr5e1_l9388_freeosek\modules\drivers\system\gpio\include\gpio.h ****     GPIO_TypeDef *p  = gpio_dev_get_port_reg_ptr(port);
 758              		.loc 1 661 24
 759 002c 9DF80F30 		ldrb	r3, [sp, #15]	@ zero_extendqisi2
 760 0030 1846     		mov	r0, r3
 761 0032 FFF7FEFF 		bl	gpio_dev_get_port_reg_ptr
 762 0036 0290     		str	r0, [sp, #8]
 662:d:\project\9388\e1\2023_7_27\sr5e1_l9388_freeosek\modules\drivers\system\gpio\include\gpio.h **** 
 663:d:\project\9388\e1\2023_7_27\sr5e1_l9388_freeosek\modules\drivers\system\gpio\include\gpio.h ****     if (p != NULL) {
 763              		.loc 1 663 8
 764 0038 029B     		ldr	r3, [sp, #8]
 765 003a 002B     		cmp	r3, #0
 766 003c 17D0     		beq	.L28
 664:d:\project\9388\e1\2023_7_27\sr5e1_l9388_freeosek\modules\drivers\system\gpio\include\gpio.h ****         p->SAFEVALR &= (uint32_t)(~(0x1U << pin));
 767              		.loc 1 664 21
 768 003e 029B     		ldr	r3, [sp, #8]
 769 0040 5A6B     		ldr	r2, [r3, #52]
 770              		.loc 1 664 42
 771 0042 9DF80E30 		ldrb	r3, [sp, #14]	@ zero_extendqisi2
 772 0046 0121     		movs	r1, #1
 773 0048 01FA03F3 		lsl	r3, r1, r3
 774              		.loc 1 664 35
 775 004c DB43     		mvns	r3, r3
 776              		.loc 1 664 21
 777 004e 1A40     		ands	r2, r2, r3
 778 0050 029B     		ldr	r3, [sp, #8]
 779 0052 5A63     		str	r2, [r3, #52]
 665:d:\project\9388\e1\2023_7_27\sr5e1_l9388_freeosek\modules\drivers\system\gpio\include\gpio.h ****         p->SAFEVALR |= (uint32_t)((safeval & 0x1U) << pin);
 780              		.loc 1 665 21
 781 0054 029B     		ldr	r3, [sp, #8]
 782 0056 5A6B     		ldr	r2, [r3, #52]
 783              		.loc 1 665 44
 784 0058 9DF80530 		ldrb	r3, [sp, #5]	@ zero_extendqisi2
 785 005c 03F00101 		and	r1, r3, #1
 786              		.loc 1 665 24
 787 0060 9DF80E30 		ldrb	r3, [sp, #14]	@ zero_extendqisi2
 788              		.loc 1 665 52
 789 0064 01FA03F3 		lsl	r3, r1, r3
 790              		.loc 1 665 21
 791 0068 1A43     		orrs	r2, r2, r3
 792 006a 029B     		ldr	r3, [sp, #8]
 793 006c 5A63     		str	r2, [r3, #52]
 794              	.L28:
 666:d:\project\9388\e1\2023_7_27\sr5e1_l9388_freeosek\modules\drivers\system\gpio\include\gpio.h ****     }
 667:d:\project\9388\e1\2023_7_27\sr5e1_l9388_freeosek\modules\drivers\system\gpio\include\gpio.h **** }
 795              		.loc 1 667 1
 796 006e 00BF     		nop
 797 0070 05B0     		add	sp, sp, #20
 798              		.cfi_def_cfa_offset 4
 799              		@ sp needed
 800 0072 5DF804FB 		ldr	pc, [sp], #4
 801              		.cfi_endproc
 802              	.LFE405:
 804 0076 00BF     		.section	.text.gpio_set_pin_mode,"ax",%progbits
 805              		.align	1
 806              		.p2align 4,,15
 807              		.syntax unified
 808              		.thumb
 809              		.thumb_func
 811              	gpio_set_pin_mode:
 812              	.LFB406:
 668:d:\project\9388\e1\2023_7_27\sr5e1_l9388_freeosek\modules\drivers\system\gpio\include\gpio.h **** 
 669:d:\project\9388\e1\2023_7_27\sr5e1_l9388_freeosek\modules\drivers\system\gpio\include\gpio.h **** /**
 670:d:\project\9388\e1\2023_7_27\sr5e1_l9388_freeosek\modules\drivers\system\gpio\include\gpio.h ****  * @brief   Configures pin mode
 671:d:\project\9388\e1\2023_7_27\sr5e1_l9388_freeosek\modules\drivers\system\gpio\include\gpio.h ****  * @note    Congigures properties of the pin related to the unique pin
 672:d:\project\9388\e1\2023_7_27\sr5e1_l9388_freeosek\modules\drivers\system\gpio\include\gpio.h ****  *          identifier.
 673:d:\project\9388\e1\2023_7_27\sr5e1_l9388_freeosek\modules\drivers\system\gpio\include\gpio.h ****  *
 674:d:\project\9388\e1\2023_7_27\sr5e1_l9388_freeosek\modules\drivers\system\gpio\include\gpio.h ****  * @param[in] io        unique pin identifier
 675:d:\project\9388\e1\2023_7_27\sr5e1_l9388_freeosek\modules\drivers\system\gpio\include\gpio.h ****  * @param[in] mode      pin configuration
 676:d:\project\9388\e1\2023_7_27\sr5e1_l9388_freeosek\modules\drivers\system\gpio\include\gpio.h ****  *
 677:d:\project\9388\e1\2023_7_27\sr5e1_l9388_freeosek\modules\drivers\system\gpio\include\gpio.h ****  * @api
 678:d:\project\9388\e1\2023_7_27\sr5e1_l9388_freeosek\modules\drivers\system\gpio\include\gpio.h ****  */
 679:d:\project\9388\e1\2023_7_27\sr5e1_l9388_freeosek\modules\drivers\system\gpio\include\gpio.h **** __STATIC_INLINE void gpio_set_pin_mode(gpio_io_t io,
 680:d:\project\9388\e1\2023_7_27\sr5e1_l9388_freeosek\modules\drivers\system\gpio\include\gpio.h ****                                        uint32_t mode) {
 813              		.loc 1 680 55
 814              		.cfi_startproc
 815              		@ args = 0, pretend = 0, frame = 8
 816              		@ frame_needed = 0, uses_anonymous_args = 0
 817 0000 00B5     		push	{lr}
 818              		.cfi_def_cfa_offset 4
 819              		.cfi_offset 14, -4
 820 0002 83B0     		sub	sp, sp, #12
 821              		.cfi_def_cfa_offset 16
 822 0004 0346     		mov	r3, r0
 823 0006 0091     		str	r1, [sp]
 824 0008 ADF80630 		strh	r3, [sp, #6]	@ movhi
 681:d:\project\9388\e1\2023_7_27\sr5e1_l9388_freeosek\modules\drivers\system\gpio\include\gpio.h **** 
 682:d:\project\9388\e1\2023_7_27\sr5e1_l9388_freeosek\modules\drivers\system\gpio\include\gpio.h ****     gpio_set_pin_moder   (io, (gpio_mode_t)((mode & GPIO_MODE_MODER_MASK) >> GPIO_MODE_MODER_POS));
 825              		.loc 1 682 5
 826 000c 009B     		ldr	r3, [sp]
 827 000e DBB2     		uxtb	r3, r3
 828              		.loc 1 682 51
 829 0010 03F00303 		and	r3, r3, #3
 830 0014 DAB2     		uxtb	r2, r3
 831              		.loc 1 682 5
 832 0016 BDF80630 		ldrh	r3, [sp, #6]
 833 001a 1146     		mov	r1, r2
 834 001c 1846     		mov	r0, r3
 835 001e FFF7FEFF 		bl	gpio_set_pin_moder
 683:d:\project\9388\e1\2023_7_27\sr5e1_l9388_freeosek\modules\drivers\system\gpio\include\gpio.h ****     gpio_set_pin_otyper  (io, (gpio_otype_t)((mode & GPIO_MODE_OTYPER_MASK) >> GPIO_MODE_OTYPER_POS
 836              		.loc 1 683 77
 837 0022 009B     		ldr	r3, [sp]
 838 0024 9B08     		lsrs	r3, r3, #2
 839 0026 03F00103 		and	r3, r3, #1
 840              		.loc 1 683 5
 841 002a DAB2     		uxtb	r2, r3
 842 002c BDF80630 		ldrh	r3, [sp, #6]
 843 0030 1146     		mov	r1, r2
 844 0032 1846     		mov	r0, r3
 845 0034 FFF7FEFF 		bl	gpio_set_pin_otyper
 684:d:\project\9388\e1\2023_7_27\sr5e1_l9388_freeosek\modules\drivers\system\gpio\include\gpio.h ****     gpio_set_pin_ospeedr (io, (gpio_ospeed_t)((mode & GPIO_MODE_OSPEEDR_MASK) >> GPIO_MODE_OSPEEDR_
 846              		.loc 1 684 79
 847 0038 009B     		ldr	r3, [sp]
 848 003a DB08     		lsrs	r3, r3, #3
 849 003c 03F00303 		and	r3, r3, #3
 850              		.loc 1 684 5
 851 0040 DAB2     		uxtb	r2, r3
 852 0042 BDF80630 		ldrh	r3, [sp, #6]
 853 0046 1146     		mov	r1, r2
 854 0048 1846     		mov	r0, r3
 855 004a FFF7FEFF 		bl	gpio_set_pin_ospeedr
 685:d:\project\9388\e1\2023_7_27\sr5e1_l9388_freeosek\modules\drivers\system\gpio\include\gpio.h ****     gpio_set_pin_pupdr   (io, (gpio_pupd_t)((mode & GPIO_MODE_PUPDR_MASK) >> GPIO_MODE_PUPDR_POS));
 856              		.loc 1 685 75
 857 004e 009B     		ldr	r3, [sp]
 858 0050 5B09     		lsrs	r3, r3, #5
 859 0052 03F00303 		and	r3, r3, #3
 860              		.loc 1 685 5
 861 0056 DAB2     		uxtb	r2, r3
 862 0058 BDF80630 		ldrh	r3, [sp, #6]
 863 005c 1146     		mov	r1, r2
 864 005e 1846     		mov	r0, r3
 865 0060 FFF7FEFF 		bl	gpio_set_pin_pupdr
 686:d:\project\9388\e1\2023_7_27\sr5e1_l9388_freeosek\modules\drivers\system\gpio\include\gpio.h ****     gpio_set_pin_afr     (io, (gpio_af_t)((mode & GPIO_MODE_AFR_MASK) >> GPIO_MODE_AFR_POS));
 866              		.loc 1 686 71
 867 0064 009B     		ldr	r3, [sp]
 868 0066 DB09     		lsrs	r3, r3, #7
 869              		.loc 1 686 31
 870 0068 DBB2     		uxtb	r3, r3
 871              		.loc 1 686 5
 872 006a 03F00F03 		and	r3, r3, #15
 873 006e DAB2     		uxtb	r2, r3
 874 0070 BDF80630 		ldrh	r3, [sp, #6]
 875 0074 1146     		mov	r1, r2
 876 0076 1846     		mov	r0, r3
 877 0078 FFF7FEFF 		bl	gpio_set_pin_afr
 687:d:\project\9388\e1\2023_7_27\sr5e1_l9388_freeosek\modules\drivers\system\gpio\include\gpio.h ****     gpio_set_pin_ihystr  (io, (gpio_ihyst_t)((mode & GPIO_MODE_IHYSTR_MASK) >> GPIO_MODE_IHYSTR_POS
 878              		.loc 1 687 77
 879 007c 009B     		ldr	r3, [sp]
 880 007e DB0A     		lsrs	r3, r3, #11
 881 0080 03F00303 		and	r3, r3, #3
 882              		.loc 1 687 5
 883 0084 DAB2     		uxtb	r2, r3
 884 0086 BDF80630 		ldrh	r3, [sp, #6]
 885 008a 1146     		mov	r1, r2
 886 008c 1846     		mov	r0, r3
 887 008e FFF7FEFF 		bl	gpio_set_pin_ihystr
 688:d:\project\9388\e1\2023_7_27\sr5e1_l9388_freeosek\modules\drivers\system\gpio\include\gpio.h ****     gpio_set_pin_trigenr (io, (gpio_trigen_t)((mode & GPIO_MODE_TRIGENR_MASK) >> GPIO_MODE_TRIGENR_
 888              		.loc 1 688 79
 889 0092 009B     		ldr	r3, [sp]
 890 0094 5B0B     		lsrs	r3, r3, #13
 891 0096 03F00103 		and	r3, r3, #1
 892              		.loc 1 688 5
 893 009a DAB2     		uxtb	r2, r3
 894 009c BDF80630 		ldrh	r3, [sp, #6]
 895 00a0 1146     		mov	r1, r2
 896 00a2 1846     		mov	r0, r3
 897 00a4 FFF7FEFF 		bl	gpio_set_pin_trigenr
 689:d:\project\9388\e1\2023_7_27\sr5e1_l9388_freeosek\modules\drivers\system\gpio\include\gpio.h ****     gpio_set_pin_safeselr(io, (gpio_safesel_t)((mode & GPIO_MODE_SAFESELR_MASK) >> GPIO_MODE_SAFESE
 898              		.loc 1 689 81
 899 00a8 009B     		ldr	r3, [sp]
 900 00aa 9B0B     		lsrs	r3, r3, #14
 901 00ac 03F00103 		and	r3, r3, #1
 902              		.loc 1 689 5
 903 00b0 DAB2     		uxtb	r2, r3
 904 00b2 BDF80630 		ldrh	r3, [sp, #6]
 905 00b6 1146     		mov	r1, r2
 906 00b8 1846     		mov	r0, r3
 907 00ba FFF7FEFF 		bl	gpio_set_pin_safeselr
 690:d:\project\9388\e1\2023_7_27\sr5e1_l9388_freeosek\modules\drivers\system\gpio\include\gpio.h ****     gpio_set_pin_safevalr(io, (gpio_safeval_t)((mode & GPIO_MODE_SAFEVALR_MASK) >> GPIO_MODE_SAFEVA
 908              		.loc 1 690 81
 909 00be 009B     		ldr	r3, [sp]
 910 00c0 DB0B     		lsrs	r3, r3, #15
 911 00c2 03F00103 		and	r3, r3, #1
 912              		.loc 1 690 5
 913 00c6 DAB2     		uxtb	r2, r3
 914 00c8 BDF80630 		ldrh	r3, [sp, #6]
 915 00cc 1146     		mov	r1, r2
 916 00ce 1846     		mov	r0, r3
 917 00d0 FFF7FEFF 		bl	gpio_set_pin_safevalr
 691:d:\project\9388\e1\2023_7_27\sr5e1_l9388_freeosek\modules\drivers\system\gpio\include\gpio.h **** }
 918              		.loc 1 691 1
 919 00d4 00BF     		nop
 920 00d6 03B0     		add	sp, sp, #12
 921              		.cfi_def_cfa_offset 4
 922              		@ sp needed
 923 00d8 5DF804FB 		ldr	pc, [sp], #4
 924              		.cfi_endproc
 925              	.LFE406:
 927              		.section	.text.evbe7000p_init,"ax",%progbits
 928              		.align	1
 929              		.p2align 4,,15
 930              		.syntax unified
 931              		.thumb
 932              		.thumb_func
 934              	evbe7000p_init:
 935              	.LFB432:
 936              		.file 2 "d:\\project\\9388\\e1\\2023_7_27\\sr5e1_l9388_freeosek\\modules\\platform\\board\\include
   1:d:\project\9388\e1\2023_7_27\sr5e1_l9388_freeosek\modules\platform\board\include\sr5e1\evbe7000p.h **** /****************************************************************************
   2:d:\project\9388\e1\2023_7_27\sr5e1_l9388_freeosek\modules\platform\board\include\sr5e1\evbe7000p.h ****  *
   3:d:\project\9388\e1\2023_7_27\sr5e1_l9388_freeosek\modules\platform\board\include\sr5e1\evbe7000p.h ****  * Copyright (c) 2022 STMicroelectronics - All Rights Reserved
   4:d:\project\9388\e1\2023_7_27\sr5e1_l9388_freeosek\modules\platform\board\include\sr5e1\evbe7000p.h ****  *
   5:d:\project\9388\e1\2023_7_27\sr5e1_l9388_freeosek\modules\platform\board\include\sr5e1\evbe7000p.h ****  * License terms: STMicroelectronics Proprietary in accordance with licensing
   6:d:\project\9388\e1\2023_7_27\sr5e1_l9388_freeosek\modules\platform\board\include\sr5e1\evbe7000p.h ****  * terms SLA0098 at www.st.com.
   7:d:\project\9388\e1\2023_7_27\sr5e1_l9388_freeosek\modules\platform\board\include\sr5e1\evbe7000p.h ****  *
   8:d:\project\9388\e1\2023_7_27\sr5e1_l9388_freeosek\modules\platform\board\include\sr5e1\evbe7000p.h ****  * THIS SOFTWARE IS DISTRIBUTED "AS IS," AND ALL WARRANTIES ARE DISCLAIMED,
   9:d:\project\9388\e1\2023_7_27\sr5e1_l9388_freeosek\modules\platform\board\include\sr5e1\evbe7000p.h ****  * INCLUDING MERCHANTABILITY AND FITNESS FOR A PARTICULAR PURPOSE.
  10:d:\project\9388\e1\2023_7_27\sr5e1_l9388_freeosek\modules\platform\board\include\sr5e1\evbe7000p.h ****  *
  11:d:\project\9388\e1\2023_7_27\sr5e1_l9388_freeosek\modules\platform\board\include\sr5e1\evbe7000p.h ****  *****************************************************************************/
  12:d:\project\9388\e1\2023_7_27\sr5e1_l9388_freeosek\modules\platform\board\include\sr5e1\evbe7000p.h **** /**
  13:d:\project\9388\e1\2023_7_27\sr5e1_l9388_freeosek\modules\platform\board\include\sr5e1\evbe7000p.h ****  * @file    evbe7000p.h
  14:d:\project\9388\e1\2023_7_27\sr5e1_l9388_freeosek\modules\platform\board\include\sr5e1\evbe7000p.h ****  * @brief   SR5E1-EVBE7000P board header file.
  15:d:\project\9388\e1\2023_7_27\sr5e1_l9388_freeosek\modules\platform\board\include\sr5e1\evbe7000p.h ****  *
  16:d:\project\9388\e1\2023_7_27\sr5e1_l9388_freeosek\modules\platform\board\include\sr5e1\evbe7000p.h ****  * @addtogroup PLATFORM
  17:d:\project\9388\e1\2023_7_27\sr5e1_l9388_freeosek\modules\platform\board\include\sr5e1\evbe7000p.h ****  * @addtogroup BOARD
  18:d:\project\9388\e1\2023_7_27\sr5e1_l9388_freeosek\modules\platform\board\include\sr5e1\evbe7000p.h ****  * @ingroup PLATFORM
  19:d:\project\9388\e1\2023_7_27\sr5e1_l9388_freeosek\modules\platform\board\include\sr5e1\evbe7000p.h ****  * @addtogroup EVBE7000P
  20:d:\project\9388\e1\2023_7_27\sr5e1_l9388_freeosek\modules\platform\board\include\sr5e1\evbe7000p.h ****  * @ingroup BOARD
  21:d:\project\9388\e1\2023_7_27\sr5e1_l9388_freeosek\modules\platform\board\include\sr5e1\evbe7000p.h ****  * @{
  22:d:\project\9388\e1\2023_7_27\sr5e1_l9388_freeosek\modules\platform\board\include\sr5e1\evbe7000p.h ****  */
  23:d:\project\9388\e1\2023_7_27\sr5e1_l9388_freeosek\modules\platform\board\include\sr5e1\evbe7000p.h **** 
  24:d:\project\9388\e1\2023_7_27\sr5e1_l9388_freeosek\modules\platform\board\include\sr5e1\evbe7000p.h **** #ifndef _EVBE7000P_H_
  25:d:\project\9388\e1\2023_7_27\sr5e1_l9388_freeosek\modules\platform\board\include\sr5e1\evbe7000p.h **** #define _EVBE7000P_H_
  26:d:\project\9388\e1\2023_7_27\sr5e1_l9388_freeosek\modules\platform\board\include\sr5e1\evbe7000p.h **** 
  27:d:\project\9388\e1\2023_7_27\sr5e1_l9388_freeosek\modules\platform\board\include\sr5e1\evbe7000p.h **** #include <gpio.h>
  28:d:\project\9388\e1\2023_7_27\sr5e1_l9388_freeosek\modules\platform\board\include\sr5e1\evbe7000p.h **** #include <platform.h>
  29:d:\project\9388\e1\2023_7_27\sr5e1_l9388_freeosek\modules\platform\board\include\sr5e1\evbe7000p.h **** #include <typedefs.h>
  30:d:\project\9388\e1\2023_7_27\sr5e1_l9388_freeosek\modules\platform\board\include\sr5e1\evbe7000p.h **** 
  31:d:\project\9388\e1\2023_7_27\sr5e1_l9388_freeosek\modules\platform\board\include\sr5e1\evbe7000p.h **** /*===========================================================================*/
  32:d:\project\9388\e1\2023_7_27\sr5e1_l9388_freeosek\modules\platform\board\include\sr5e1\evbe7000p.h **** /* Module constants.                                                         */
  33:d:\project\9388\e1\2023_7_27\sr5e1_l9388_freeosek\modules\platform\board\include\sr5e1\evbe7000p.h **** /*===========================================================================*/
  34:d:\project\9388\e1\2023_7_27\sr5e1_l9388_freeosek\modules\platform\board\include\sr5e1\evbe7000p.h **** 
  35:d:\project\9388\e1\2023_7_27\sr5e1_l9388_freeosek\modules\platform\board\include\sr5e1\evbe7000p.h **** #define EVBE7000P 1
  36:d:\project\9388\e1\2023_7_27\sr5e1_l9388_freeosek\modules\platform\board\include\sr5e1\evbe7000p.h **** 
  37:d:\project\9388\e1\2023_7_27\sr5e1_l9388_freeosek\modules\platform\board\include\sr5e1\evbe7000p.h **** /* GPIO-related settings.*/
  38:d:\project\9388\e1\2023_7_27\sr5e1_l9388_freeosek\modules\platform\board\include\sr5e1\evbe7000p.h **** 
  39:d:\project\9388\e1\2023_7_27\sr5e1_l9388_freeosek\modules\platform\board\include\sr5e1\evbe7000p.h **** /* PortA pin settings. */
  40:d:\project\9388\e1\2023_7_27\sr5e1_l9388_freeosek\modules\platform\board\include\sr5e1\evbe7000p.h **** #define TIM16_CH1 gpio_iopack(GPIO_PORT_A, GPIO_PIN_0)
  41:d:\project\9388\e1\2023_7_27\sr5e1_l9388_freeosek\modules\platform\board\include\sr5e1\evbe7000p.h **** #define TIM16_CH1_CFG                            \
  42:d:\project\9388\e1\2023_7_27\sr5e1_l9388_freeosek\modules\platform\board\include\sr5e1\evbe7000p.h ****     (GPIO_MODE_MODER_ALTERNATE |                 \
  43:d:\project\9388\e1\2023_7_27\sr5e1_l9388_freeosek\modules\platform\board\include\sr5e1\evbe7000p.h ****      GPIO_MODE_OTYPER_PUSHPULL |                 \
  44:d:\project\9388\e1\2023_7_27\sr5e1_l9388_freeosek\modules\platform\board\include\sr5e1\evbe7000p.h ****      GPIO_MODE_OSPEEDR_LOW |                     \
  45:d:\project\9388\e1\2023_7_27\sr5e1_l9388_freeosek\modules\platform\board\include\sr5e1\evbe7000p.h ****      GPIO_MODE_PUPDR_FLOATING |                  \
  46:d:\project\9388\e1\2023_7_27\sr5e1_l9388_freeosek\modules\platform\board\include\sr5e1\evbe7000p.h ****      GPIO_MODE_AFR(1U) |                         \
  47:d:\project\9388\e1\2023_7_27\sr5e1_l9388_freeosek\modules\platform\board\include\sr5e1\evbe7000p.h ****      GPIO_MODE_IHYSTR_CMOS |                     \
  48:d:\project\9388\e1\2023_7_27\sr5e1_l9388_freeosek\modules\platform\board\include\sr5e1\evbe7000p.h ****      GPIO_MODE_TRIGENR_IN_ENABLED |              \
  49:d:\project\9388\e1\2023_7_27\sr5e1_l9388_freeosek\modules\platform\board\include\sr5e1\evbe7000p.h ****      GPIO_MODE_SAFESELR_DISABLED |               \
  50:d:\project\9388\e1\2023_7_27\sr5e1_l9388_freeosek\modules\platform\board\include\sr5e1\evbe7000p.h ****      GPIO_MODE_SAFEVALR_LOW)
  51:d:\project\9388\e1\2023_7_27\sr5e1_l9388_freeosek\modules\platform\board\include\sr5e1\evbe7000p.h **** 
  52:d:\project\9388\e1\2023_7_27\sr5e1_l9388_freeosek\modules\platform\board\include\sr5e1\evbe7000p.h **** #define TIM16_CH1N gpio_iopack(GPIO_PORT_A, GPIO_PIN_1)
  53:d:\project\9388\e1\2023_7_27\sr5e1_l9388_freeosek\modules\platform\board\include\sr5e1\evbe7000p.h **** #define TIM16_CH1N_CFG                           \
  54:d:\project\9388\e1\2023_7_27\sr5e1_l9388_freeosek\modules\platform\board\include\sr5e1\evbe7000p.h ****     (GPIO_MODE_MODER_ALTERNATE |                 \
  55:d:\project\9388\e1\2023_7_27\sr5e1_l9388_freeosek\modules\platform\board\include\sr5e1\evbe7000p.h ****      GPIO_MODE_OTYPER_PUSHPULL |                 \
  56:d:\project\9388\e1\2023_7_27\sr5e1_l9388_freeosek\modules\platform\board\include\sr5e1\evbe7000p.h ****      GPIO_MODE_OSPEEDR_LOW |                     \
  57:d:\project\9388\e1\2023_7_27\sr5e1_l9388_freeosek\modules\platform\board\include\sr5e1\evbe7000p.h ****      GPIO_MODE_PUPDR_FLOATING |                  \
  58:d:\project\9388\e1\2023_7_27\sr5e1_l9388_freeosek\modules\platform\board\include\sr5e1\evbe7000p.h ****      GPIO_MODE_AFR(1U) |                         \
  59:d:\project\9388\e1\2023_7_27\sr5e1_l9388_freeosek\modules\platform\board\include\sr5e1\evbe7000p.h ****      GPIO_MODE_IHYSTR_CMOS |                     \
  60:d:\project\9388\e1\2023_7_27\sr5e1_l9388_freeosek\modules\platform\board\include\sr5e1\evbe7000p.h ****      GPIO_MODE_TRIGENR_IN_DISABLED |             \
  61:d:\project\9388\e1\2023_7_27\sr5e1_l9388_freeosek\modules\platform\board\include\sr5e1\evbe7000p.h ****      GPIO_MODE_SAFESELR_DISABLED |               \
  62:d:\project\9388\e1\2023_7_27\sr5e1_l9388_freeosek\modules\platform\board\include\sr5e1\evbe7000p.h ****      GPIO_MODE_SAFEVALR_LOW)
  63:d:\project\9388\e1\2023_7_27\sr5e1_l9388_freeosek\modules\platform\board\include\sr5e1\evbe7000p.h **** 
  64:d:\project\9388\e1\2023_7_27\sr5e1_l9388_freeosek\modules\platform\board\include\sr5e1\evbe7000p.h **** #define TIM16_BKIN gpio_iopack(GPIO_PORT_A, GPIO_PIN_2)
  65:d:\project\9388\e1\2023_7_27\sr5e1_l9388_freeosek\modules\platform\board\include\sr5e1\evbe7000p.h **** #define TIM16_BKIN_CFG                           \
  66:d:\project\9388\e1\2023_7_27\sr5e1_l9388_freeosek\modules\platform\board\include\sr5e1\evbe7000p.h ****     (GPIO_MODE_MODER_ALTERNATE |                 \
  67:d:\project\9388\e1\2023_7_27\sr5e1_l9388_freeosek\modules\platform\board\include\sr5e1\evbe7000p.h ****      GPIO_MODE_OTYPER_PUSHPULL |                 \
  68:d:\project\9388\e1\2023_7_27\sr5e1_l9388_freeosek\modules\platform\board\include\sr5e1\evbe7000p.h ****      GPIO_MODE_OSPEEDR_LOW |                     \
  69:d:\project\9388\e1\2023_7_27\sr5e1_l9388_freeosek\modules\platform\board\include\sr5e1\evbe7000p.h ****      GPIO_MODE_PUPDR_FLOATING |                  \
  70:d:\project\9388\e1\2023_7_27\sr5e1_l9388_freeosek\modules\platform\board\include\sr5e1\evbe7000p.h ****      GPIO_MODE_AFR(1U) |                         \
  71:d:\project\9388\e1\2023_7_27\sr5e1_l9388_freeosek\modules\platform\board\include\sr5e1\evbe7000p.h ****      GPIO_MODE_IHYSTR_CMOS |                     \
  72:d:\project\9388\e1\2023_7_27\sr5e1_l9388_freeosek\modules\platform\board\include\sr5e1\evbe7000p.h ****      GPIO_MODE_TRIGENR_IN_ENABLED |              \
  73:d:\project\9388\e1\2023_7_27\sr5e1_l9388_freeosek\modules\platform\board\include\sr5e1\evbe7000p.h ****      GPIO_MODE_SAFESELR_DISABLED |               \
  74:d:\project\9388\e1\2023_7_27\sr5e1_l9388_freeosek\modules\platform\board\include\sr5e1\evbe7000p.h ****      GPIO_MODE_SAFEVALR_LOW)
  75:d:\project\9388\e1\2023_7_27\sr5e1_l9388_freeosek\modules\platform\board\include\sr5e1\evbe7000p.h **** 
  76:d:\project\9388\e1\2023_7_27\sr5e1_l9388_freeosek\modules\platform\board\include\sr5e1\evbe7000p.h **** #define TIM8_ETR gpio_iopack(GPIO_PORT_A, GPIO_PIN_3)
  77:d:\project\9388\e1\2023_7_27\sr5e1_l9388_freeosek\modules\platform\board\include\sr5e1\evbe7000p.h **** #define TIM8_ETR_CFG                             \
  78:d:\project\9388\e1\2023_7_27\sr5e1_l9388_freeosek\modules\platform\board\include\sr5e1\evbe7000p.h ****     (GPIO_MODE_MODER_ALTERNATE |                 \
  79:d:\project\9388\e1\2023_7_27\sr5e1_l9388_freeosek\modules\platform\board\include\sr5e1\evbe7000p.h ****      GPIO_MODE_OTYPER_PUSHPULL |                 \
  80:d:\project\9388\e1\2023_7_27\sr5e1_l9388_freeosek\modules\platform\board\include\sr5e1\evbe7000p.h ****      GPIO_MODE_OSPEEDR_LOW |                     \
  81:d:\project\9388\e1\2023_7_27\sr5e1_l9388_freeosek\modules\platform\board\include\sr5e1\evbe7000p.h ****      GPIO_MODE_PUPDR_FLOATING |                  \
  82:d:\project\9388\e1\2023_7_27\sr5e1_l9388_freeosek\modules\platform\board\include\sr5e1\evbe7000p.h ****      GPIO_MODE_AFR(4U) |                         \
  83:d:\project\9388\e1\2023_7_27\sr5e1_l9388_freeosek\modules\platform\board\include\sr5e1\evbe7000p.h ****      GPIO_MODE_IHYSTR_CMOS |                     \
  84:d:\project\9388\e1\2023_7_27\sr5e1_l9388_freeosek\modules\platform\board\include\sr5e1\evbe7000p.h ****      GPIO_MODE_TRIGENR_IN_ENABLED |              \
  85:d:\project\9388\e1\2023_7_27\sr5e1_l9388_freeosek\modules\platform\board\include\sr5e1\evbe7000p.h ****      GPIO_MODE_SAFESELR_DISABLED |               \
  86:d:\project\9388\e1\2023_7_27\sr5e1_l9388_freeosek\modules\platform\board\include\sr5e1\evbe7000p.h ****      GPIO_MODE_SAFEVALR_LOW)
  87:d:\project\9388\e1\2023_7_27\sr5e1_l9388_freeosek\modules\platform\board\include\sr5e1\evbe7000p.h **** 
  88:d:\project\9388\e1\2023_7_27\sr5e1_l9388_freeosek\modules\platform\board\include\sr5e1\evbe7000p.h **** #define CAN1_RX gpio_iopack(GPIO_PORT_A, GPIO_PIN_4)
  89:d:\project\9388\e1\2023_7_27\sr5e1_l9388_freeosek\modules\platform\board\include\sr5e1\evbe7000p.h **** #define CAN1_RX_CFG                              \
  90:d:\project\9388\e1\2023_7_27\sr5e1_l9388_freeosek\modules\platform\board\include\sr5e1\evbe7000p.h ****     (GPIO_MODE_MODER_ALTERNATE |                 \
  91:d:\project\9388\e1\2023_7_27\sr5e1_l9388_freeosek\modules\platform\board\include\sr5e1\evbe7000p.h ****      GPIO_MODE_OTYPER_PUSHPULL |                 \
  92:d:\project\9388\e1\2023_7_27\sr5e1_l9388_freeosek\modules\platform\board\include\sr5e1\evbe7000p.h ****      GPIO_MODE_OSPEEDR_HIGH |                    \
  93:d:\project\9388\e1\2023_7_27\sr5e1_l9388_freeosek\modules\platform\board\include\sr5e1\evbe7000p.h ****      GPIO_MODE_PUPDR_FLOATING |                  \
  94:d:\project\9388\e1\2023_7_27\sr5e1_l9388_freeosek\modules\platform\board\include\sr5e1\evbe7000p.h ****      GPIO_MODE_AFR(6U) |                         \
  95:d:\project\9388\e1\2023_7_27\sr5e1_l9388_freeosek\modules\platform\board\include\sr5e1\evbe7000p.h ****      GPIO_MODE_IHYSTR_CMOS |                     \
  96:d:\project\9388\e1\2023_7_27\sr5e1_l9388_freeosek\modules\platform\board\include\sr5e1\evbe7000p.h ****      GPIO_MODE_TRIGENR_IN_ENABLED |              \
  97:d:\project\9388\e1\2023_7_27\sr5e1_l9388_freeosek\modules\platform\board\include\sr5e1\evbe7000p.h ****      GPIO_MODE_SAFESELR_DISABLED |               \
  98:d:\project\9388\e1\2023_7_27\sr5e1_l9388_freeosek\modules\platform\board\include\sr5e1\evbe7000p.h ****      GPIO_MODE_SAFEVALR_LOW)
  99:d:\project\9388\e1\2023_7_27\sr5e1_l9388_freeosek\modules\platform\board\include\sr5e1\evbe7000p.h **** 
 100:d:\project\9388\e1\2023_7_27\sr5e1_l9388_freeosek\modules\platform\board\include\sr5e1\evbe7000p.h **** #define CAN1_TX gpio_iopack(GPIO_PORT_A, GPIO_PIN_5)
 101:d:\project\9388\e1\2023_7_27\sr5e1_l9388_freeosek\modules\platform\board\include\sr5e1\evbe7000p.h **** #define CAN1_TX_CFG                              \
 102:d:\project\9388\e1\2023_7_27\sr5e1_l9388_freeosek\modules\platform\board\include\sr5e1\evbe7000p.h ****     (GPIO_MODE_MODER_ALTERNATE |                 \
 103:d:\project\9388\e1\2023_7_27\sr5e1_l9388_freeosek\modules\platform\board\include\sr5e1\evbe7000p.h ****      GPIO_MODE_OTYPER_PUSHPULL |                 \
 104:d:\project\9388\e1\2023_7_27\sr5e1_l9388_freeosek\modules\platform\board\include\sr5e1\evbe7000p.h ****      GPIO_MODE_OSPEEDR_HIGH |                    \
 105:d:\project\9388\e1\2023_7_27\sr5e1_l9388_freeosek\modules\platform\board\include\sr5e1\evbe7000p.h ****      GPIO_MODE_PUPDR_FLOATING |                  \
 106:d:\project\9388\e1\2023_7_27\sr5e1_l9388_freeosek\modules\platform\board\include\sr5e1\evbe7000p.h ****      GPIO_MODE_AFR(6U) |                         \
 107:d:\project\9388\e1\2023_7_27\sr5e1_l9388_freeosek\modules\platform\board\include\sr5e1\evbe7000p.h ****      GPIO_MODE_IHYSTR_CMOS |                     \
 108:d:\project\9388\e1\2023_7_27\sr5e1_l9388_freeosek\modules\platform\board\include\sr5e1\evbe7000p.h ****      GPIO_MODE_TRIGENR_IN_DISABLED |             \
 109:d:\project\9388\e1\2023_7_27\sr5e1_l9388_freeosek\modules\platform\board\include\sr5e1\evbe7000p.h ****      GPIO_MODE_SAFESELR_DISABLED |               \
 110:d:\project\9388\e1\2023_7_27\sr5e1_l9388_freeosek\modules\platform\board\include\sr5e1\evbe7000p.h ****      GPIO_MODE_SAFEVALR_LOW)
 111:d:\project\9388\e1\2023_7_27\sr5e1_l9388_freeosek\modules\platform\board\include\sr5e1\evbe7000p.h **** 
 112:d:\project\9388\e1\2023_7_27\sr5e1_l9388_freeosek\modules\platform\board\include\sr5e1\evbe7000p.h **** #define I2C_SDA gpio_iopack(GPIO_PORT_A, GPIO_PIN_6)
 113:d:\project\9388\e1\2023_7_27\sr5e1_l9388_freeosek\modules\platform\board\include\sr5e1\evbe7000p.h **** #define I2C_SDA_CFG                              \
 114:d:\project\9388\e1\2023_7_27\sr5e1_l9388_freeosek\modules\platform\board\include\sr5e1\evbe7000p.h ****     (GPIO_MODE_MODER_ALTERNATE |                 \
 115:d:\project\9388\e1\2023_7_27\sr5e1_l9388_freeosek\modules\platform\board\include\sr5e1\evbe7000p.h ****      GPIO_MODE_OTYPER_PUSHPULL |                 \
 116:d:\project\9388\e1\2023_7_27\sr5e1_l9388_freeosek\modules\platform\board\include\sr5e1\evbe7000p.h ****      GPIO_MODE_OSPEEDR_LOW |                     \
 117:d:\project\9388\e1\2023_7_27\sr5e1_l9388_freeosek\modules\platform\board\include\sr5e1\evbe7000p.h ****      GPIO_MODE_PUPDR_FLOATING |                  \
 118:d:\project\9388\e1\2023_7_27\sr5e1_l9388_freeosek\modules\platform\board\include\sr5e1\evbe7000p.h ****      GPIO_MODE_AFR(6U) |                         \
 119:d:\project\9388\e1\2023_7_27\sr5e1_l9388_freeosek\modules\platform\board\include\sr5e1\evbe7000p.h ****      GPIO_MODE_IHYSTR_CMOS |                     \
 120:d:\project\9388\e1\2023_7_27\sr5e1_l9388_freeosek\modules\platform\board\include\sr5e1\evbe7000p.h ****      GPIO_MODE_TRIGENR_IN_ENABLED |              \
 121:d:\project\9388\e1\2023_7_27\sr5e1_l9388_freeosek\modules\platform\board\include\sr5e1\evbe7000p.h ****      GPIO_MODE_SAFESELR_DISABLED |               \
 122:d:\project\9388\e1\2023_7_27\sr5e1_l9388_freeosek\modules\platform\board\include\sr5e1\evbe7000p.h ****      GPIO_MODE_SAFEVALR_LOW)
 123:d:\project\9388\e1\2023_7_27\sr5e1_l9388_freeosek\modules\platform\board\include\sr5e1\evbe7000p.h **** 
 124:d:\project\9388\e1\2023_7_27\sr5e1_l9388_freeosek\modules\platform\board\include\sr5e1\evbe7000p.h **** #define I2C_SCL gpio_iopack(GPIO_PORT_A, GPIO_PIN_7)			  
 125:d:\project\9388\e1\2023_7_27\sr5e1_l9388_freeosek\modules\platform\board\include\sr5e1\evbe7000p.h **** #define I2C_SCL_CFG                              \
 126:d:\project\9388\e1\2023_7_27\sr5e1_l9388_freeosek\modules\platform\board\include\sr5e1\evbe7000p.h ****     (GPIO_MODE_MODER_ALTERNATE |                 \
 127:d:\project\9388\e1\2023_7_27\sr5e1_l9388_freeosek\modules\platform\board\include\sr5e1\evbe7000p.h ****      GPIO_MODE_OTYPER_PUSHPULL |                 \
 128:d:\project\9388\e1\2023_7_27\sr5e1_l9388_freeosek\modules\platform\board\include\sr5e1\evbe7000p.h ****      GPIO_MODE_OSPEEDR_LOW |                     \
 129:d:\project\9388\e1\2023_7_27\sr5e1_l9388_freeosek\modules\platform\board\include\sr5e1\evbe7000p.h ****      GPIO_MODE_PUPDR_FLOATING |                  \
 130:d:\project\9388\e1\2023_7_27\sr5e1_l9388_freeosek\modules\platform\board\include\sr5e1\evbe7000p.h ****      GPIO_MODE_AFR(6U) |                         \
 131:d:\project\9388\e1\2023_7_27\sr5e1_l9388_freeosek\modules\platform\board\include\sr5e1\evbe7000p.h ****      GPIO_MODE_IHYSTR_CMOS |                     \
 132:d:\project\9388\e1\2023_7_27\sr5e1_l9388_freeosek\modules\platform\board\include\sr5e1\evbe7000p.h ****      GPIO_MODE_TRIGENR_IN_ENABLED |              \
 133:d:\project\9388\e1\2023_7_27\sr5e1_l9388_freeosek\modules\platform\board\include\sr5e1\evbe7000p.h ****      GPIO_MODE_SAFESELR_DISABLED |               \
 134:d:\project\9388\e1\2023_7_27\sr5e1_l9388_freeosek\modules\platform\board\include\sr5e1\evbe7000p.h ****      GPIO_MODE_SAFEVALR_LOW)
 135:d:\project\9388\e1\2023_7_27\sr5e1_l9388_freeosek\modules\platform\board\include\sr5e1\evbe7000p.h **** 
 136:d:\project\9388\e1\2023_7_27\sr5e1_l9388_freeosek\modules\platform\board\include\sr5e1\evbe7000p.h **** #define I2C_SMBA gpio_iopack(GPIO_PORT_A, GPIO_PIN_8)
 137:d:\project\9388\e1\2023_7_27\sr5e1_l9388_freeosek\modules\platform\board\include\sr5e1\evbe7000p.h **** #define I2C_SMBA_CFG                             \
 138:d:\project\9388\e1\2023_7_27\sr5e1_l9388_freeosek\modules\platform\board\include\sr5e1\evbe7000p.h ****     (GPIO_MODE_MODER_ALTERNATE |                 \
 139:d:\project\9388\e1\2023_7_27\sr5e1_l9388_freeosek\modules\platform\board\include\sr5e1\evbe7000p.h ****      GPIO_MODE_OTYPER_PUSHPULL |                 \
 140:d:\project\9388\e1\2023_7_27\sr5e1_l9388_freeosek\modules\platform\board\include\sr5e1\evbe7000p.h ****      GPIO_MODE_OSPEEDR_LOW |                     \
 141:d:\project\9388\e1\2023_7_27\sr5e1_l9388_freeosek\modules\platform\board\include\sr5e1\evbe7000p.h ****      GPIO_MODE_PUPDR_FLOATING |                  \
 142:d:\project\9388\e1\2023_7_27\sr5e1_l9388_freeosek\modules\platform\board\include\sr5e1\evbe7000p.h ****      GPIO_MODE_AFR(6U) |                         \
 143:d:\project\9388\e1\2023_7_27\sr5e1_l9388_freeosek\modules\platform\board\include\sr5e1\evbe7000p.h ****      GPIO_MODE_IHYSTR_CMOS |                     \
 144:d:\project\9388\e1\2023_7_27\sr5e1_l9388_freeosek\modules\platform\board\include\sr5e1\evbe7000p.h ****      GPIO_MODE_TRIGENR_IN_ENABLED |              \
 145:d:\project\9388\e1\2023_7_27\sr5e1_l9388_freeosek\modules\platform\board\include\sr5e1\evbe7000p.h ****      GPIO_MODE_SAFESELR_DISABLED |               \
 146:d:\project\9388\e1\2023_7_27\sr5e1_l9388_freeosek\modules\platform\board\include\sr5e1\evbe7000p.h ****      GPIO_MODE_SAFEVALR_LOW)
 147:d:\project\9388\e1\2023_7_27\sr5e1_l9388_freeosek\modules\platform\board\include\sr5e1\evbe7000p.h **** 
 148:d:\project\9388\e1\2023_7_27\sr5e1_l9388_freeosek\modules\platform\board\include\sr5e1\evbe7000p.h **** #define CAN2_TX gpio_iopack(GPIO_PORT_A, GPIO_PIN_11)
 149:d:\project\9388\e1\2023_7_27\sr5e1_l9388_freeosek\modules\platform\board\include\sr5e1\evbe7000p.h **** #define CAN2_TX_CFG                              \
 150:d:\project\9388\e1\2023_7_27\sr5e1_l9388_freeosek\modules\platform\board\include\sr5e1\evbe7000p.h ****     (GPIO_MODE_MODER_ALTERNATE |                 \
 151:d:\project\9388\e1\2023_7_27\sr5e1_l9388_freeosek\modules\platform\board\include\sr5e1\evbe7000p.h ****      GPIO_MODE_OTYPER_PUSHPULL |                 \
 152:d:\project\9388\e1\2023_7_27\sr5e1_l9388_freeosek\modules\platform\board\include\sr5e1\evbe7000p.h ****      GPIO_MODE_OSPEEDR_HIGH |                    \
 153:d:\project\9388\e1\2023_7_27\sr5e1_l9388_freeosek\modules\platform\board\include\sr5e1\evbe7000p.h ****      GPIO_MODE_PUPDR_FLOATING |                  \
 154:d:\project\9388\e1\2023_7_27\sr5e1_l9388_freeosek\modules\platform\board\include\sr5e1\evbe7000p.h ****      GPIO_MODE_AFR(6U) |                         \
 155:d:\project\9388\e1\2023_7_27\sr5e1_l9388_freeosek\modules\platform\board\include\sr5e1\evbe7000p.h ****      GPIO_MODE_IHYSTR_CMOS |                     \
 156:d:\project\9388\e1\2023_7_27\sr5e1_l9388_freeosek\modules\platform\board\include\sr5e1\evbe7000p.h ****      GPIO_MODE_TRIGENR_IN_DISABLED |             \
 157:d:\project\9388\e1\2023_7_27\sr5e1_l9388_freeosek\modules\platform\board\include\sr5e1\evbe7000p.h ****      GPIO_MODE_SAFESELR_DISABLED |               \
 158:d:\project\9388\e1\2023_7_27\sr5e1_l9388_freeosek\modules\platform\board\include\sr5e1\evbe7000p.h ****      GPIO_MODE_SAFEVALR_LOW)
 159:d:\project\9388\e1\2023_7_27\sr5e1_l9388_freeosek\modules\platform\board\include\sr5e1\evbe7000p.h **** 
 160:d:\project\9388\e1\2023_7_27\sr5e1_l9388_freeosek\modules\platform\board\include\sr5e1\evbe7000p.h **** #define CAN2_RX gpio_iopack(GPIO_PORT_A, GPIO_PIN_12)
 161:d:\project\9388\e1\2023_7_27\sr5e1_l9388_freeosek\modules\platform\board\include\sr5e1\evbe7000p.h **** #define CAN2_RX_CFG                              \
 162:d:\project\9388\e1\2023_7_27\sr5e1_l9388_freeosek\modules\platform\board\include\sr5e1\evbe7000p.h ****     (GPIO_MODE_MODER_ALTERNATE |                 \
 163:d:\project\9388\e1\2023_7_27\sr5e1_l9388_freeosek\modules\platform\board\include\sr5e1\evbe7000p.h ****      GPIO_MODE_OTYPER_PUSHPULL |                 \
 164:d:\project\9388\e1\2023_7_27\sr5e1_l9388_freeosek\modules\platform\board\include\sr5e1\evbe7000p.h ****      GPIO_MODE_OSPEEDR_HIGH |                    \
 165:d:\project\9388\e1\2023_7_27\sr5e1_l9388_freeosek\modules\platform\board\include\sr5e1\evbe7000p.h ****      GPIO_MODE_PUPDR_FLOATING |                  \
 166:d:\project\9388\e1\2023_7_27\sr5e1_l9388_freeosek\modules\platform\board\include\sr5e1\evbe7000p.h ****      GPIO_MODE_AFR(6U) |                         \
 167:d:\project\9388\e1\2023_7_27\sr5e1_l9388_freeosek\modules\platform\board\include\sr5e1\evbe7000p.h ****      GPIO_MODE_IHYSTR_CMOS |                     \
 168:d:\project\9388\e1\2023_7_27\sr5e1_l9388_freeosek\modules\platform\board\include\sr5e1\evbe7000p.h ****      GPIO_MODE_TRIGENR_IN_ENABLED |              \
 169:d:\project\9388\e1\2023_7_27\sr5e1_l9388_freeosek\modules\platform\board\include\sr5e1\evbe7000p.h ****      GPIO_MODE_SAFESELR_DISABLED |               \
 170:d:\project\9388\e1\2023_7_27\sr5e1_l9388_freeosek\modules\platform\board\include\sr5e1\evbe7000p.h ****      GPIO_MODE_SAFEVALR_LOW)
 171:d:\project\9388\e1\2023_7_27\sr5e1_l9388_freeosek\modules\platform\board\include\sr5e1\evbe7000p.h **** 
 172:d:\project\9388\e1\2023_7_27\sr5e1_l9388_freeosek\modules\platform\board\include\sr5e1\evbe7000p.h **** #define SDADC_1_0_IO gpio_iopack(GPIO_PORT_A, GPIO_PIN_13)
 173:d:\project\9388\e1\2023_7_27\sr5e1_l9388_freeosek\modules\platform\board\include\sr5e1\evbe7000p.h **** #define SDADC_1_0_IO_CFG                         \
 174:d:\project\9388\e1\2023_7_27\sr5e1_l9388_freeosek\modules\platform\board\include\sr5e1\evbe7000p.h ****     (GPIO_MODE_MODER_ANALOG |                    \
 175:d:\project\9388\e1\2023_7_27\sr5e1_l9388_freeosek\modules\platform\board\include\sr5e1\evbe7000p.h ****      GPIO_MODE_OTYPER_PUSHPULL |                 \
 176:d:\project\9388\e1\2023_7_27\sr5e1_l9388_freeosek\modules\platform\board\include\sr5e1\evbe7000p.h ****      GPIO_MODE_OSPEEDR_LOW |                     \
 177:d:\project\9388\e1\2023_7_27\sr5e1_l9388_freeosek\modules\platform\board\include\sr5e1\evbe7000p.h ****      GPIO_MODE_PUPDR_FLOATING |                  \
 178:d:\project\9388\e1\2023_7_27\sr5e1_l9388_freeosek\modules\platform\board\include\sr5e1\evbe7000p.h ****      GPIO_MODE_AFR(0U) |                         \
 179:d:\project\9388\e1\2023_7_27\sr5e1_l9388_freeosek\modules\platform\board\include\sr5e1\evbe7000p.h ****      GPIO_MODE_IHYSTR_CMOS |                     \
 180:d:\project\9388\e1\2023_7_27\sr5e1_l9388_freeosek\modules\platform\board\include\sr5e1\evbe7000p.h ****      GPIO_MODE_TRIGENR_IN_ENABLED |              \
 181:d:\project\9388\e1\2023_7_27\sr5e1_l9388_freeosek\modules\platform\board\include\sr5e1\evbe7000p.h ****      GPIO_MODE_SAFESELR_DISABLED |               \
 182:d:\project\9388\e1\2023_7_27\sr5e1_l9388_freeosek\modules\platform\board\include\sr5e1\evbe7000p.h ****      GPIO_MODE_SAFEVALR_LOW)
 183:d:\project\9388\e1\2023_7_27\sr5e1_l9388_freeosek\modules\platform\board\include\sr5e1\evbe7000p.h **** 
 184:d:\project\9388\e1\2023_7_27\sr5e1_l9388_freeosek\modules\platform\board\include\sr5e1\evbe7000p.h **** #define SDADC_1_1_IO gpio_iopack(GPIO_PORT_A, GPIO_PIN_14)
 185:d:\project\9388\e1\2023_7_27\sr5e1_l9388_freeosek\modules\platform\board\include\sr5e1\evbe7000p.h **** #define SDADC_1_1_IO_CFG                         \
 186:d:\project\9388\e1\2023_7_27\sr5e1_l9388_freeosek\modules\platform\board\include\sr5e1\evbe7000p.h ****     (GPIO_MODE_MODER_ANALOG |                    \
 187:d:\project\9388\e1\2023_7_27\sr5e1_l9388_freeosek\modules\platform\board\include\sr5e1\evbe7000p.h ****      GPIO_MODE_OTYPER_PUSHPULL |                 \
 188:d:\project\9388\e1\2023_7_27\sr5e1_l9388_freeosek\modules\platform\board\include\sr5e1\evbe7000p.h ****      GPIO_MODE_OSPEEDR_LOW |                     \
 189:d:\project\9388\e1\2023_7_27\sr5e1_l9388_freeosek\modules\platform\board\include\sr5e1\evbe7000p.h ****      GPIO_MODE_PUPDR_FLOATING |                  \
 190:d:\project\9388\e1\2023_7_27\sr5e1_l9388_freeosek\modules\platform\board\include\sr5e1\evbe7000p.h ****      GPIO_MODE_AFR(0U) |                         \
 191:d:\project\9388\e1\2023_7_27\sr5e1_l9388_freeosek\modules\platform\board\include\sr5e1\evbe7000p.h ****      GPIO_MODE_IHYSTR_CMOS |                     \
 192:d:\project\9388\e1\2023_7_27\sr5e1_l9388_freeosek\modules\platform\board\include\sr5e1\evbe7000p.h ****      GPIO_MODE_TRIGENR_IN_ENABLED |              \
 193:d:\project\9388\e1\2023_7_27\sr5e1_l9388_freeosek\modules\platform\board\include\sr5e1\evbe7000p.h ****      GPIO_MODE_SAFESELR_DISABLED |               \
 194:d:\project\9388\e1\2023_7_27\sr5e1_l9388_freeosek\modules\platform\board\include\sr5e1\evbe7000p.h ****      GPIO_MODE_SAFEVALR_LOW)
 195:d:\project\9388\e1\2023_7_27\sr5e1_l9388_freeosek\modules\platform\board\include\sr5e1\evbe7000p.h **** 
 196:d:\project\9388\e1\2023_7_27\sr5e1_l9388_freeosek\modules\platform\board\include\sr5e1\evbe7000p.h **** #define SDADC_2_0_IO gpio_iopack(GPIO_PORT_A, GPIO_PIN_15)
 197:d:\project\9388\e1\2023_7_27\sr5e1_l9388_freeosek\modules\platform\board\include\sr5e1\evbe7000p.h **** #define SDADC_2_0_IO_CFG                         \
 198:d:\project\9388\e1\2023_7_27\sr5e1_l9388_freeosek\modules\platform\board\include\sr5e1\evbe7000p.h ****     (GPIO_MODE_MODER_ANALOG |                    \
 199:d:\project\9388\e1\2023_7_27\sr5e1_l9388_freeosek\modules\platform\board\include\sr5e1\evbe7000p.h ****      GPIO_MODE_OTYPER_PUSHPULL |                 \
 200:d:\project\9388\e1\2023_7_27\sr5e1_l9388_freeosek\modules\platform\board\include\sr5e1\evbe7000p.h ****      GPIO_MODE_OSPEEDR_LOW |                     \
 201:d:\project\9388\e1\2023_7_27\sr5e1_l9388_freeosek\modules\platform\board\include\sr5e1\evbe7000p.h ****      GPIO_MODE_PUPDR_FLOATING |                  \
 202:d:\project\9388\e1\2023_7_27\sr5e1_l9388_freeosek\modules\platform\board\include\sr5e1\evbe7000p.h ****      GPIO_MODE_AFR(0U) |                         \
 203:d:\project\9388\e1\2023_7_27\sr5e1_l9388_freeosek\modules\platform\board\include\sr5e1\evbe7000p.h ****      GPIO_MODE_IHYSTR_CMOS |                     \
 204:d:\project\9388\e1\2023_7_27\sr5e1_l9388_freeosek\modules\platform\board\include\sr5e1\evbe7000p.h ****      GPIO_MODE_TRIGENR_IN_ENABLED |              \
 205:d:\project\9388\e1\2023_7_27\sr5e1_l9388_freeosek\modules\platform\board\include\sr5e1\evbe7000p.h ****      GPIO_MODE_SAFESELR_DISABLED |               \
 206:d:\project\9388\e1\2023_7_27\sr5e1_l9388_freeosek\modules\platform\board\include\sr5e1\evbe7000p.h ****      GPIO_MODE_SAFEVALR_LOW)
 207:d:\project\9388\e1\2023_7_27\sr5e1_l9388_freeosek\modules\platform\board\include\sr5e1\evbe7000p.h **** 
 208:d:\project\9388\e1\2023_7_27\sr5e1_l9388_freeosek\modules\platform\board\include\sr5e1\evbe7000p.h **** /* PortB pin settings. */
 209:d:\project\9388\e1\2023_7_27\sr5e1_l9388_freeosek\modules\platform\board\include\sr5e1\evbe7000p.h **** #define SDADC_2_1_IO gpio_iopack(GPIO_PORT_B, GPIO_PIN_0)
 210:d:\project\9388\e1\2023_7_27\sr5e1_l9388_freeosek\modules\platform\board\include\sr5e1\evbe7000p.h **** #define SDADC_2_1_IO_CFG                         \
 211:d:\project\9388\e1\2023_7_27\sr5e1_l9388_freeosek\modules\platform\board\include\sr5e1\evbe7000p.h ****     (GPIO_MODE_MODER_ANALOG |                    \
 212:d:\project\9388\e1\2023_7_27\sr5e1_l9388_freeosek\modules\platform\board\include\sr5e1\evbe7000p.h ****      GPIO_MODE_OTYPER_PUSHPULL |                 \
 213:d:\project\9388\e1\2023_7_27\sr5e1_l9388_freeosek\modules\platform\board\include\sr5e1\evbe7000p.h ****      GPIO_MODE_OSPEEDR_LOW |                     \
 214:d:\project\9388\e1\2023_7_27\sr5e1_l9388_freeosek\modules\platform\board\include\sr5e1\evbe7000p.h ****      GPIO_MODE_PUPDR_FLOATING |                  \
 215:d:\project\9388\e1\2023_7_27\sr5e1_l9388_freeosek\modules\platform\board\include\sr5e1\evbe7000p.h ****      GPIO_MODE_AFR(0U) |                         \
 216:d:\project\9388\e1\2023_7_27\sr5e1_l9388_freeosek\modules\platform\board\include\sr5e1\evbe7000p.h ****      GPIO_MODE_IHYSTR_CMOS |                     \
 217:d:\project\9388\e1\2023_7_27\sr5e1_l9388_freeosek\modules\platform\board\include\sr5e1\evbe7000p.h ****      GPIO_MODE_TRIGENR_IN_ENABLED |              \
 218:d:\project\9388\e1\2023_7_27\sr5e1_l9388_freeosek\modules\platform\board\include\sr5e1\evbe7000p.h ****      GPIO_MODE_SAFESELR_DISABLED |               \
 219:d:\project\9388\e1\2023_7_27\sr5e1_l9388_freeosek\modules\platform\board\include\sr5e1\evbe7000p.h ****      GPIO_MODE_SAFEVALR_LOW)
 220:d:\project\9388\e1\2023_7_27\sr5e1_l9388_freeosek\modules\platform\board\include\sr5e1\evbe7000p.h **** 
 221:d:\project\9388\e1\2023_7_27\sr5e1_l9388_freeosek\modules\platform\board\include\sr5e1\evbe7000p.h **** #define DAC_1_IO gpio_iopack(GPIO_PORT_B, GPIO_PIN_1)
 222:d:\project\9388\e1\2023_7_27\sr5e1_l9388_freeosek\modules\platform\board\include\sr5e1\evbe7000p.h **** #define DAC_1_IO_CFG                             \
 223:d:\project\9388\e1\2023_7_27\sr5e1_l9388_freeosek\modules\platform\board\include\sr5e1\evbe7000p.h ****     (GPIO_MODE_MODER_ANALOG |                    \
 224:d:\project\9388\e1\2023_7_27\sr5e1_l9388_freeosek\modules\platform\board\include\sr5e1\evbe7000p.h ****      GPIO_MODE_OTYPER_PUSHPULL |                 \
 225:d:\project\9388\e1\2023_7_27\sr5e1_l9388_freeosek\modules\platform\board\include\sr5e1\evbe7000p.h ****      GPIO_MODE_OSPEEDR_LOW |                     \
 226:d:\project\9388\e1\2023_7_27\sr5e1_l9388_freeosek\modules\platform\board\include\sr5e1\evbe7000p.h ****      GPIO_MODE_PUPDR_FLOATING |                  \
 227:d:\project\9388\e1\2023_7_27\sr5e1_l9388_freeosek\modules\platform\board\include\sr5e1\evbe7000p.h ****      GPIO_MODE_AFR(0U) |                         \
 228:d:\project\9388\e1\2023_7_27\sr5e1_l9388_freeosek\modules\platform\board\include\sr5e1\evbe7000p.h ****      GPIO_MODE_IHYSTR_CMOS |                     \
 229:d:\project\9388\e1\2023_7_27\sr5e1_l9388_freeosek\modules\platform\board\include\sr5e1\evbe7000p.h ****      GPIO_MODE_TRIGENR_IN_DISABLED |             \
 230:d:\project\9388\e1\2023_7_27\sr5e1_l9388_freeosek\modules\platform\board\include\sr5e1\evbe7000p.h ****      GPIO_MODE_SAFESELR_DISABLED |               \
 231:d:\project\9388\e1\2023_7_27\sr5e1_l9388_freeosek\modules\platform\board\include\sr5e1\evbe7000p.h ****      GPIO_MODE_SAFEVALR_LOW)
 232:d:\project\9388\e1\2023_7_27\sr5e1_l9388_freeosek\modules\platform\board\include\sr5e1\evbe7000p.h **** 
 233:d:\project\9388\e1\2023_7_27\sr5e1_l9388_freeosek\modules\platform\board\include\sr5e1\evbe7000p.h **** #define SAR1_1_IO gpio_iopack(GPIO_PORT_B, GPIO_PIN_2)
 234:d:\project\9388\e1\2023_7_27\sr5e1_l9388_freeosek\modules\platform\board\include\sr5e1\evbe7000p.h **** #define SAR1_1_IO_CFG                            \
 235:d:\project\9388\e1\2023_7_27\sr5e1_l9388_freeosek\modules\platform\board\include\sr5e1\evbe7000p.h ****     (GPIO_MODE_MODER_ANALOG |                    \
 236:d:\project\9388\e1\2023_7_27\sr5e1_l9388_freeosek\modules\platform\board\include\sr5e1\evbe7000p.h ****      GPIO_MODE_OTYPER_PUSHPULL |                 \
 237:d:\project\9388\e1\2023_7_27\sr5e1_l9388_freeosek\modules\platform\board\include\sr5e1\evbe7000p.h ****      GPIO_MODE_OSPEEDR_LOW |                     \
 238:d:\project\9388\e1\2023_7_27\sr5e1_l9388_freeosek\modules\platform\board\include\sr5e1\evbe7000p.h ****      GPIO_MODE_PUPDR_FLOATING |                  \
 239:d:\project\9388\e1\2023_7_27\sr5e1_l9388_freeosek\modules\platform\board\include\sr5e1\evbe7000p.h ****      GPIO_MODE_AFR(0U) |                         \
 240:d:\project\9388\e1\2023_7_27\sr5e1_l9388_freeosek\modules\platform\board\include\sr5e1\evbe7000p.h ****      GPIO_MODE_IHYSTR_CMOS |                     \
 241:d:\project\9388\e1\2023_7_27\sr5e1_l9388_freeosek\modules\platform\board\include\sr5e1\evbe7000p.h ****      GPIO_MODE_TRIGENR_IN_ENABLED |              \
 242:d:\project\9388\e1\2023_7_27\sr5e1_l9388_freeosek\modules\platform\board\include\sr5e1\evbe7000p.h ****      GPIO_MODE_SAFESELR_DISABLED |               \
 243:d:\project\9388\e1\2023_7_27\sr5e1_l9388_freeosek\modules\platform\board\include\sr5e1\evbe7000p.h ****      GPIO_MODE_SAFEVALR_LOW)
 244:d:\project\9388\e1\2023_7_27\sr5e1_l9388_freeosek\modules\platform\board\include\sr5e1\evbe7000p.h **** 
 245:d:\project\9388\e1\2023_7_27\sr5e1_l9388_freeosek\modules\platform\board\include\sr5e1\evbe7000p.h **** #define SAR1_2_IO gpio_iopack(GPIO_PORT_B, GPIO_PIN_3)
 246:d:\project\9388\e1\2023_7_27\sr5e1_l9388_freeosek\modules\platform\board\include\sr5e1\evbe7000p.h **** #define SAR1_2_IO_CFG                            \
 247:d:\project\9388\e1\2023_7_27\sr5e1_l9388_freeosek\modules\platform\board\include\sr5e1\evbe7000p.h ****     (GPIO_MODE_MODER_ANALOG |                    \
 248:d:\project\9388\e1\2023_7_27\sr5e1_l9388_freeosek\modules\platform\board\include\sr5e1\evbe7000p.h ****      GPIO_MODE_OTYPER_PUSHPULL |                 \
 249:d:\project\9388\e1\2023_7_27\sr5e1_l9388_freeosek\modules\platform\board\include\sr5e1\evbe7000p.h ****      GPIO_MODE_OSPEEDR_LOW |                     \
 250:d:\project\9388\e1\2023_7_27\sr5e1_l9388_freeosek\modules\platform\board\include\sr5e1\evbe7000p.h ****      GPIO_MODE_PUPDR_FLOATING |                  \
 251:d:\project\9388\e1\2023_7_27\sr5e1_l9388_freeosek\modules\platform\board\include\sr5e1\evbe7000p.h ****      GPIO_MODE_AFR(0U) |                         \
 252:d:\project\9388\e1\2023_7_27\sr5e1_l9388_freeosek\modules\platform\board\include\sr5e1\evbe7000p.h ****      GPIO_MODE_IHYSTR_CMOS |                     \
 253:d:\project\9388\e1\2023_7_27\sr5e1_l9388_freeosek\modules\platform\board\include\sr5e1\evbe7000p.h ****      GPIO_MODE_TRIGENR_IN_ENABLED |              \
 254:d:\project\9388\e1\2023_7_27\sr5e1_l9388_freeosek\modules\platform\board\include\sr5e1\evbe7000p.h ****      GPIO_MODE_SAFESELR_DISABLED |               \
 255:d:\project\9388\e1\2023_7_27\sr5e1_l9388_freeosek\modules\platform\board\include\sr5e1\evbe7000p.h ****      GPIO_MODE_SAFEVALR_LOW)
 256:d:\project\9388\e1\2023_7_27\sr5e1_l9388_freeosek\modules\platform\board\include\sr5e1\evbe7000p.h **** 
 257:d:\project\9388\e1\2023_7_27\sr5e1_l9388_freeosek\modules\platform\board\include\sr5e1\evbe7000p.h **** #define SAR1_3_IO gpio_iopack(GPIO_PORT_B, GPIO_PIN_4)
 258:d:\project\9388\e1\2023_7_27\sr5e1_l9388_freeosek\modules\platform\board\include\sr5e1\evbe7000p.h **** #define SAR1_3_IO_CFG                            \
 259:d:\project\9388\e1\2023_7_27\sr5e1_l9388_freeosek\modules\platform\board\include\sr5e1\evbe7000p.h ****     (GPIO_MODE_MODER_ANALOG |                    \
 260:d:\project\9388\e1\2023_7_27\sr5e1_l9388_freeosek\modules\platform\board\include\sr5e1\evbe7000p.h ****      GPIO_MODE_OTYPER_PUSHPULL |                 \
 261:d:\project\9388\e1\2023_7_27\sr5e1_l9388_freeosek\modules\platform\board\include\sr5e1\evbe7000p.h ****      GPIO_MODE_OSPEEDR_LOW |                     \
 262:d:\project\9388\e1\2023_7_27\sr5e1_l9388_freeosek\modules\platform\board\include\sr5e1\evbe7000p.h ****      GPIO_MODE_PUPDR_FLOATING |                  \
 263:d:\project\9388\e1\2023_7_27\sr5e1_l9388_freeosek\modules\platform\board\include\sr5e1\evbe7000p.h ****      GPIO_MODE_AFR(0U) |                         \
 264:d:\project\9388\e1\2023_7_27\sr5e1_l9388_freeosek\modules\platform\board\include\sr5e1\evbe7000p.h ****      GPIO_MODE_IHYSTR_CMOS |                     \
 265:d:\project\9388\e1\2023_7_27\sr5e1_l9388_freeosek\modules\platform\board\include\sr5e1\evbe7000p.h ****      GPIO_MODE_TRIGENR_IN_ENABLED |              \
 266:d:\project\9388\e1\2023_7_27\sr5e1_l9388_freeosek\modules\platform\board\include\sr5e1\evbe7000p.h ****      GPIO_MODE_SAFESELR_DISABLED |               \
 267:d:\project\9388\e1\2023_7_27\sr5e1_l9388_freeosek\modules\platform\board\include\sr5e1\evbe7000p.h ****      GPIO_MODE_SAFEVALR_LOW)
 268:d:\project\9388\e1\2023_7_27\sr5e1_l9388_freeosek\modules\platform\board\include\sr5e1\evbe7000p.h **** 
 269:d:\project\9388\e1\2023_7_27\sr5e1_l9388_freeosek\modules\platform\board\include\sr5e1\evbe7000p.h **** #define SAR1_4_IO gpio_iopack(GPIO_PORT_B, GPIO_PIN_5)
 270:d:\project\9388\e1\2023_7_27\sr5e1_l9388_freeosek\modules\platform\board\include\sr5e1\evbe7000p.h **** #define SAR1_4_IO_CFG                            \
 271:d:\project\9388\e1\2023_7_27\sr5e1_l9388_freeosek\modules\platform\board\include\sr5e1\evbe7000p.h ****     (GPIO_MODE_MODER_ANALOG |                    \
 272:d:\project\9388\e1\2023_7_27\sr5e1_l9388_freeosek\modules\platform\board\include\sr5e1\evbe7000p.h ****      GPIO_MODE_OTYPER_PUSHPULL |                 \
 273:d:\project\9388\e1\2023_7_27\sr5e1_l9388_freeosek\modules\platform\board\include\sr5e1\evbe7000p.h ****      GPIO_MODE_OSPEEDR_LOW |                     \
 274:d:\project\9388\e1\2023_7_27\sr5e1_l9388_freeosek\modules\platform\board\include\sr5e1\evbe7000p.h ****      GPIO_MODE_PUPDR_FLOATING |                  \
 275:d:\project\9388\e1\2023_7_27\sr5e1_l9388_freeosek\modules\platform\board\include\sr5e1\evbe7000p.h ****      GPIO_MODE_AFR(0U) |                         \
 276:d:\project\9388\e1\2023_7_27\sr5e1_l9388_freeosek\modules\platform\board\include\sr5e1\evbe7000p.h ****      GPIO_MODE_IHYSTR_CMOS |                     \
 277:d:\project\9388\e1\2023_7_27\sr5e1_l9388_freeosek\modules\platform\board\include\sr5e1\evbe7000p.h ****      GPIO_MODE_TRIGENR_IN_ENABLED |              \
 278:d:\project\9388\e1\2023_7_27\sr5e1_l9388_freeosek\modules\platform\board\include\sr5e1\evbe7000p.h ****      GPIO_MODE_SAFESELR_DISABLED |               \
 279:d:\project\9388\e1\2023_7_27\sr5e1_l9388_freeosek\modules\platform\board\include\sr5e1\evbe7000p.h ****      GPIO_MODE_SAFEVALR_LOW)
 280:d:\project\9388\e1\2023_7_27\sr5e1_l9388_freeosek\modules\platform\board\include\sr5e1\evbe7000p.h **** 
 281:d:\project\9388\e1\2023_7_27\sr5e1_l9388_freeosek\modules\platform\board\include\sr5e1\evbe7000p.h **** #define SAR1_5_IO gpio_iopack(GPIO_PORT_B, GPIO_PIN_6)
 282:d:\project\9388\e1\2023_7_27\sr5e1_l9388_freeosek\modules\platform\board\include\sr5e1\evbe7000p.h **** #define SAR1_5_IO_CFG                            \
 283:d:\project\9388\e1\2023_7_27\sr5e1_l9388_freeosek\modules\platform\board\include\sr5e1\evbe7000p.h ****     (GPIO_MODE_MODER_ANALOG |                    \
 284:d:\project\9388\e1\2023_7_27\sr5e1_l9388_freeosek\modules\platform\board\include\sr5e1\evbe7000p.h ****      GPIO_MODE_OTYPER_PUSHPULL |                 \
 285:d:\project\9388\e1\2023_7_27\sr5e1_l9388_freeosek\modules\platform\board\include\sr5e1\evbe7000p.h ****      GPIO_MODE_OSPEEDR_LOW |                     \
 286:d:\project\9388\e1\2023_7_27\sr5e1_l9388_freeosek\modules\platform\board\include\sr5e1\evbe7000p.h ****      GPIO_MODE_PUPDR_FLOATING |                  \
 287:d:\project\9388\e1\2023_7_27\sr5e1_l9388_freeosek\modules\platform\board\include\sr5e1\evbe7000p.h ****      GPIO_MODE_AFR(0U) |                         \
 288:d:\project\9388\e1\2023_7_27\sr5e1_l9388_freeosek\modules\platform\board\include\sr5e1\evbe7000p.h ****      GPIO_MODE_IHYSTR_CMOS |                     \
 289:d:\project\9388\e1\2023_7_27\sr5e1_l9388_freeosek\modules\platform\board\include\sr5e1\evbe7000p.h ****      GPIO_MODE_TRIGENR_IN_ENABLED |              \
 290:d:\project\9388\e1\2023_7_27\sr5e1_l9388_freeosek\modules\platform\board\include\sr5e1\evbe7000p.h ****      GPIO_MODE_SAFESELR_DISABLED |               \
 291:d:\project\9388\e1\2023_7_27\sr5e1_l9388_freeosek\modules\platform\board\include\sr5e1\evbe7000p.h ****      GPIO_MODE_SAFEVALR_LOW)
 292:d:\project\9388\e1\2023_7_27\sr5e1_l9388_freeosek\modules\platform\board\include\sr5e1\evbe7000p.h **** 
 293:d:\project\9388\e1\2023_7_27\sr5e1_l9388_freeosek\modules\platform\board\include\sr5e1\evbe7000p.h **** #define SAR2_1_IO gpio_iopack(GPIO_PORT_B, GPIO_PIN_7)
 294:d:\project\9388\e1\2023_7_27\sr5e1_l9388_freeosek\modules\platform\board\include\sr5e1\evbe7000p.h **** #define SAR2_1_IO_CFG                            \
 295:d:\project\9388\e1\2023_7_27\sr5e1_l9388_freeosek\modules\platform\board\include\sr5e1\evbe7000p.h ****     (GPIO_MODE_MODER_ANALOG |                    \
 296:d:\project\9388\e1\2023_7_27\sr5e1_l9388_freeosek\modules\platform\board\include\sr5e1\evbe7000p.h ****      GPIO_MODE_OTYPER_PUSHPULL |                 \
 297:d:\project\9388\e1\2023_7_27\sr5e1_l9388_freeosek\modules\platform\board\include\sr5e1\evbe7000p.h ****      GPIO_MODE_OSPEEDR_LOW |                     \
 298:d:\project\9388\e1\2023_7_27\sr5e1_l9388_freeosek\modules\platform\board\include\sr5e1\evbe7000p.h ****      GPIO_MODE_PUPDR_FLOATING |                  \
 299:d:\project\9388\e1\2023_7_27\sr5e1_l9388_freeosek\modules\platform\board\include\sr5e1\evbe7000p.h ****      GPIO_MODE_AFR(0U) |                         \
 300:d:\project\9388\e1\2023_7_27\sr5e1_l9388_freeosek\modules\platform\board\include\sr5e1\evbe7000p.h ****      GPIO_MODE_IHYSTR_CMOS |                     \
 301:d:\project\9388\e1\2023_7_27\sr5e1_l9388_freeosek\modules\platform\board\include\sr5e1\evbe7000p.h ****      GPIO_MODE_TRIGENR_IN_ENABLED |              \
 302:d:\project\9388\e1\2023_7_27\sr5e1_l9388_freeosek\modules\platform\board\include\sr5e1\evbe7000p.h ****      GPIO_MODE_SAFESELR_DISABLED |               \
 303:d:\project\9388\e1\2023_7_27\sr5e1_l9388_freeosek\modules\platform\board\include\sr5e1\evbe7000p.h ****      GPIO_MODE_SAFEVALR_LOW)
 304:d:\project\9388\e1\2023_7_27\sr5e1_l9388_freeosek\modules\platform\board\include\sr5e1\evbe7000p.h **** 
 305:d:\project\9388\e1\2023_7_27\sr5e1_l9388_freeosek\modules\platform\board\include\sr5e1\evbe7000p.h **** #define SAR2_2_IO gpio_iopack(GPIO_PORT_B, GPIO_PIN_8)
 306:d:\project\9388\e1\2023_7_27\sr5e1_l9388_freeosek\modules\platform\board\include\sr5e1\evbe7000p.h **** #define SAR2_2_IO_CFG                            \
 307:d:\project\9388\e1\2023_7_27\sr5e1_l9388_freeosek\modules\platform\board\include\sr5e1\evbe7000p.h ****     (GPIO_MODE_MODER_ANALOG |                    \
 308:d:\project\9388\e1\2023_7_27\sr5e1_l9388_freeosek\modules\platform\board\include\sr5e1\evbe7000p.h ****      GPIO_MODE_OTYPER_PUSHPULL |                 \
 309:d:\project\9388\e1\2023_7_27\sr5e1_l9388_freeosek\modules\platform\board\include\sr5e1\evbe7000p.h ****      GPIO_MODE_OSPEEDR_LOW |                     \
 310:d:\project\9388\e1\2023_7_27\sr5e1_l9388_freeosek\modules\platform\board\include\sr5e1\evbe7000p.h ****      GPIO_MODE_PUPDR_FLOATING |                  \
 311:d:\project\9388\e1\2023_7_27\sr5e1_l9388_freeosek\modules\platform\board\include\sr5e1\evbe7000p.h ****      GPIO_MODE_AFR(0U) |                         \
 312:d:\project\9388\e1\2023_7_27\sr5e1_l9388_freeosek\modules\platform\board\include\sr5e1\evbe7000p.h ****      GPIO_MODE_IHYSTR_CMOS |                     \
 313:d:\project\9388\e1\2023_7_27\sr5e1_l9388_freeosek\modules\platform\board\include\sr5e1\evbe7000p.h ****      GPIO_MODE_TRIGENR_IN_ENABLED |              \
 314:d:\project\9388\e1\2023_7_27\sr5e1_l9388_freeosek\modules\platform\board\include\sr5e1\evbe7000p.h ****      GPIO_MODE_SAFESELR_DISABLED |               \
 315:d:\project\9388\e1\2023_7_27\sr5e1_l9388_freeosek\modules\platform\board\include\sr5e1\evbe7000p.h ****      GPIO_MODE_SAFEVALR_LOW)
 316:d:\project\9388\e1\2023_7_27\sr5e1_l9388_freeosek\modules\platform\board\include\sr5e1\evbe7000p.h **** 
 317:d:\project\9388\e1\2023_7_27\sr5e1_l9388_freeosek\modules\platform\board\include\sr5e1\evbe7000p.h **** #define SAR2_3_IO gpio_iopack(GPIO_PORT_B, GPIO_PIN_9)
 318:d:\project\9388\e1\2023_7_27\sr5e1_l9388_freeosek\modules\platform\board\include\sr5e1\evbe7000p.h **** #define SAR2_3_IO_CFG                            \
 319:d:\project\9388\e1\2023_7_27\sr5e1_l9388_freeosek\modules\platform\board\include\sr5e1\evbe7000p.h ****     (GPIO_MODE_MODER_ANALOG |                    \
 320:d:\project\9388\e1\2023_7_27\sr5e1_l9388_freeosek\modules\platform\board\include\sr5e1\evbe7000p.h ****      GPIO_MODE_OTYPER_PUSHPULL |                 \
 321:d:\project\9388\e1\2023_7_27\sr5e1_l9388_freeosek\modules\platform\board\include\sr5e1\evbe7000p.h ****      GPIO_MODE_OSPEEDR_LOW |                     \
 322:d:\project\9388\e1\2023_7_27\sr5e1_l9388_freeosek\modules\platform\board\include\sr5e1\evbe7000p.h ****      GPIO_MODE_PUPDR_FLOATING |                  \
 323:d:\project\9388\e1\2023_7_27\sr5e1_l9388_freeosek\modules\platform\board\include\sr5e1\evbe7000p.h ****      GPIO_MODE_AFR(0U) |                         \
 324:d:\project\9388\e1\2023_7_27\sr5e1_l9388_freeosek\modules\platform\board\include\sr5e1\evbe7000p.h ****      GPIO_MODE_IHYSTR_CMOS |                     \
 325:d:\project\9388\e1\2023_7_27\sr5e1_l9388_freeosek\modules\platform\board\include\sr5e1\evbe7000p.h ****      GPIO_MODE_TRIGENR_IN_ENABLED |              \
 326:d:\project\9388\e1\2023_7_27\sr5e1_l9388_freeosek\modules\platform\board\include\sr5e1\evbe7000p.h ****      GPIO_MODE_SAFESELR_DISABLED |               \
 327:d:\project\9388\e1\2023_7_27\sr5e1_l9388_freeosek\modules\platform\board\include\sr5e1\evbe7000p.h ****      GPIO_MODE_SAFEVALR_LOW)
 328:d:\project\9388\e1\2023_7_27\sr5e1_l9388_freeosek\modules\platform\board\include\sr5e1\evbe7000p.h **** 
 329:d:\project\9388\e1\2023_7_27\sr5e1_l9388_freeosek\modules\platform\board\include\sr5e1\evbe7000p.h **** #define SAR2_4_IO gpio_iopack(GPIO_PORT_B, GPIO_PIN_10)
 330:d:\project\9388\e1\2023_7_27\sr5e1_l9388_freeosek\modules\platform\board\include\sr5e1\evbe7000p.h **** #define SAR2_4_IO_CFG                            \
 331:d:\project\9388\e1\2023_7_27\sr5e1_l9388_freeosek\modules\platform\board\include\sr5e1\evbe7000p.h ****     (GPIO_MODE_MODER_ANALOG |                    \
 332:d:\project\9388\e1\2023_7_27\sr5e1_l9388_freeosek\modules\platform\board\include\sr5e1\evbe7000p.h ****      GPIO_MODE_OTYPER_PUSHPULL |                 \
 333:d:\project\9388\e1\2023_7_27\sr5e1_l9388_freeosek\modules\platform\board\include\sr5e1\evbe7000p.h ****      GPIO_MODE_OSPEEDR_LOW |                     \
 334:d:\project\9388\e1\2023_7_27\sr5e1_l9388_freeosek\modules\platform\board\include\sr5e1\evbe7000p.h ****      GPIO_MODE_PUPDR_FLOATING |                  \
 335:d:\project\9388\e1\2023_7_27\sr5e1_l9388_freeosek\modules\platform\board\include\sr5e1\evbe7000p.h ****      GPIO_MODE_AFR(0U) |                         \
 336:d:\project\9388\e1\2023_7_27\sr5e1_l9388_freeosek\modules\platform\board\include\sr5e1\evbe7000p.h ****      GPIO_MODE_IHYSTR_CMOS |                     \
 337:d:\project\9388\e1\2023_7_27\sr5e1_l9388_freeosek\modules\platform\board\include\sr5e1\evbe7000p.h ****      GPIO_MODE_TRIGENR_IN_ENABLED |              \
 338:d:\project\9388\e1\2023_7_27\sr5e1_l9388_freeosek\modules\platform\board\include\sr5e1\evbe7000p.h ****      GPIO_MODE_SAFESELR_DISABLED |               \
 339:d:\project\9388\e1\2023_7_27\sr5e1_l9388_freeosek\modules\platform\board\include\sr5e1\evbe7000p.h ****      GPIO_MODE_SAFEVALR_LOW)
 340:d:\project\9388\e1\2023_7_27\sr5e1_l9388_freeosek\modules\platform\board\include\sr5e1\evbe7000p.h **** 
 341:d:\project\9388\e1\2023_7_27\sr5e1_l9388_freeosek\modules\platform\board\include\sr5e1\evbe7000p.h **** #define SAR2_5_IO gpio_iopack(GPIO_PORT_B, GPIO_PIN_11)
 342:d:\project\9388\e1\2023_7_27\sr5e1_l9388_freeosek\modules\platform\board\include\sr5e1\evbe7000p.h **** #define SAR2_5_IO_CFG                            \
 343:d:\project\9388\e1\2023_7_27\sr5e1_l9388_freeosek\modules\platform\board\include\sr5e1\evbe7000p.h ****     (GPIO_MODE_MODER_ANALOG |                    \
 344:d:\project\9388\e1\2023_7_27\sr5e1_l9388_freeosek\modules\platform\board\include\sr5e1\evbe7000p.h ****      GPIO_MODE_OTYPER_PUSHPULL |                 \
 345:d:\project\9388\e1\2023_7_27\sr5e1_l9388_freeosek\modules\platform\board\include\sr5e1\evbe7000p.h ****      GPIO_MODE_OSPEEDR_LOW |                     \
 346:d:\project\9388\e1\2023_7_27\sr5e1_l9388_freeosek\modules\platform\board\include\sr5e1\evbe7000p.h ****      GPIO_MODE_PUPDR_FLOATING |                  \
 347:d:\project\9388\e1\2023_7_27\sr5e1_l9388_freeosek\modules\platform\board\include\sr5e1\evbe7000p.h ****      GPIO_MODE_AFR(0U) |                         \
 348:d:\project\9388\e1\2023_7_27\sr5e1_l9388_freeosek\modules\platform\board\include\sr5e1\evbe7000p.h ****      GPIO_MODE_IHYSTR_CMOS |                     \
 349:d:\project\9388\e1\2023_7_27\sr5e1_l9388_freeosek\modules\platform\board\include\sr5e1\evbe7000p.h ****      GPIO_MODE_TRIGENR_IN_ENABLED |              \
 350:d:\project\9388\e1\2023_7_27\sr5e1_l9388_freeosek\modules\platform\board\include\sr5e1\evbe7000p.h ****      GPIO_MODE_SAFESELR_DISABLED |               \
 351:d:\project\9388\e1\2023_7_27\sr5e1_l9388_freeosek\modules\platform\board\include\sr5e1\evbe7000p.h ****      GPIO_MODE_SAFEVALR_LOW)
 352:d:\project\9388\e1\2023_7_27\sr5e1_l9388_freeosek\modules\platform\board\include\sr5e1\evbe7000p.h **** 
 353:d:\project\9388\e1\2023_7_27\sr5e1_l9388_freeosek\modules\platform\board\include\sr5e1\evbe7000p.h **** #define SAR3_1_IO gpio_iopack(GPIO_PORT_B, GPIO_PIN_12)
 354:d:\project\9388\e1\2023_7_27\sr5e1_l9388_freeosek\modules\platform\board\include\sr5e1\evbe7000p.h **** #define SAR3_1_IO_CFG                            \
 355:d:\project\9388\e1\2023_7_27\sr5e1_l9388_freeosek\modules\platform\board\include\sr5e1\evbe7000p.h ****     (GPIO_MODE_MODER_ANALOG |                    \
 356:d:\project\9388\e1\2023_7_27\sr5e1_l9388_freeosek\modules\platform\board\include\sr5e1\evbe7000p.h ****      GPIO_MODE_OTYPER_PUSHPULL |                 \
 357:d:\project\9388\e1\2023_7_27\sr5e1_l9388_freeosek\modules\platform\board\include\sr5e1\evbe7000p.h ****      GPIO_MODE_OSPEEDR_LOW |                     \
 358:d:\project\9388\e1\2023_7_27\sr5e1_l9388_freeosek\modules\platform\board\include\sr5e1\evbe7000p.h ****      GPIO_MODE_PUPDR_FLOATING |                  \
 359:d:\project\9388\e1\2023_7_27\sr5e1_l9388_freeosek\modules\platform\board\include\sr5e1\evbe7000p.h ****      GPIO_MODE_AFR(0U) |                         \
 360:d:\project\9388\e1\2023_7_27\sr5e1_l9388_freeosek\modules\platform\board\include\sr5e1\evbe7000p.h ****      GPIO_MODE_IHYSTR_CMOS |                     \
 361:d:\project\9388\e1\2023_7_27\sr5e1_l9388_freeosek\modules\platform\board\include\sr5e1\evbe7000p.h ****      GPIO_MODE_TRIGENR_IN_ENABLED |              \
 362:d:\project\9388\e1\2023_7_27\sr5e1_l9388_freeosek\modules\platform\board\include\sr5e1\evbe7000p.h ****      GPIO_MODE_SAFESELR_DISABLED |               \
 363:d:\project\9388\e1\2023_7_27\sr5e1_l9388_freeosek\modules\platform\board\include\sr5e1\evbe7000p.h ****      GPIO_MODE_SAFEVALR_LOW)
 364:d:\project\9388\e1\2023_7_27\sr5e1_l9388_freeosek\modules\platform\board\include\sr5e1\evbe7000p.h **** 
 365:d:\project\9388\e1\2023_7_27\sr5e1_l9388_freeosek\modules\platform\board\include\sr5e1\evbe7000p.h **** #define SAR3_2_IO gpio_iopack(GPIO_PORT_B, GPIO_PIN_13)
 366:d:\project\9388\e1\2023_7_27\sr5e1_l9388_freeosek\modules\platform\board\include\sr5e1\evbe7000p.h **** #define SAR3_2_IO_CFG                            \
 367:d:\project\9388\e1\2023_7_27\sr5e1_l9388_freeosek\modules\platform\board\include\sr5e1\evbe7000p.h ****     (GPIO_MODE_MODER_ANALOG |                    \
 368:d:\project\9388\e1\2023_7_27\sr5e1_l9388_freeosek\modules\platform\board\include\sr5e1\evbe7000p.h ****      GPIO_MODE_OTYPER_PUSHPULL |                 \
 369:d:\project\9388\e1\2023_7_27\sr5e1_l9388_freeosek\modules\platform\board\include\sr5e1\evbe7000p.h ****      GPIO_MODE_OSPEEDR_LOW |                     \
 370:d:\project\9388\e1\2023_7_27\sr5e1_l9388_freeosek\modules\platform\board\include\sr5e1\evbe7000p.h ****      GPIO_MODE_PUPDR_FLOATING |                  \
 371:d:\project\9388\e1\2023_7_27\sr5e1_l9388_freeosek\modules\platform\board\include\sr5e1\evbe7000p.h ****      GPIO_MODE_AFR(0U) |                         \
 372:d:\project\9388\e1\2023_7_27\sr5e1_l9388_freeosek\modules\platform\board\include\sr5e1\evbe7000p.h ****      GPIO_MODE_IHYSTR_CMOS |                     \
 373:d:\project\9388\e1\2023_7_27\sr5e1_l9388_freeosek\modules\platform\board\include\sr5e1\evbe7000p.h ****      GPIO_MODE_TRIGENR_IN_ENABLED |              \
 374:d:\project\9388\e1\2023_7_27\sr5e1_l9388_freeosek\modules\platform\board\include\sr5e1\evbe7000p.h ****      GPIO_MODE_SAFESELR_DISABLED |               \
 375:d:\project\9388\e1\2023_7_27\sr5e1_l9388_freeosek\modules\platform\board\include\sr5e1\evbe7000p.h ****      GPIO_MODE_SAFEVALR_LOW)
 376:d:\project\9388\e1\2023_7_27\sr5e1_l9388_freeosek\modules\platform\board\include\sr5e1\evbe7000p.h **** 
 377:d:\project\9388\e1\2023_7_27\sr5e1_l9388_freeosek\modules\platform\board\include\sr5e1\evbe7000p.h **** #define SAR3_3_IO gpio_iopack(GPIO_PORT_B, GPIO_PIN_14)
 378:d:\project\9388\e1\2023_7_27\sr5e1_l9388_freeosek\modules\platform\board\include\sr5e1\evbe7000p.h **** #define SAR3_3_IO_CFG                            \
 379:d:\project\9388\e1\2023_7_27\sr5e1_l9388_freeosek\modules\platform\board\include\sr5e1\evbe7000p.h ****     (GPIO_MODE_MODER_ANALOG |                    \
 380:d:\project\9388\e1\2023_7_27\sr5e1_l9388_freeosek\modules\platform\board\include\sr5e1\evbe7000p.h ****      GPIO_MODE_OTYPER_PUSHPULL |                 \
 381:d:\project\9388\e1\2023_7_27\sr5e1_l9388_freeosek\modules\platform\board\include\sr5e1\evbe7000p.h ****      GPIO_MODE_OSPEEDR_LOW |                     \
 382:d:\project\9388\e1\2023_7_27\sr5e1_l9388_freeosek\modules\platform\board\include\sr5e1\evbe7000p.h ****      GPIO_MODE_PUPDR_FLOATING |                  \
 383:d:\project\9388\e1\2023_7_27\sr5e1_l9388_freeosek\modules\platform\board\include\sr5e1\evbe7000p.h ****      GPIO_MODE_AFR(0U) |                         \
 384:d:\project\9388\e1\2023_7_27\sr5e1_l9388_freeosek\modules\platform\board\include\sr5e1\evbe7000p.h ****      GPIO_MODE_IHYSTR_CMOS |                     \
 385:d:\project\9388\e1\2023_7_27\sr5e1_l9388_freeosek\modules\platform\board\include\sr5e1\evbe7000p.h ****      GPIO_MODE_TRIGENR_IN_ENABLED |              \
 386:d:\project\9388\e1\2023_7_27\sr5e1_l9388_freeosek\modules\platform\board\include\sr5e1\evbe7000p.h ****      GPIO_MODE_SAFESELR_DISABLED |               \
 387:d:\project\9388\e1\2023_7_27\sr5e1_l9388_freeosek\modules\platform\board\include\sr5e1\evbe7000p.h ****      GPIO_MODE_SAFEVALR_LOW)
 388:d:\project\9388\e1\2023_7_27\sr5e1_l9388_freeosek\modules\platform\board\include\sr5e1\evbe7000p.h **** 
 389:d:\project\9388\e1\2023_7_27\sr5e1_l9388_freeosek\modules\platform\board\include\sr5e1\evbe7000p.h **** #define SAR3_4_IO gpio_iopack(GPIO_PORT_B, GPIO_PIN_15)
 390:d:\project\9388\e1\2023_7_27\sr5e1_l9388_freeosek\modules\platform\board\include\sr5e1\evbe7000p.h **** #define SAR3_4_IO_CFG                            \
 391:d:\project\9388\e1\2023_7_27\sr5e1_l9388_freeosek\modules\platform\board\include\sr5e1\evbe7000p.h ****     (GPIO_MODE_MODER_ANALOG |                    \
 392:d:\project\9388\e1\2023_7_27\sr5e1_l9388_freeosek\modules\platform\board\include\sr5e1\evbe7000p.h ****      GPIO_MODE_OTYPER_PUSHPULL |                 \
 393:d:\project\9388\e1\2023_7_27\sr5e1_l9388_freeosek\modules\platform\board\include\sr5e1\evbe7000p.h ****      GPIO_MODE_OSPEEDR_LOW |                     \
 394:d:\project\9388\e1\2023_7_27\sr5e1_l9388_freeosek\modules\platform\board\include\sr5e1\evbe7000p.h ****      GPIO_MODE_PUPDR_FLOATING |                  \
 395:d:\project\9388\e1\2023_7_27\sr5e1_l9388_freeosek\modules\platform\board\include\sr5e1\evbe7000p.h ****      GPIO_MODE_AFR(0U) |                         \
 396:d:\project\9388\e1\2023_7_27\sr5e1_l9388_freeosek\modules\platform\board\include\sr5e1\evbe7000p.h ****      GPIO_MODE_IHYSTR_CMOS |                     \
 397:d:\project\9388\e1\2023_7_27\sr5e1_l9388_freeosek\modules\platform\board\include\sr5e1\evbe7000p.h ****      GPIO_MODE_TRIGENR_IN_ENABLED |              \
 398:d:\project\9388\e1\2023_7_27\sr5e1_l9388_freeosek\modules\platform\board\include\sr5e1\evbe7000p.h ****      GPIO_MODE_SAFESELR_DISABLED |               \
 399:d:\project\9388\e1\2023_7_27\sr5e1_l9388_freeosek\modules\platform\board\include\sr5e1\evbe7000p.h ****      GPIO_MODE_SAFEVALR_LOW)
 400:d:\project\9388\e1\2023_7_27\sr5e1_l9388_freeosek\modules\platform\board\include\sr5e1\evbe7000p.h **** 
 401:d:\project\9388\e1\2023_7_27\sr5e1_l9388_freeosek\modules\platform\board\include\sr5e1\evbe7000p.h **** /* PortC pin settings. */
 402:d:\project\9388\e1\2023_7_27\sr5e1_l9388_freeosek\modules\platform\board\include\sr5e1\evbe7000p.h **** #define SAR3_5_IO gpio_iopack(GPIO_PORT_C, GPIO_PIN_0)
 403:d:\project\9388\e1\2023_7_27\sr5e1_l9388_freeosek\modules\platform\board\include\sr5e1\evbe7000p.h **** #define SAR3_5_IO_CFG                            \
 404:d:\project\9388\e1\2023_7_27\sr5e1_l9388_freeosek\modules\platform\board\include\sr5e1\evbe7000p.h ****     (GPIO_MODE_MODER_ANALOG |                    \
 405:d:\project\9388\e1\2023_7_27\sr5e1_l9388_freeosek\modules\platform\board\include\sr5e1\evbe7000p.h ****      GPIO_MODE_OTYPER_PUSHPULL |                 \
 406:d:\project\9388\e1\2023_7_27\sr5e1_l9388_freeosek\modules\platform\board\include\sr5e1\evbe7000p.h ****      GPIO_MODE_OSPEEDR_LOW |                     \
 407:d:\project\9388\e1\2023_7_27\sr5e1_l9388_freeosek\modules\platform\board\include\sr5e1\evbe7000p.h ****      GPIO_MODE_PUPDR_FLOATING |                  \
 408:d:\project\9388\e1\2023_7_27\sr5e1_l9388_freeosek\modules\platform\board\include\sr5e1\evbe7000p.h ****      GPIO_MODE_AFR(0U) |                         \
 409:d:\project\9388\e1\2023_7_27\sr5e1_l9388_freeosek\modules\platform\board\include\sr5e1\evbe7000p.h ****      GPIO_MODE_IHYSTR_CMOS |                     \
 410:d:\project\9388\e1\2023_7_27\sr5e1_l9388_freeosek\modules\platform\board\include\sr5e1\evbe7000p.h ****      GPIO_MODE_TRIGENR_IN_ENABLED |              \
 411:d:\project\9388\e1\2023_7_27\sr5e1_l9388_freeosek\modules\platform\board\include\sr5e1\evbe7000p.h ****      GPIO_MODE_SAFESELR_DISABLED |               \
 412:d:\project\9388\e1\2023_7_27\sr5e1_l9388_freeosek\modules\platform\board\include\sr5e1\evbe7000p.h ****      GPIO_MODE_SAFEVALR_LOW)
 413:d:\project\9388\e1\2023_7_27\sr5e1_l9388_freeosek\modules\platform\board\include\sr5e1\evbe7000p.h **** 
 414:d:\project\9388\e1\2023_7_27\sr5e1_l9388_freeosek\modules\platform\board\include\sr5e1\evbe7000p.h **** #define SAR_CAL_1 gpio_iopack(GPIO_PORT_C, GPIO_PIN_1)
 415:d:\project\9388\e1\2023_7_27\sr5e1_l9388_freeosek\modules\platform\board\include\sr5e1\evbe7000p.h **** #define SAR_CAL_1_CFG                            \
 416:d:\project\9388\e1\2023_7_27\sr5e1_l9388_freeosek\modules\platform\board\include\sr5e1\evbe7000p.h ****     (GPIO_MODE_MODER_ANALOG |                    \
 417:d:\project\9388\e1\2023_7_27\sr5e1_l9388_freeosek\modules\platform\board\include\sr5e1\evbe7000p.h ****      GPIO_MODE_OTYPER_PUSHPULL |                 \
 418:d:\project\9388\e1\2023_7_27\sr5e1_l9388_freeosek\modules\platform\board\include\sr5e1\evbe7000p.h ****      GPIO_MODE_OSPEEDR_LOW |                     \
 419:d:\project\9388\e1\2023_7_27\sr5e1_l9388_freeosek\modules\platform\board\include\sr5e1\evbe7000p.h ****      GPIO_MODE_PUPDR_FLOATING |                  \
 420:d:\project\9388\e1\2023_7_27\sr5e1_l9388_freeosek\modules\platform\board\include\sr5e1\evbe7000p.h ****      GPIO_MODE_AFR(0U) |                         \
 421:d:\project\9388\e1\2023_7_27\sr5e1_l9388_freeosek\modules\platform\board\include\sr5e1\evbe7000p.h ****      GPIO_MODE_IHYSTR_CMOS |                     \
 422:d:\project\9388\e1\2023_7_27\sr5e1_l9388_freeosek\modules\platform\board\include\sr5e1\evbe7000p.h ****      GPIO_MODE_TRIGENR_IN_ENABLED |              \
 423:d:\project\9388\e1\2023_7_27\sr5e1_l9388_freeosek\modules\platform\board\include\sr5e1\evbe7000p.h ****      GPIO_MODE_SAFESELR_DISABLED |               \
 424:d:\project\9388\e1\2023_7_27\sr5e1_l9388_freeosek\modules\platform\board\include\sr5e1\evbe7000p.h ****      GPIO_MODE_SAFEVALR_LOW)
 425:d:\project\9388\e1\2023_7_27\sr5e1_l9388_freeosek\modules\platform\board\include\sr5e1\evbe7000p.h **** 
 426:d:\project\9388\e1\2023_7_27\sr5e1_l9388_freeosek\modules\platform\board\include\sr5e1\evbe7000p.h **** #define SAR_CAL_2 gpio_iopack(GPIO_PORT_C, GPIO_PIN_2)
 427:d:\project\9388\e1\2023_7_27\sr5e1_l9388_freeosek\modules\platform\board\include\sr5e1\evbe7000p.h **** #define SAR_CAL_2_CFG                            \
 428:d:\project\9388\e1\2023_7_27\sr5e1_l9388_freeosek\modules\platform\board\include\sr5e1\evbe7000p.h ****     (GPIO_MODE_MODER_ANALOG |                    \
 429:d:\project\9388\e1\2023_7_27\sr5e1_l9388_freeosek\modules\platform\board\include\sr5e1\evbe7000p.h ****      GPIO_MODE_OTYPER_PUSHPULL |                 \
 430:d:\project\9388\e1\2023_7_27\sr5e1_l9388_freeosek\modules\platform\board\include\sr5e1\evbe7000p.h ****      GPIO_MODE_OSPEEDR_LOW |                     \
 431:d:\project\9388\e1\2023_7_27\sr5e1_l9388_freeosek\modules\platform\board\include\sr5e1\evbe7000p.h ****      GPIO_MODE_PUPDR_FLOATING |                  \
 432:d:\project\9388\e1\2023_7_27\sr5e1_l9388_freeosek\modules\platform\board\include\sr5e1\evbe7000p.h ****      GPIO_MODE_AFR(0U) |                         \
 433:d:\project\9388\e1\2023_7_27\sr5e1_l9388_freeosek\modules\platform\board\include\sr5e1\evbe7000p.h ****      GPIO_MODE_IHYSTR_CMOS |                     \
 434:d:\project\9388\e1\2023_7_27\sr5e1_l9388_freeosek\modules\platform\board\include\sr5e1\evbe7000p.h ****      GPIO_MODE_TRIGENR_IN_ENABLED |              \
 435:d:\project\9388\e1\2023_7_27\sr5e1_l9388_freeosek\modules\platform\board\include\sr5e1\evbe7000p.h ****      GPIO_MODE_SAFESELR_DISABLED |               \
 436:d:\project\9388\e1\2023_7_27\sr5e1_l9388_freeosek\modules\platform\board\include\sr5e1\evbe7000p.h ****      GPIO_MODE_SAFEVALR_LOW)
 437:d:\project\9388\e1\2023_7_27\sr5e1_l9388_freeosek\modules\platform\board\include\sr5e1\evbe7000p.h **** 
 438:d:\project\9388\e1\2023_7_27\sr5e1_l9388_freeosek\modules\platform\board\include\sr5e1\evbe7000p.h **** #define SAR4_1_IO gpio_iopack(GPIO_PORT_C, GPIO_PIN_3)
 439:d:\project\9388\e1\2023_7_27\sr5e1_l9388_freeosek\modules\platform\board\include\sr5e1\evbe7000p.h **** #define SAR4_1_IO_CFG                            \
 440:d:\project\9388\e1\2023_7_27\sr5e1_l9388_freeosek\modules\platform\board\include\sr5e1\evbe7000p.h ****     (GPIO_MODE_MODER_ANALOG |                    \
 441:d:\project\9388\e1\2023_7_27\sr5e1_l9388_freeosek\modules\platform\board\include\sr5e1\evbe7000p.h ****      GPIO_MODE_OTYPER_PUSHPULL |                 \
 442:d:\project\9388\e1\2023_7_27\sr5e1_l9388_freeosek\modules\platform\board\include\sr5e1\evbe7000p.h ****      GPIO_MODE_OSPEEDR_LOW |                     \
 443:d:\project\9388\e1\2023_7_27\sr5e1_l9388_freeosek\modules\platform\board\include\sr5e1\evbe7000p.h ****      GPIO_MODE_PUPDR_FLOATING |                  \
 444:d:\project\9388\e1\2023_7_27\sr5e1_l9388_freeosek\modules\platform\board\include\sr5e1\evbe7000p.h ****      GPIO_MODE_AFR(0U) |                         \
 445:d:\project\9388\e1\2023_7_27\sr5e1_l9388_freeosek\modules\platform\board\include\sr5e1\evbe7000p.h ****      GPIO_MODE_IHYSTR_CMOS |                     \
 446:d:\project\9388\e1\2023_7_27\sr5e1_l9388_freeosek\modules\platform\board\include\sr5e1\evbe7000p.h ****      GPIO_MODE_TRIGENR_IN_ENABLED |              \
 447:d:\project\9388\e1\2023_7_27\sr5e1_l9388_freeosek\modules\platform\board\include\sr5e1\evbe7000p.h ****      GPIO_MODE_SAFESELR_DISABLED |               \
 448:d:\project\9388\e1\2023_7_27\sr5e1_l9388_freeosek\modules\platform\board\include\sr5e1\evbe7000p.h ****      GPIO_MODE_SAFEVALR_LOW)
 449:d:\project\9388\e1\2023_7_27\sr5e1_l9388_freeosek\modules\platform\board\include\sr5e1\evbe7000p.h **** 
 450:d:\project\9388\e1\2023_7_27\sr5e1_l9388_freeosek\modules\platform\board\include\sr5e1\evbe7000p.h **** #define SAR4_2_IO gpio_iopack(GPIO_PORT_C, GPIO_PIN_4)
 451:d:\project\9388\e1\2023_7_27\sr5e1_l9388_freeosek\modules\platform\board\include\sr5e1\evbe7000p.h **** #define SAR4_2_IO_CFG                            \
 452:d:\project\9388\e1\2023_7_27\sr5e1_l9388_freeosek\modules\platform\board\include\sr5e1\evbe7000p.h ****     (GPIO_MODE_MODER_ANALOG |                    \
 453:d:\project\9388\e1\2023_7_27\sr5e1_l9388_freeosek\modules\platform\board\include\sr5e1\evbe7000p.h ****      GPIO_MODE_OTYPER_PUSHPULL |                 \
 454:d:\project\9388\e1\2023_7_27\sr5e1_l9388_freeosek\modules\platform\board\include\sr5e1\evbe7000p.h ****      GPIO_MODE_OSPEEDR_LOW |                     \
 455:d:\project\9388\e1\2023_7_27\sr5e1_l9388_freeosek\modules\platform\board\include\sr5e1\evbe7000p.h ****      GPIO_MODE_PUPDR_FLOATING |                  \
 456:d:\project\9388\e1\2023_7_27\sr5e1_l9388_freeosek\modules\platform\board\include\sr5e1\evbe7000p.h ****      GPIO_MODE_AFR(0U) |                         \
 457:d:\project\9388\e1\2023_7_27\sr5e1_l9388_freeosek\modules\platform\board\include\sr5e1\evbe7000p.h ****      GPIO_MODE_IHYSTR_CMOS |                     \
 458:d:\project\9388\e1\2023_7_27\sr5e1_l9388_freeosek\modules\platform\board\include\sr5e1\evbe7000p.h ****      GPIO_MODE_TRIGENR_IN_ENABLED |              \
 459:d:\project\9388\e1\2023_7_27\sr5e1_l9388_freeosek\modules\platform\board\include\sr5e1\evbe7000p.h ****      GPIO_MODE_SAFESELR_DISABLED |               \
 460:d:\project\9388\e1\2023_7_27\sr5e1_l9388_freeosek\modules\platform\board\include\sr5e1\evbe7000p.h ****      GPIO_MODE_SAFEVALR_LOW)
 461:d:\project\9388\e1\2023_7_27\sr5e1_l9388_freeosek\modules\platform\board\include\sr5e1\evbe7000p.h **** 
 462:d:\project\9388\e1\2023_7_27\sr5e1_l9388_freeosek\modules\platform\board\include\sr5e1\evbe7000p.h **** #define DAC_2_IO gpio_iopack(GPIO_PORT_C, GPIO_PIN_5)
 463:d:\project\9388\e1\2023_7_27\sr5e1_l9388_freeosek\modules\platform\board\include\sr5e1\evbe7000p.h **** #define DAC_2_IO_CFG                             \
 464:d:\project\9388\e1\2023_7_27\sr5e1_l9388_freeosek\modules\platform\board\include\sr5e1\evbe7000p.h ****     (GPIO_MODE_MODER_ANALOG |                    \
 465:d:\project\9388\e1\2023_7_27\sr5e1_l9388_freeosek\modules\platform\board\include\sr5e1\evbe7000p.h ****      GPIO_MODE_OTYPER_PUSHPULL |                 \
 466:d:\project\9388\e1\2023_7_27\sr5e1_l9388_freeosek\modules\platform\board\include\sr5e1\evbe7000p.h ****      GPIO_MODE_OSPEEDR_LOW |                     \
 467:d:\project\9388\e1\2023_7_27\sr5e1_l9388_freeosek\modules\platform\board\include\sr5e1\evbe7000p.h ****      GPIO_MODE_PUPDR_FLOATING |                  \
 468:d:\project\9388\e1\2023_7_27\sr5e1_l9388_freeosek\modules\platform\board\include\sr5e1\evbe7000p.h ****      GPIO_MODE_AFR(0U) |                         \
 469:d:\project\9388\e1\2023_7_27\sr5e1_l9388_freeosek\modules\platform\board\include\sr5e1\evbe7000p.h ****      GPIO_MODE_IHYSTR_CMOS |                     \
 470:d:\project\9388\e1\2023_7_27\sr5e1_l9388_freeosek\modules\platform\board\include\sr5e1\evbe7000p.h ****      GPIO_MODE_TRIGENR_IN_DISABLED |             \
 471:d:\project\9388\e1\2023_7_27\sr5e1_l9388_freeosek\modules\platform\board\include\sr5e1\evbe7000p.h ****      GPIO_MODE_SAFESELR_DISABLED |               \
 472:d:\project\9388\e1\2023_7_27\sr5e1_l9388_freeosek\modules\platform\board\include\sr5e1\evbe7000p.h ****      GPIO_MODE_SAFEVALR_LOW)
 473:d:\project\9388\e1\2023_7_27\sr5e1_l9388_freeosek\modules\platform\board\include\sr5e1\evbe7000p.h **** 
 474:d:\project\9388\e1\2023_7_27\sr5e1_l9388_freeosek\modules\platform\board\include\sr5e1\evbe7000p.h **** #define SAR4_3_IO gpio_iopack(GPIO_PORT_C, GPIO_PIN_6)
 475:d:\project\9388\e1\2023_7_27\sr5e1_l9388_freeosek\modules\platform\board\include\sr5e1\evbe7000p.h **** #define SAR4_3_IO_CFG                            \
 476:d:\project\9388\e1\2023_7_27\sr5e1_l9388_freeosek\modules\platform\board\include\sr5e1\evbe7000p.h ****     (GPIO_MODE_MODER_ANALOG |                    \
 477:d:\project\9388\e1\2023_7_27\sr5e1_l9388_freeosek\modules\platform\board\include\sr5e1\evbe7000p.h ****      GPIO_MODE_OTYPER_PUSHPULL |                 \
 478:d:\project\9388\e1\2023_7_27\sr5e1_l9388_freeosek\modules\platform\board\include\sr5e1\evbe7000p.h ****      GPIO_MODE_OSPEEDR_LOW |                     \
 479:d:\project\9388\e1\2023_7_27\sr5e1_l9388_freeosek\modules\platform\board\include\sr5e1\evbe7000p.h ****      GPIO_MODE_PUPDR_FLOATING |                  \
 480:d:\project\9388\e1\2023_7_27\sr5e1_l9388_freeosek\modules\platform\board\include\sr5e1\evbe7000p.h ****      GPIO_MODE_AFR(0U) |                         \
 481:d:\project\9388\e1\2023_7_27\sr5e1_l9388_freeosek\modules\platform\board\include\sr5e1\evbe7000p.h ****      GPIO_MODE_IHYSTR_CMOS |                     \
 482:d:\project\9388\e1\2023_7_27\sr5e1_l9388_freeosek\modules\platform\board\include\sr5e1\evbe7000p.h ****      GPIO_MODE_TRIGENR_IN_ENABLED |              \
 483:d:\project\9388\e1\2023_7_27\sr5e1_l9388_freeosek\modules\platform\board\include\sr5e1\evbe7000p.h ****      GPIO_MODE_SAFESELR_DISABLED |               \
 484:d:\project\9388\e1\2023_7_27\sr5e1_l9388_freeosek\modules\platform\board\include\sr5e1\evbe7000p.h ****      GPIO_MODE_SAFEVALR_LOW)
 485:d:\project\9388\e1\2023_7_27\sr5e1_l9388_freeosek\modules\platform\board\include\sr5e1\evbe7000p.h **** 
 486:d:\project\9388\e1\2023_7_27\sr5e1_l9388_freeosek\modules\platform\board\include\sr5e1\evbe7000p.h **** #define SAR4_4_IO gpio_iopack(GPIO_PORT_C, GPIO_PIN_7)
 487:d:\project\9388\e1\2023_7_27\sr5e1_l9388_freeosek\modules\platform\board\include\sr5e1\evbe7000p.h **** #define SAR4_4_IO_CFG                            \
 488:d:\project\9388\e1\2023_7_27\sr5e1_l9388_freeosek\modules\platform\board\include\sr5e1\evbe7000p.h ****     (GPIO_MODE_MODER_ANALOG |                    \
 489:d:\project\9388\e1\2023_7_27\sr5e1_l9388_freeosek\modules\platform\board\include\sr5e1\evbe7000p.h ****      GPIO_MODE_OTYPER_PUSHPULL |                 \
 490:d:\project\9388\e1\2023_7_27\sr5e1_l9388_freeosek\modules\platform\board\include\sr5e1\evbe7000p.h ****      GPIO_MODE_OSPEEDR_LOW |                     \
 491:d:\project\9388\e1\2023_7_27\sr5e1_l9388_freeosek\modules\platform\board\include\sr5e1\evbe7000p.h ****      GPIO_MODE_PUPDR_FLOATING |                  \
 492:d:\project\9388\e1\2023_7_27\sr5e1_l9388_freeosek\modules\platform\board\include\sr5e1\evbe7000p.h ****      GPIO_MODE_AFR(0U) |                         \
 493:d:\project\9388\e1\2023_7_27\sr5e1_l9388_freeosek\modules\platform\board\include\sr5e1\evbe7000p.h ****      GPIO_MODE_IHYSTR_CMOS |                     \
 494:d:\project\9388\e1\2023_7_27\sr5e1_l9388_freeosek\modules\platform\board\include\sr5e1\evbe7000p.h ****      GPIO_MODE_TRIGENR_IN_ENABLED |              \
 495:d:\project\9388\e1\2023_7_27\sr5e1_l9388_freeosek\modules\platform\board\include\sr5e1\evbe7000p.h ****      GPIO_MODE_SAFESELR_DISABLED |               \
 496:d:\project\9388\e1\2023_7_27\sr5e1_l9388_freeosek\modules\platform\board\include\sr5e1\evbe7000p.h ****      GPIO_MODE_SAFEVALR_LOW)
 497:d:\project\9388\e1\2023_7_27\sr5e1_l9388_freeosek\modules\platform\board\include\sr5e1\evbe7000p.h **** 
 498:d:\project\9388\e1\2023_7_27\sr5e1_l9388_freeosek\modules\platform\board\include\sr5e1\evbe7000p.h **** #define SAR4_5_IO gpio_iopack(GPIO_PORT_C, GPIO_PIN_8)
 499:d:\project\9388\e1\2023_7_27\sr5e1_l9388_freeosek\modules\platform\board\include\sr5e1\evbe7000p.h **** #define SAR4_5_IO_CFG                            \
 500:d:\project\9388\e1\2023_7_27\sr5e1_l9388_freeosek\modules\platform\board\include\sr5e1\evbe7000p.h ****     (GPIO_MODE_MODER_ANALOG |                    \
 501:d:\project\9388\e1\2023_7_27\sr5e1_l9388_freeosek\modules\platform\board\include\sr5e1\evbe7000p.h ****      GPIO_MODE_OTYPER_PUSHPULL |                 \
 502:d:\project\9388\e1\2023_7_27\sr5e1_l9388_freeosek\modules\platform\board\include\sr5e1\evbe7000p.h ****      GPIO_MODE_OSPEEDR_LOW |                     \
 503:d:\project\9388\e1\2023_7_27\sr5e1_l9388_freeosek\modules\platform\board\include\sr5e1\evbe7000p.h ****      GPIO_MODE_PUPDR_FLOATING |                  \
 504:d:\project\9388\e1\2023_7_27\sr5e1_l9388_freeosek\modules\platform\board\include\sr5e1\evbe7000p.h ****      GPIO_MODE_AFR(0U) |                         \
 505:d:\project\9388\e1\2023_7_27\sr5e1_l9388_freeosek\modules\platform\board\include\sr5e1\evbe7000p.h ****      GPIO_MODE_IHYSTR_CMOS |                     \
 506:d:\project\9388\e1\2023_7_27\sr5e1_l9388_freeosek\modules\platform\board\include\sr5e1\evbe7000p.h ****      GPIO_MODE_TRIGENR_IN_ENABLED |              \
 507:d:\project\9388\e1\2023_7_27\sr5e1_l9388_freeosek\modules\platform\board\include\sr5e1\evbe7000p.h ****      GPIO_MODE_SAFESELR_DISABLED |               \
 508:d:\project\9388\e1\2023_7_27\sr5e1_l9388_freeosek\modules\platform\board\include\sr5e1\evbe7000p.h ****      GPIO_MODE_SAFEVALR_LOW)
 509:d:\project\9388\e1\2023_7_27\sr5e1_l9388_freeosek\modules\platform\board\include\sr5e1\evbe7000p.h **** 
 510:d:\project\9388\e1\2023_7_27\sr5e1_l9388_freeosek\modules\platform\board\include\sr5e1\evbe7000p.h **** #define SAR5_1_IO gpio_iopack(GPIO_PORT_C, GPIO_PIN_9)
 511:d:\project\9388\e1\2023_7_27\sr5e1_l9388_freeosek\modules\platform\board\include\sr5e1\evbe7000p.h **** #define SAR5_1_IO_CFG                            \
 512:d:\project\9388\e1\2023_7_27\sr5e1_l9388_freeosek\modules\platform\board\include\sr5e1\evbe7000p.h ****     (GPIO_MODE_MODER_ANALOG |                    \
 513:d:\project\9388\e1\2023_7_27\sr5e1_l9388_freeosek\modules\platform\board\include\sr5e1\evbe7000p.h ****      GPIO_MODE_OTYPER_PUSHPULL |                 \
 514:d:\project\9388\e1\2023_7_27\sr5e1_l9388_freeosek\modules\platform\board\include\sr5e1\evbe7000p.h ****      GPIO_MODE_OSPEEDR_LOW |                     \
 515:d:\project\9388\e1\2023_7_27\sr5e1_l9388_freeosek\modules\platform\board\include\sr5e1\evbe7000p.h ****      GPIO_MODE_PUPDR_FLOATING |                  \
 516:d:\project\9388\e1\2023_7_27\sr5e1_l9388_freeosek\modules\platform\board\include\sr5e1\evbe7000p.h ****      GPIO_MODE_AFR(0U) |                         \
 517:d:\project\9388\e1\2023_7_27\sr5e1_l9388_freeosek\modules\platform\board\include\sr5e1\evbe7000p.h ****      GPIO_MODE_IHYSTR_CMOS |                     \
 518:d:\project\9388\e1\2023_7_27\sr5e1_l9388_freeosek\modules\platform\board\include\sr5e1\evbe7000p.h ****      GPIO_MODE_TRIGENR_IN_ENABLED |              \
 519:d:\project\9388\e1\2023_7_27\sr5e1_l9388_freeosek\modules\platform\board\include\sr5e1\evbe7000p.h ****      GPIO_MODE_SAFESELR_DISABLED |               \
 520:d:\project\9388\e1\2023_7_27\sr5e1_l9388_freeosek\modules\platform\board\include\sr5e1\evbe7000p.h ****      GPIO_MODE_SAFEVALR_LOW)
 521:d:\project\9388\e1\2023_7_27\sr5e1_l9388_freeosek\modules\platform\board\include\sr5e1\evbe7000p.h **** 
 522:d:\project\9388\e1\2023_7_27\sr5e1_l9388_freeosek\modules\platform\board\include\sr5e1\evbe7000p.h **** #define SAR5_2_IO gpio_iopack(GPIO_PORT_C, GPIO_PIN_10)
 523:d:\project\9388\e1\2023_7_27\sr5e1_l9388_freeosek\modules\platform\board\include\sr5e1\evbe7000p.h **** #define SAR5_2_IO_CFG                            \
 524:d:\project\9388\e1\2023_7_27\sr5e1_l9388_freeosek\modules\platform\board\include\sr5e1\evbe7000p.h ****     (GPIO_MODE_MODER_ANALOG |                    \
 525:d:\project\9388\e1\2023_7_27\sr5e1_l9388_freeosek\modules\platform\board\include\sr5e1\evbe7000p.h ****      GPIO_MODE_OTYPER_PUSHPULL |                 \
 526:d:\project\9388\e1\2023_7_27\sr5e1_l9388_freeosek\modules\platform\board\include\sr5e1\evbe7000p.h ****      GPIO_MODE_OSPEEDR_LOW |                     \
 527:d:\project\9388\e1\2023_7_27\sr5e1_l9388_freeosek\modules\platform\board\include\sr5e1\evbe7000p.h ****      GPIO_MODE_PUPDR_FLOATING |                  \
 528:d:\project\9388\e1\2023_7_27\sr5e1_l9388_freeosek\modules\platform\board\include\sr5e1\evbe7000p.h ****      GPIO_MODE_AFR(0U) |                         \
 529:d:\project\9388\e1\2023_7_27\sr5e1_l9388_freeosek\modules\platform\board\include\sr5e1\evbe7000p.h ****      GPIO_MODE_IHYSTR_CMOS |                     \
 530:d:\project\9388\e1\2023_7_27\sr5e1_l9388_freeosek\modules\platform\board\include\sr5e1\evbe7000p.h ****      GPIO_MODE_TRIGENR_IN_ENABLED |              \
 531:d:\project\9388\e1\2023_7_27\sr5e1_l9388_freeosek\modules\platform\board\include\sr5e1\evbe7000p.h ****      GPIO_MODE_SAFESELR_DISABLED |               \
 532:d:\project\9388\e1\2023_7_27\sr5e1_l9388_freeosek\modules\platform\board\include\sr5e1\evbe7000p.h ****      GPIO_MODE_SAFEVALR_LOW)
 533:d:\project\9388\e1\2023_7_27\sr5e1_l9388_freeosek\modules\platform\board\include\sr5e1\evbe7000p.h **** 
 534:d:\project\9388\e1\2023_7_27\sr5e1_l9388_freeosek\modules\platform\board\include\sr5e1\evbe7000p.h **** #define SAR5_3_IO gpio_iopack(GPIO_PORT_C, GPIO_PIN_11)
 535:d:\project\9388\e1\2023_7_27\sr5e1_l9388_freeosek\modules\platform\board\include\sr5e1\evbe7000p.h **** #define SAR5_3_IO_CFG                            \
 536:d:\project\9388\e1\2023_7_27\sr5e1_l9388_freeosek\modules\platform\board\include\sr5e1\evbe7000p.h ****     (GPIO_MODE_MODER_ANALOG |                    \
 537:d:\project\9388\e1\2023_7_27\sr5e1_l9388_freeosek\modules\platform\board\include\sr5e1\evbe7000p.h ****      GPIO_MODE_OTYPER_PUSHPULL |                 \
 538:d:\project\9388\e1\2023_7_27\sr5e1_l9388_freeosek\modules\platform\board\include\sr5e1\evbe7000p.h ****      GPIO_MODE_OSPEEDR_LOW |                     \
 539:d:\project\9388\e1\2023_7_27\sr5e1_l9388_freeosek\modules\platform\board\include\sr5e1\evbe7000p.h ****      GPIO_MODE_PUPDR_FLOATING |                  \
 540:d:\project\9388\e1\2023_7_27\sr5e1_l9388_freeosek\modules\platform\board\include\sr5e1\evbe7000p.h ****      GPIO_MODE_AFR(0U) |                         \
 541:d:\project\9388\e1\2023_7_27\sr5e1_l9388_freeosek\modules\platform\board\include\sr5e1\evbe7000p.h ****      GPIO_MODE_IHYSTR_CMOS |                     \
 542:d:\project\9388\e1\2023_7_27\sr5e1_l9388_freeosek\modules\platform\board\include\sr5e1\evbe7000p.h ****      GPIO_MODE_TRIGENR_IN_ENABLED |              \
 543:d:\project\9388\e1\2023_7_27\sr5e1_l9388_freeosek\modules\platform\board\include\sr5e1\evbe7000p.h ****      GPIO_MODE_SAFESELR_DISABLED |               \
 544:d:\project\9388\e1\2023_7_27\sr5e1_l9388_freeosek\modules\platform\board\include\sr5e1\evbe7000p.h ****      GPIO_MODE_SAFEVALR_LOW)
 545:d:\project\9388\e1\2023_7_27\sr5e1_l9388_freeosek\modules\platform\board\include\sr5e1\evbe7000p.h **** 
 546:d:\project\9388\e1\2023_7_27\sr5e1_l9388_freeosek\modules\platform\board\include\sr5e1\evbe7000p.h **** #define SAR5_4_IO gpio_iopack(GPIO_PORT_C, GPIO_PIN_12)
 547:d:\project\9388\e1\2023_7_27\sr5e1_l9388_freeosek\modules\platform\board\include\sr5e1\evbe7000p.h **** #define SAR5_4_IO_CFG                            \
 548:d:\project\9388\e1\2023_7_27\sr5e1_l9388_freeosek\modules\platform\board\include\sr5e1\evbe7000p.h ****     (GPIO_MODE_MODER_ANALOG |                    \
 549:d:\project\9388\e1\2023_7_27\sr5e1_l9388_freeosek\modules\platform\board\include\sr5e1\evbe7000p.h ****      GPIO_MODE_OTYPER_PUSHPULL |                 \
 550:d:\project\9388\e1\2023_7_27\sr5e1_l9388_freeosek\modules\platform\board\include\sr5e1\evbe7000p.h ****      GPIO_MODE_OSPEEDR_LOW |                     \
 551:d:\project\9388\e1\2023_7_27\sr5e1_l9388_freeosek\modules\platform\board\include\sr5e1\evbe7000p.h ****      GPIO_MODE_PUPDR_FLOATING |                  \
 552:d:\project\9388\e1\2023_7_27\sr5e1_l9388_freeosek\modules\platform\board\include\sr5e1\evbe7000p.h ****      GPIO_MODE_AFR(0U) |                         \
 553:d:\project\9388\e1\2023_7_27\sr5e1_l9388_freeosek\modules\platform\board\include\sr5e1\evbe7000p.h ****      GPIO_MODE_IHYSTR_CMOS |                     \
 554:d:\project\9388\e1\2023_7_27\sr5e1_l9388_freeosek\modules\platform\board\include\sr5e1\evbe7000p.h ****      GPIO_MODE_TRIGENR_IN_ENABLED |              \
 555:d:\project\9388\e1\2023_7_27\sr5e1_l9388_freeosek\modules\platform\board\include\sr5e1\evbe7000p.h ****      GPIO_MODE_SAFESELR_DISABLED |               \
 556:d:\project\9388\e1\2023_7_27\sr5e1_l9388_freeosek\modules\platform\board\include\sr5e1\evbe7000p.h ****      GPIO_MODE_SAFEVALR_LOW)
 557:d:\project\9388\e1\2023_7_27\sr5e1_l9388_freeosek\modules\platform\board\include\sr5e1\evbe7000p.h **** 
 558:d:\project\9388\e1\2023_7_27\sr5e1_l9388_freeosek\modules\platform\board\include\sr5e1\evbe7000p.h **** #define SAR5_5_IO gpio_iopack(GPIO_PORT_C, GPIO_PIN_13)
 559:d:\project\9388\e1\2023_7_27\sr5e1_l9388_freeosek\modules\platform\board\include\sr5e1\evbe7000p.h **** #define SAR5_5_IO_CFG                            \
 560:d:\project\9388\e1\2023_7_27\sr5e1_l9388_freeosek\modules\platform\board\include\sr5e1\evbe7000p.h ****     (GPIO_MODE_MODER_INPUT |                    \
 561:d:\project\9388\e1\2023_7_27\sr5e1_l9388_freeosek\modules\platform\board\include\sr5e1\evbe7000p.h ****      GPIO_MODE_OTYPER_PUSHPULL |                 \
 562:d:\project\9388\e1\2023_7_27\sr5e1_l9388_freeosek\modules\platform\board\include\sr5e1\evbe7000p.h ****      GPIO_MODE_OSPEEDR_LOW |                     \
 563:d:\project\9388\e1\2023_7_27\sr5e1_l9388_freeosek\modules\platform\board\include\sr5e1\evbe7000p.h ****      GPIO_MODE_PUPDR_FLOATING |                  \
 564:d:\project\9388\e1\2023_7_27\sr5e1_l9388_freeosek\modules\platform\board\include\sr5e1\evbe7000p.h ****      GPIO_MODE_AFR(0U) |                         \
 565:d:\project\9388\e1\2023_7_27\sr5e1_l9388_freeosek\modules\platform\board\include\sr5e1\evbe7000p.h ****      GPIO_MODE_IHYSTR_CMOS |                     \
 566:d:\project\9388\e1\2023_7_27\sr5e1_l9388_freeosek\modules\platform\board\include\sr5e1\evbe7000p.h ****      GPIO_MODE_TRIGENR_IN_ENABLED |              \
 567:d:\project\9388\e1\2023_7_27\sr5e1_l9388_freeosek\modules\platform\board\include\sr5e1\evbe7000p.h ****      GPIO_MODE_SAFESELR_DISABLED |               \
 568:d:\project\9388\e1\2023_7_27\sr5e1_l9388_freeosek\modules\platform\board\include\sr5e1\evbe7000p.h ****      GPIO_MODE_SAFEVALR_LOW)
 569:d:\project\9388\e1\2023_7_27\sr5e1_l9388_freeosek\modules\platform\board\include\sr5e1\evbe7000p.h **** 
 570:d:\project\9388\e1\2023_7_27\sr5e1_l9388_freeosek\modules\platform\board\include\sr5e1\evbe7000p.h **** #define TIM1_CH1N gpio_iopack(GPIO_PORT_C, GPIO_PIN_14)
 571:d:\project\9388\e1\2023_7_27\sr5e1_l9388_freeosek\modules\platform\board\include\sr5e1\evbe7000p.h **** #define TIM1_CH1N_CFG                            \
 572:d:\project\9388\e1\2023_7_27\sr5e1_l9388_freeosek\modules\platform\board\include\sr5e1\evbe7000p.h ****     (GPIO_MODE_MODER_ALTERNATE |                 \
 573:d:\project\9388\e1\2023_7_27\sr5e1_l9388_freeosek\modules\platform\board\include\sr5e1\evbe7000p.h ****      GPIO_MODE_OTYPER_PUSHPULL |                 \
 574:d:\project\9388\e1\2023_7_27\sr5e1_l9388_freeosek\modules\platform\board\include\sr5e1\evbe7000p.h ****      GPIO_MODE_OSPEEDR_LOW |                     \
 575:d:\project\9388\e1\2023_7_27\sr5e1_l9388_freeosek\modules\platform\board\include\sr5e1\evbe7000p.h ****      GPIO_MODE_PUPDR_FLOATING |                  \
 576:d:\project\9388\e1\2023_7_27\sr5e1_l9388_freeosek\modules\platform\board\include\sr5e1\evbe7000p.h ****      GPIO_MODE_AFR(4U) |                         \
 577:d:\project\9388\e1\2023_7_27\sr5e1_l9388_freeosek\modules\platform\board\include\sr5e1\evbe7000p.h ****      GPIO_MODE_IHYSTR_CMOS |                     \
 578:d:\project\9388\e1\2023_7_27\sr5e1_l9388_freeosek\modules\platform\board\include\sr5e1\evbe7000p.h ****      GPIO_MODE_TRIGENR_IN_DISABLED |             \
 579:d:\project\9388\e1\2023_7_27\sr5e1_l9388_freeosek\modules\platform\board\include\sr5e1\evbe7000p.h ****      GPIO_MODE_SAFESELR_DISABLED |               \
 580:d:\project\9388\e1\2023_7_27\sr5e1_l9388_freeosek\modules\platform\board\include\sr5e1\evbe7000p.h ****      GPIO_MODE_SAFEVALR_LOW)
 581:d:\project\9388\e1\2023_7_27\sr5e1_l9388_freeosek\modules\platform\board\include\sr5e1\evbe7000p.h **** 
 582:d:\project\9388\e1\2023_7_27\sr5e1_l9388_freeosek\modules\platform\board\include\sr5e1\evbe7000p.h **** #define TIM1_CH1 gpio_iopack(GPIO_PORT_C, GPIO_PIN_15)
 583:d:\project\9388\e1\2023_7_27\sr5e1_l9388_freeosek\modules\platform\board\include\sr5e1\evbe7000p.h **** #define TIM1_CH1_CFG                             \
 584:d:\project\9388\e1\2023_7_27\sr5e1_l9388_freeosek\modules\platform\board\include\sr5e1\evbe7000p.h ****     (GPIO_MODE_MODER_ALTERNATE |                 \
 585:d:\project\9388\e1\2023_7_27\sr5e1_l9388_freeosek\modules\platform\board\include\sr5e1\evbe7000p.h ****      GPIO_MODE_OTYPER_PUSHPULL |                 \
 586:d:\project\9388\e1\2023_7_27\sr5e1_l9388_freeosek\modules\platform\board\include\sr5e1\evbe7000p.h ****      GPIO_MODE_OSPEEDR_LOW |                     \
 587:d:\project\9388\e1\2023_7_27\sr5e1_l9388_freeosek\modules\platform\board\include\sr5e1\evbe7000p.h ****      GPIO_MODE_PUPDR_FLOATING |                  \
 588:d:\project\9388\e1\2023_7_27\sr5e1_l9388_freeosek\modules\platform\board\include\sr5e1\evbe7000p.h ****      GPIO_MODE_AFR(4U) |                         \
 589:d:\project\9388\e1\2023_7_27\sr5e1_l9388_freeosek\modules\platform\board\include\sr5e1\evbe7000p.h ****      GPIO_MODE_IHYSTR_CMOS |                     \
 590:d:\project\9388\e1\2023_7_27\sr5e1_l9388_freeosek\modules\platform\board\include\sr5e1\evbe7000p.h ****      GPIO_MODE_TRIGENR_IN_ENABLED |              \
 591:d:\project\9388\e1\2023_7_27\sr5e1_l9388_freeosek\modules\platform\board\include\sr5e1\evbe7000p.h ****      GPIO_MODE_SAFESELR_DISABLED |               \
 592:d:\project\9388\e1\2023_7_27\sr5e1_l9388_freeosek\modules\platform\board\include\sr5e1\evbe7000p.h ****      GPIO_MODE_SAFEVALR_LOW)
 593:d:\project\9388\e1\2023_7_27\sr5e1_l9388_freeosek\modules\platform\board\include\sr5e1\evbe7000p.h **** 
 594:d:\project\9388\e1\2023_7_27\sr5e1_l9388_freeosek\modules\platform\board\include\sr5e1\evbe7000p.h **** /* PortD pin settings. */
 595:d:\project\9388\e1\2023_7_27\sr5e1_l9388_freeosek\modules\platform\board\include\sr5e1\evbe7000p.h **** #define TIM1_CH2N gpio_iopack(GPIO_PORT_D, GPIO_PIN_0)
 596:d:\project\9388\e1\2023_7_27\sr5e1_l9388_freeosek\modules\platform\board\include\sr5e1\evbe7000p.h **** #define TIM1_CH2N_CFG                            \
 597:d:\project\9388\e1\2023_7_27\sr5e1_l9388_freeosek\modules\platform\board\include\sr5e1\evbe7000p.h ****     (GPIO_MODE_MODER_ALTERNATE |                 \
 598:d:\project\9388\e1\2023_7_27\sr5e1_l9388_freeosek\modules\platform\board\include\sr5e1\evbe7000p.h ****      GPIO_MODE_OTYPER_PUSHPULL |                 \
 599:d:\project\9388\e1\2023_7_27\sr5e1_l9388_freeosek\modules\platform\board\include\sr5e1\evbe7000p.h ****      GPIO_MODE_OSPEEDR_LOW |                     \
 600:d:\project\9388\e1\2023_7_27\sr5e1_l9388_freeosek\modules\platform\board\include\sr5e1\evbe7000p.h ****      GPIO_MODE_PUPDR_FLOATING |                  \
 601:d:\project\9388\e1\2023_7_27\sr5e1_l9388_freeosek\modules\platform\board\include\sr5e1\evbe7000p.h ****      GPIO_MODE_AFR(4U) |                         \
 602:d:\project\9388\e1\2023_7_27\sr5e1_l9388_freeosek\modules\platform\board\include\sr5e1\evbe7000p.h ****      GPIO_MODE_IHYSTR_CMOS |                     \
 603:d:\project\9388\e1\2023_7_27\sr5e1_l9388_freeosek\modules\platform\board\include\sr5e1\evbe7000p.h ****      GPIO_MODE_TRIGENR_IN_DISABLED |             \
 604:d:\project\9388\e1\2023_7_27\sr5e1_l9388_freeosek\modules\platform\board\include\sr5e1\evbe7000p.h ****      GPIO_MODE_SAFESELR_DISABLED |               \
 605:d:\project\9388\e1\2023_7_27\sr5e1_l9388_freeosek\modules\platform\board\include\sr5e1\evbe7000p.h ****      GPIO_MODE_SAFEVALR_LOW)
 606:d:\project\9388\e1\2023_7_27\sr5e1_l9388_freeosek\modules\platform\board\include\sr5e1\evbe7000p.h **** 
 607:d:\project\9388\e1\2023_7_27\sr5e1_l9388_freeosek\modules\platform\board\include\sr5e1\evbe7000p.h **** #define TIM1_CH2 gpio_iopack(GPIO_PORT_D, GPIO_PIN_1)
 608:d:\project\9388\e1\2023_7_27\sr5e1_l9388_freeosek\modules\platform\board\include\sr5e1\evbe7000p.h **** #define TIM1_CH2_CFG                             \
 609:d:\project\9388\e1\2023_7_27\sr5e1_l9388_freeosek\modules\platform\board\include\sr5e1\evbe7000p.h ****     (GPIO_MODE_MODER_ALTERNATE |                 \
 610:d:\project\9388\e1\2023_7_27\sr5e1_l9388_freeosek\modules\platform\board\include\sr5e1\evbe7000p.h ****      GPIO_MODE_OTYPER_PUSHPULL |                 \
 611:d:\project\9388\e1\2023_7_27\sr5e1_l9388_freeosek\modules\platform\board\include\sr5e1\evbe7000p.h ****      GPIO_MODE_OSPEEDR_LOW |                     \
 612:d:\project\9388\e1\2023_7_27\sr5e1_l9388_freeosek\modules\platform\board\include\sr5e1\evbe7000p.h ****      GPIO_MODE_PUPDR_FLOATING |                  \
 613:d:\project\9388\e1\2023_7_27\sr5e1_l9388_freeosek\modules\platform\board\include\sr5e1\evbe7000p.h ****      GPIO_MODE_AFR(4U) |                         \
 614:d:\project\9388\e1\2023_7_27\sr5e1_l9388_freeosek\modules\platform\board\include\sr5e1\evbe7000p.h ****      GPIO_MODE_IHYSTR_CMOS |                     \
 615:d:\project\9388\e1\2023_7_27\sr5e1_l9388_freeosek\modules\platform\board\include\sr5e1\evbe7000p.h ****      GPIO_MODE_TRIGENR_IN_ENABLED |              \
 616:d:\project\9388\e1\2023_7_27\sr5e1_l9388_freeosek\modules\platform\board\include\sr5e1\evbe7000p.h ****      GPIO_MODE_SAFESELR_DISABLED |               \
 617:d:\project\9388\e1\2023_7_27\sr5e1_l9388_freeosek\modules\platform\board\include\sr5e1\evbe7000p.h ****      GPIO_MODE_SAFEVALR_LOW)
 618:d:\project\9388\e1\2023_7_27\sr5e1_l9388_freeosek\modules\platform\board\include\sr5e1\evbe7000p.h **** 
 619:d:\project\9388\e1\2023_7_27\sr5e1_l9388_freeosek\modules\platform\board\include\sr5e1\evbe7000p.h **** #define TIM1_BKIN gpio_iopack(GPIO_PORT_D, GPIO_PIN_2)
 620:d:\project\9388\e1\2023_7_27\sr5e1_l9388_freeosek\modules\platform\board\include\sr5e1\evbe7000p.h **** #define TIM1_BKIN_CFG                            \
 621:d:\project\9388\e1\2023_7_27\sr5e1_l9388_freeosek\modules\platform\board\include\sr5e1\evbe7000p.h ****     (GPIO_MODE_MODER_ALTERNATE |                 \
 622:d:\project\9388\e1\2023_7_27\sr5e1_l9388_freeosek\modules\platform\board\include\sr5e1\evbe7000p.h ****      GPIO_MODE_OTYPER_PUSHPULL |                 \
 623:d:\project\9388\e1\2023_7_27\sr5e1_l9388_freeosek\modules\platform\board\include\sr5e1\evbe7000p.h ****      GPIO_MODE_OSPEEDR_LOW |                     \
 624:d:\project\9388\e1\2023_7_27\sr5e1_l9388_freeosek\modules\platform\board\include\sr5e1\evbe7000p.h ****      GPIO_MODE_PUPDR_FLOATING |                  \
 625:d:\project\9388\e1\2023_7_27\sr5e1_l9388_freeosek\modules\platform\board\include\sr5e1\evbe7000p.h ****      GPIO_MODE_AFR(4U) |                         \
 626:d:\project\9388\e1\2023_7_27\sr5e1_l9388_freeosek\modules\platform\board\include\sr5e1\evbe7000p.h ****      GPIO_MODE_IHYSTR_CMOS |                     \
 627:d:\project\9388\e1\2023_7_27\sr5e1_l9388_freeosek\modules\platform\board\include\sr5e1\evbe7000p.h ****      GPIO_MODE_TRIGENR_IN_ENABLED |              \
 628:d:\project\9388\e1\2023_7_27\sr5e1_l9388_freeosek\modules\platform\board\include\sr5e1\evbe7000p.h ****      GPIO_MODE_SAFESELR_DISABLED |               \
 629:d:\project\9388\e1\2023_7_27\sr5e1_l9388_freeosek\modules\platform\board\include\sr5e1\evbe7000p.h ****      GPIO_MODE_SAFEVALR_LOW)
 630:d:\project\9388\e1\2023_7_27\sr5e1_l9388_freeosek\modules\platform\board\include\sr5e1\evbe7000p.h **** 
 631:d:\project\9388\e1\2023_7_27\sr5e1_l9388_freeosek\modules\platform\board\include\sr5e1\evbe7000p.h **** #define TIM1_CH3N gpio_iopack(GPIO_PORT_D, GPIO_PIN_3)
 632:d:\project\9388\e1\2023_7_27\sr5e1_l9388_freeosek\modules\platform\board\include\sr5e1\evbe7000p.h **** #define TIM1_CH3N_CFG                            \
 633:d:\project\9388\e1\2023_7_27\sr5e1_l9388_freeosek\modules\platform\board\include\sr5e1\evbe7000p.h ****     (GPIO_MODE_MODER_ALTERNATE |                 \
 634:d:\project\9388\e1\2023_7_27\sr5e1_l9388_freeosek\modules\platform\board\include\sr5e1\evbe7000p.h ****      GPIO_MODE_OTYPER_PUSHPULL |                 \
 635:d:\project\9388\e1\2023_7_27\sr5e1_l9388_freeosek\modules\platform\board\include\sr5e1\evbe7000p.h ****      GPIO_MODE_OSPEEDR_LOW |                     \
 636:d:\project\9388\e1\2023_7_27\sr5e1_l9388_freeosek\modules\platform\board\include\sr5e1\evbe7000p.h ****      GPIO_MODE_PUPDR_FLOATING |                  \
 637:d:\project\9388\e1\2023_7_27\sr5e1_l9388_freeosek\modules\platform\board\include\sr5e1\evbe7000p.h ****      GPIO_MODE_AFR(4U) |                         \
 638:d:\project\9388\e1\2023_7_27\sr5e1_l9388_freeosek\modules\platform\board\include\sr5e1\evbe7000p.h ****      GPIO_MODE_IHYSTR_CMOS |                     \
 639:d:\project\9388\e1\2023_7_27\sr5e1_l9388_freeosek\modules\platform\board\include\sr5e1\evbe7000p.h ****      GPIO_MODE_TRIGENR_IN_DISABLED |             \
 640:d:\project\9388\e1\2023_7_27\sr5e1_l9388_freeosek\modules\platform\board\include\sr5e1\evbe7000p.h ****      GPIO_MODE_SAFESELR_DISABLED |               \
 641:d:\project\9388\e1\2023_7_27\sr5e1_l9388_freeosek\modules\platform\board\include\sr5e1\evbe7000p.h ****      GPIO_MODE_SAFEVALR_LOW)
 642:d:\project\9388\e1\2023_7_27\sr5e1_l9388_freeosek\modules\platform\board\include\sr5e1\evbe7000p.h **** 
 643:d:\project\9388\e1\2023_7_27\sr5e1_l9388_freeosek\modules\platform\board\include\sr5e1\evbe7000p.h **** #define TIM1_CH3 gpio_iopack(GPIO_PORT_D, GPIO_PIN_4)
 644:d:\project\9388\e1\2023_7_27\sr5e1_l9388_freeosek\modules\platform\board\include\sr5e1\evbe7000p.h **** #define TIM1_CH3_CFG                             \
 645:d:\project\9388\e1\2023_7_27\sr5e1_l9388_freeosek\modules\platform\board\include\sr5e1\evbe7000p.h ****     (GPIO_MODE_MODER_ALTERNATE |                 \
 646:d:\project\9388\e1\2023_7_27\sr5e1_l9388_freeosek\modules\platform\board\include\sr5e1\evbe7000p.h ****      GPIO_MODE_OTYPER_PUSHPULL |                 \
 647:d:\project\9388\e1\2023_7_27\sr5e1_l9388_freeosek\modules\platform\board\include\sr5e1\evbe7000p.h ****      GPIO_MODE_OSPEEDR_LOW |                     \
 648:d:\project\9388\e1\2023_7_27\sr5e1_l9388_freeosek\modules\platform\board\include\sr5e1\evbe7000p.h ****      GPIO_MODE_PUPDR_FLOATING |                  \
 649:d:\project\9388\e1\2023_7_27\sr5e1_l9388_freeosek\modules\platform\board\include\sr5e1\evbe7000p.h ****      GPIO_MODE_AFR(4U) |                         \
 650:d:\project\9388\e1\2023_7_27\sr5e1_l9388_freeosek\modules\platform\board\include\sr5e1\evbe7000p.h ****      GPIO_MODE_IHYSTR_CMOS |                     \
 651:d:\project\9388\e1\2023_7_27\sr5e1_l9388_freeosek\modules\platform\board\include\sr5e1\evbe7000p.h ****      GPIO_MODE_TRIGENR_IN_ENABLED |              \
 652:d:\project\9388\e1\2023_7_27\sr5e1_l9388_freeosek\modules\platform\board\include\sr5e1\evbe7000p.h ****      GPIO_MODE_SAFESELR_DISABLED |               \
 653:d:\project\9388\e1\2023_7_27\sr5e1_l9388_freeosek\modules\platform\board\include\sr5e1\evbe7000p.h ****      GPIO_MODE_SAFEVALR_LOW)
 654:d:\project\9388\e1\2023_7_27\sr5e1_l9388_freeosek\modules\platform\board\include\sr5e1\evbe7000p.h **** 
 655:d:\project\9388\e1\2023_7_27\sr5e1_l9388_freeosek\modules\platform\board\include\sr5e1\evbe7000p.h **** #define TIM1_CH4N gpio_iopack(GPIO_PORT_D, GPIO_PIN_5)
 656:d:\project\9388\e1\2023_7_27\sr5e1_l9388_freeosek\modules\platform\board\include\sr5e1\evbe7000p.h **** #define TIM1_CH4N_CFG                            \
 657:d:\project\9388\e1\2023_7_27\sr5e1_l9388_freeosek\modules\platform\board\include\sr5e1\evbe7000p.h ****     (GPIO_MODE_MODER_ALTERNATE |                 \
 658:d:\project\9388\e1\2023_7_27\sr5e1_l9388_freeosek\modules\platform\board\include\sr5e1\evbe7000p.h ****      GPIO_MODE_OTYPER_PUSHPULL |                 \
 659:d:\project\9388\e1\2023_7_27\sr5e1_l9388_freeosek\modules\platform\board\include\sr5e1\evbe7000p.h ****      GPIO_MODE_OSPEEDR_LOW |                     \
 660:d:\project\9388\e1\2023_7_27\sr5e1_l9388_freeosek\modules\platform\board\include\sr5e1\evbe7000p.h ****      GPIO_MODE_PUPDR_FLOATING |                  \
 661:d:\project\9388\e1\2023_7_27\sr5e1_l9388_freeosek\modules\platform\board\include\sr5e1\evbe7000p.h ****      GPIO_MODE_AFR(4U) |                         \
 662:d:\project\9388\e1\2023_7_27\sr5e1_l9388_freeosek\modules\platform\board\include\sr5e1\evbe7000p.h ****      GPIO_MODE_IHYSTR_CMOS |                     \
 663:d:\project\9388\e1\2023_7_27\sr5e1_l9388_freeosek\modules\platform\board\include\sr5e1\evbe7000p.h ****      GPIO_MODE_TRIGENR_IN_DISABLED |             \
 664:d:\project\9388\e1\2023_7_27\sr5e1_l9388_freeosek\modules\platform\board\include\sr5e1\evbe7000p.h ****      GPIO_MODE_SAFESELR_DISABLED |               \
 665:d:\project\9388\e1\2023_7_27\sr5e1_l9388_freeosek\modules\platform\board\include\sr5e1\evbe7000p.h ****      GPIO_MODE_SAFEVALR_LOW)
 666:d:\project\9388\e1\2023_7_27\sr5e1_l9388_freeosek\modules\platform\board\include\sr5e1\evbe7000p.h **** 
 667:d:\project\9388\e1\2023_7_27\sr5e1_l9388_freeosek\modules\platform\board\include\sr5e1\evbe7000p.h **** #define TIM1_CH4 gpio_iopack(GPIO_PORT_D, GPIO_PIN_6)
 668:d:\project\9388\e1\2023_7_27\sr5e1_l9388_freeosek\modules\platform\board\include\sr5e1\evbe7000p.h **** #define TIM1_CH4_CFG                             \
 669:d:\project\9388\e1\2023_7_27\sr5e1_l9388_freeosek\modules\platform\board\include\sr5e1\evbe7000p.h ****     (GPIO_MODE_MODER_ALTERNATE |                 \
 670:d:\project\9388\e1\2023_7_27\sr5e1_l9388_freeosek\modules\platform\board\include\sr5e1\evbe7000p.h ****      GPIO_MODE_OTYPER_PUSHPULL |                 \
 671:d:\project\9388\e1\2023_7_27\sr5e1_l9388_freeosek\modules\platform\board\include\sr5e1\evbe7000p.h ****      GPIO_MODE_OSPEEDR_LOW |                     \
 672:d:\project\9388\e1\2023_7_27\sr5e1_l9388_freeosek\modules\platform\board\include\sr5e1\evbe7000p.h ****      GPIO_MODE_PUPDR_FLOATING |                  \
 673:d:\project\9388\e1\2023_7_27\sr5e1_l9388_freeosek\modules\platform\board\include\sr5e1\evbe7000p.h ****      GPIO_MODE_AFR(4U) |                         \
 674:d:\project\9388\e1\2023_7_27\sr5e1_l9388_freeosek\modules\platform\board\include\sr5e1\evbe7000p.h ****      GPIO_MODE_IHYSTR_CMOS |                     \
 675:d:\project\9388\e1\2023_7_27\sr5e1_l9388_freeosek\modules\platform\board\include\sr5e1\evbe7000p.h ****      GPIO_MODE_TRIGENR_IN_ENABLED |              \
 676:d:\project\9388\e1\2023_7_27\sr5e1_l9388_freeosek\modules\platform\board\include\sr5e1\evbe7000p.h ****      GPIO_MODE_SAFESELR_DISABLED |               \
 677:d:\project\9388\e1\2023_7_27\sr5e1_l9388_freeosek\modules\platform\board\include\sr5e1\evbe7000p.h ****      GPIO_MODE_SAFEVALR_LOW)
 678:d:\project\9388\e1\2023_7_27\sr5e1_l9388_freeosek\modules\platform\board\include\sr5e1\evbe7000p.h **** 
 679:d:\project\9388\e1\2023_7_27\sr5e1_l9388_freeosek\modules\platform\board\include\sr5e1\evbe7000p.h **** #define HRTIM1_CHF2 gpio_iopack(GPIO_PORT_D, GPIO_PIN_7)
 680:d:\project\9388\e1\2023_7_27\sr5e1_l9388_freeosek\modules\platform\board\include\sr5e1\evbe7000p.h **** #define HRTIM1_CHF2_CFG                          \
 681:d:\project\9388\e1\2023_7_27\sr5e1_l9388_freeosek\modules\platform\board\include\sr5e1\evbe7000p.h ****     (GPIO_MODE_MODER_ALTERNATE |                 \
 682:d:\project\9388\e1\2023_7_27\sr5e1_l9388_freeosek\modules\platform\board\include\sr5e1\evbe7000p.h ****      GPIO_MODE_OTYPER_PUSHPULL |                 \
 683:d:\project\9388\e1\2023_7_27\sr5e1_l9388_freeosek\modules\platform\board\include\sr5e1\evbe7000p.h ****      GPIO_MODE_OSPEEDR_LOW |                     \
 684:d:\project\9388\e1\2023_7_27\sr5e1_l9388_freeosek\modules\platform\board\include\sr5e1\evbe7000p.h ****      GPIO_MODE_PUPDR_FLOATING |                  \
 685:d:\project\9388\e1\2023_7_27\sr5e1_l9388_freeosek\modules\platform\board\include\sr5e1\evbe7000p.h ****      GPIO_MODE_AFR(3U) |                         \
 686:d:\project\9388\e1\2023_7_27\sr5e1_l9388_freeosek\modules\platform\board\include\sr5e1\evbe7000p.h ****      GPIO_MODE_IHYSTR_CMOS |                     \
 687:d:\project\9388\e1\2023_7_27\sr5e1_l9388_freeosek\modules\platform\board\include\sr5e1\evbe7000p.h ****      GPIO_MODE_TRIGENR_IN_DISABLED |             \
 688:d:\project\9388\e1\2023_7_27\sr5e1_l9388_freeosek\modules\platform\board\include\sr5e1\evbe7000p.h ****      GPIO_MODE_SAFESELR_DISABLED |               \
 689:d:\project\9388\e1\2023_7_27\sr5e1_l9388_freeosek\modules\platform\board\include\sr5e1\evbe7000p.h ****      GPIO_MODE_SAFEVALR_LOW)
 690:d:\project\9388\e1\2023_7_27\sr5e1_l9388_freeosek\modules\platform\board\include\sr5e1\evbe7000p.h **** 
 691:d:\project\9388\e1\2023_7_27\sr5e1_l9388_freeosek\modules\platform\board\include\sr5e1\evbe7000p.h **** #define HRTIM1_CHF1 gpio_iopack(GPIO_PORT_D, GPIO_PIN_8)
 692:d:\project\9388\e1\2023_7_27\sr5e1_l9388_freeosek\modules\platform\board\include\sr5e1\evbe7000p.h **** #define HRTIM1_CHF1_CFG                          \
 693:d:\project\9388\e1\2023_7_27\sr5e1_l9388_freeosek\modules\platform\board\include\sr5e1\evbe7000p.h ****     (GPIO_MODE_MODER_ALTERNATE |                 \
 694:d:\project\9388\e1\2023_7_27\sr5e1_l9388_freeosek\modules\platform\board\include\sr5e1\evbe7000p.h ****      GPIO_MODE_OTYPER_PUSHPULL |                 \
 695:d:\project\9388\e1\2023_7_27\sr5e1_l9388_freeosek\modules\platform\board\include\sr5e1\evbe7000p.h ****      GPIO_MODE_OSPEEDR_LOW |                     \
 696:d:\project\9388\e1\2023_7_27\sr5e1_l9388_freeosek\modules\platform\board\include\sr5e1\evbe7000p.h ****      GPIO_MODE_PUPDR_FLOATING |                  \
 697:d:\project\9388\e1\2023_7_27\sr5e1_l9388_freeosek\modules\platform\board\include\sr5e1\evbe7000p.h ****      GPIO_MODE_AFR(3U) |                         \
 698:d:\project\9388\e1\2023_7_27\sr5e1_l9388_freeosek\modules\platform\board\include\sr5e1\evbe7000p.h ****      GPIO_MODE_IHYSTR_CMOS |                     \
 699:d:\project\9388\e1\2023_7_27\sr5e1_l9388_freeosek\modules\platform\board\include\sr5e1\evbe7000p.h ****      GPIO_MODE_TRIGENR_IN_DISABLED |             \
 700:d:\project\9388\e1\2023_7_27\sr5e1_l9388_freeosek\modules\platform\board\include\sr5e1\evbe7000p.h ****      GPIO_MODE_SAFESELR_DISABLED |               \
 701:d:\project\9388\e1\2023_7_27\sr5e1_l9388_freeosek\modules\platform\board\include\sr5e1\evbe7000p.h ****      GPIO_MODE_SAFEVALR_LOW)
 702:d:\project\9388\e1\2023_7_27\sr5e1_l9388_freeosek\modules\platform\board\include\sr5e1\evbe7000p.h **** 
 703:d:\project\9388\e1\2023_7_27\sr5e1_l9388_freeosek\modules\platform\board\include\sr5e1\evbe7000p.h **** #define HRTIM1_EEV2 gpio_iopack(GPIO_PORT_D, GPIO_PIN_9)
 704:d:\project\9388\e1\2023_7_27\sr5e1_l9388_freeosek\modules\platform\board\include\sr5e1\evbe7000p.h **** #define HRTIM1_EEV2_CFG                          \
 705:d:\project\9388\e1\2023_7_27\sr5e1_l9388_freeosek\modules\platform\board\include\sr5e1\evbe7000p.h ****     (GPIO_MODE_MODER_ALTERNATE |                 \
 706:d:\project\9388\e1\2023_7_27\sr5e1_l9388_freeosek\modules\platform\board\include\sr5e1\evbe7000p.h ****      GPIO_MODE_OTYPER_PUSHPULL |                 \
 707:d:\project\9388\e1\2023_7_27\sr5e1_l9388_freeosek\modules\platform\board\include\sr5e1\evbe7000p.h ****      GPIO_MODE_OSPEEDR_LOW |                     \
 708:d:\project\9388\e1\2023_7_27\sr5e1_l9388_freeosek\modules\platform\board\include\sr5e1\evbe7000p.h ****      GPIO_MODE_PUPDR_FLOATING |                  \
 709:d:\project\9388\e1\2023_7_27\sr5e1_l9388_freeosek\modules\platform\board\include\sr5e1\evbe7000p.h ****      GPIO_MODE_AFR(3U) |                         \
 710:d:\project\9388\e1\2023_7_27\sr5e1_l9388_freeosek\modules\platform\board\include\sr5e1\evbe7000p.h ****      GPIO_MODE_IHYSTR_CMOS |                     \
 711:d:\project\9388\e1\2023_7_27\sr5e1_l9388_freeosek\modules\platform\board\include\sr5e1\evbe7000p.h ****      GPIO_MODE_TRIGENR_IN_ENABLED |              \
 712:d:\project\9388\e1\2023_7_27\sr5e1_l9388_freeosek\modules\platform\board\include\sr5e1\evbe7000p.h ****      GPIO_MODE_SAFESELR_DISABLED |               \
 713:d:\project\9388\e1\2023_7_27\sr5e1_l9388_freeosek\modules\platform\board\include\sr5e1\evbe7000p.h ****      GPIO_MODE_SAFEVALR_LOW)
 714:d:\project\9388\e1\2023_7_27\sr5e1_l9388_freeosek\modules\platform\board\include\sr5e1\evbe7000p.h **** 
 715:d:\project\9388\e1\2023_7_27\sr5e1_l9388_freeosek\modules\platform\board\include\sr5e1\evbe7000p.h **** #define HRTIM1_CHE2 gpio_iopack(GPIO_PORT_D, GPIO_PIN_10)
 716:d:\project\9388\e1\2023_7_27\sr5e1_l9388_freeosek\modules\platform\board\include\sr5e1\evbe7000p.h **** #define HRTIM1_CHE2_CFG                          \
 717:d:\project\9388\e1\2023_7_27\sr5e1_l9388_freeosek\modules\platform\board\include\sr5e1\evbe7000p.h ****     (GPIO_MODE_MODER_ALTERNATE |                 \
 718:d:\project\9388\e1\2023_7_27\sr5e1_l9388_freeosek\modules\platform\board\include\sr5e1\evbe7000p.h ****      GPIO_MODE_OTYPER_PUSHPULL |                 \
 719:d:\project\9388\e1\2023_7_27\sr5e1_l9388_freeosek\modules\platform\board\include\sr5e1\evbe7000p.h ****      GPIO_MODE_OSPEEDR_LOW |                     \
 720:d:\project\9388\e1\2023_7_27\sr5e1_l9388_freeosek\modules\platform\board\include\sr5e1\evbe7000p.h ****      GPIO_MODE_PUPDR_FLOATING |                  \
 721:d:\project\9388\e1\2023_7_27\sr5e1_l9388_freeosek\modules\platform\board\include\sr5e1\evbe7000p.h ****      GPIO_MODE_AFR(3U) |                         \
 722:d:\project\9388\e1\2023_7_27\sr5e1_l9388_freeosek\modules\platform\board\include\sr5e1\evbe7000p.h ****      GPIO_MODE_IHYSTR_CMOS |                     \
 723:d:\project\9388\e1\2023_7_27\sr5e1_l9388_freeosek\modules\platform\board\include\sr5e1\evbe7000p.h ****      GPIO_MODE_TRIGENR_IN_DISABLED |             \
 724:d:\project\9388\e1\2023_7_27\sr5e1_l9388_freeosek\modules\platform\board\include\sr5e1\evbe7000p.h ****      GPIO_MODE_SAFESELR_DISABLED |               \
 725:d:\project\9388\e1\2023_7_27\sr5e1_l9388_freeosek\modules\platform\board\include\sr5e1\evbe7000p.h ****      GPIO_MODE_SAFEVALR_LOW)
 726:d:\project\9388\e1\2023_7_27\sr5e1_l9388_freeosek\modules\platform\board\include\sr5e1\evbe7000p.h **** 
 727:d:\project\9388\e1\2023_7_27\sr5e1_l9388_freeosek\modules\platform\board\include\sr5e1\evbe7000p.h **** #define HRTIM1_CHE1 gpio_iopack(GPIO_PORT_D, GPIO_PIN_11)
 728:d:\project\9388\e1\2023_7_27\sr5e1_l9388_freeosek\modules\platform\board\include\sr5e1\evbe7000p.h **** #define HRTIM1_CHE1_CFG                          \
 729:d:\project\9388\e1\2023_7_27\sr5e1_l9388_freeosek\modules\platform\board\include\sr5e1\evbe7000p.h ****     (GPIO_MODE_MODER_ALTERNATE |                 \
 730:d:\project\9388\e1\2023_7_27\sr5e1_l9388_freeosek\modules\platform\board\include\sr5e1\evbe7000p.h ****      GPIO_MODE_OTYPER_PUSHPULL |                 \
 731:d:\project\9388\e1\2023_7_27\sr5e1_l9388_freeosek\modules\platform\board\include\sr5e1\evbe7000p.h ****      GPIO_MODE_OSPEEDR_LOW |                     \
 732:d:\project\9388\e1\2023_7_27\sr5e1_l9388_freeosek\modules\platform\board\include\sr5e1\evbe7000p.h ****      GPIO_MODE_PUPDR_FLOATING |                  \
 733:d:\project\9388\e1\2023_7_27\sr5e1_l9388_freeosek\modules\platform\board\include\sr5e1\evbe7000p.h ****      GPIO_MODE_AFR(3U) |                         \
 734:d:\project\9388\e1\2023_7_27\sr5e1_l9388_freeosek\modules\platform\board\include\sr5e1\evbe7000p.h ****      GPIO_MODE_IHYSTR_CMOS |                     \
 735:d:\project\9388\e1\2023_7_27\sr5e1_l9388_freeosek\modules\platform\board\include\sr5e1\evbe7000p.h ****      GPIO_MODE_TRIGENR_IN_DISABLED |             \
 736:d:\project\9388\e1\2023_7_27\sr5e1_l9388_freeosek\modules\platform\board\include\sr5e1\evbe7000p.h ****      GPIO_MODE_SAFESELR_DISABLED |               \
 737:d:\project\9388\e1\2023_7_27\sr5e1_l9388_freeosek\modules\platform\board\include\sr5e1\evbe7000p.h ****      GPIO_MODE_SAFEVALR_LOW)
 738:d:\project\9388\e1\2023_7_27\sr5e1_l9388_freeosek\modules\platform\board\include\sr5e1\evbe7000p.h **** 
 739:d:\project\9388\e1\2023_7_27\sr5e1_l9388_freeosek\modules\platform\board\include\sr5e1\evbe7000p.h **** #define HRTIM1_CHD2 gpio_iopack(GPIO_PORT_D, GPIO_PIN_12)
 740:d:\project\9388\e1\2023_7_27\sr5e1_l9388_freeosek\modules\platform\board\include\sr5e1\evbe7000p.h **** #define HRTIM1_CHD2_CFG                          \
 741:d:\project\9388\e1\2023_7_27\sr5e1_l9388_freeosek\modules\platform\board\include\sr5e1\evbe7000p.h ****     (GPIO_MODE_MODER_ALTERNATE |                 \
 742:d:\project\9388\e1\2023_7_27\sr5e1_l9388_freeosek\modules\platform\board\include\sr5e1\evbe7000p.h ****      GPIO_MODE_OTYPER_PUSHPULL |                 \
 743:d:\project\9388\e1\2023_7_27\sr5e1_l9388_freeosek\modules\platform\board\include\sr5e1\evbe7000p.h ****      GPIO_MODE_OSPEEDR_LOW |                     \
 744:d:\project\9388\e1\2023_7_27\sr5e1_l9388_freeosek\modules\platform\board\include\sr5e1\evbe7000p.h ****      GPIO_MODE_PUPDR_FLOATING |                  \
 745:d:\project\9388\e1\2023_7_27\sr5e1_l9388_freeosek\modules\platform\board\include\sr5e1\evbe7000p.h ****      GPIO_MODE_AFR(3U) |                         \
 746:d:\project\9388\e1\2023_7_27\sr5e1_l9388_freeosek\modules\platform\board\include\sr5e1\evbe7000p.h ****      GPIO_MODE_IHYSTR_CMOS |                     \
 747:d:\project\9388\e1\2023_7_27\sr5e1_l9388_freeosek\modules\platform\board\include\sr5e1\evbe7000p.h ****      GPIO_MODE_TRIGENR_IN_DISABLED |             \
 748:d:\project\9388\e1\2023_7_27\sr5e1_l9388_freeosek\modules\platform\board\include\sr5e1\evbe7000p.h ****      GPIO_MODE_SAFESELR_DISABLED |               \
 749:d:\project\9388\e1\2023_7_27\sr5e1_l9388_freeosek\modules\platform\board\include\sr5e1\evbe7000p.h ****      GPIO_MODE_SAFEVALR_LOW)
 750:d:\project\9388\e1\2023_7_27\sr5e1_l9388_freeosek\modules\platform\board\include\sr5e1\evbe7000p.h **** 
 751:d:\project\9388\e1\2023_7_27\sr5e1_l9388_freeosek\modules\platform\board\include\sr5e1\evbe7000p.h **** #define HRTIM1_CHD1 gpio_iopack(GPIO_PORT_D, GPIO_PIN_13)
 752:d:\project\9388\e1\2023_7_27\sr5e1_l9388_freeosek\modules\platform\board\include\sr5e1\evbe7000p.h **** #define HRTIM1_CHD1_CFG                          \
 753:d:\project\9388\e1\2023_7_27\sr5e1_l9388_freeosek\modules\platform\board\include\sr5e1\evbe7000p.h ****     (GPIO_MODE_MODER_ALTERNATE |                 \
 754:d:\project\9388\e1\2023_7_27\sr5e1_l9388_freeosek\modules\platform\board\include\sr5e1\evbe7000p.h ****      GPIO_MODE_OTYPER_PUSHPULL |                 \
 755:d:\project\9388\e1\2023_7_27\sr5e1_l9388_freeosek\modules\platform\board\include\sr5e1\evbe7000p.h ****      GPIO_MODE_OSPEEDR_LOW |                     \
 756:d:\project\9388\e1\2023_7_27\sr5e1_l9388_freeosek\modules\platform\board\include\sr5e1\evbe7000p.h ****      GPIO_MODE_PUPDR_FLOATING |                  \
 757:d:\project\9388\e1\2023_7_27\sr5e1_l9388_freeosek\modules\platform\board\include\sr5e1\evbe7000p.h ****      GPIO_MODE_AFR(3U) |                         \
 758:d:\project\9388\e1\2023_7_27\sr5e1_l9388_freeosek\modules\platform\board\include\sr5e1\evbe7000p.h ****      GPIO_MODE_IHYSTR_CMOS |                     \
 759:d:\project\9388\e1\2023_7_27\sr5e1_l9388_freeosek\modules\platform\board\include\sr5e1\evbe7000p.h ****      GPIO_MODE_TRIGENR_IN_DISABLED |             \
 760:d:\project\9388\e1\2023_7_27\sr5e1_l9388_freeosek\modules\platform\board\include\sr5e1\evbe7000p.h ****      GPIO_MODE_SAFESELR_DISABLED |               \
 761:d:\project\9388\e1\2023_7_27\sr5e1_l9388_freeosek\modules\platform\board\include\sr5e1\evbe7000p.h ****      GPIO_MODE_SAFEVALR_LOW)
 762:d:\project\9388\e1\2023_7_27\sr5e1_l9388_freeosek\modules\platform\board\include\sr5e1\evbe7000p.h **** 
 763:d:\project\9388\e1\2023_7_27\sr5e1_l9388_freeosek\modules\platform\board\include\sr5e1\evbe7000p.h **** #define HRTIM1_CHC2 gpio_iopack(GPIO_PORT_D, GPIO_PIN_14)
 764:d:\project\9388\e1\2023_7_27\sr5e1_l9388_freeosek\modules\platform\board\include\sr5e1\evbe7000p.h **** #define HRTIM1_CHC2_CFG                          \
 765:d:\project\9388\e1\2023_7_27\sr5e1_l9388_freeosek\modules\platform\board\include\sr5e1\evbe7000p.h ****     (GPIO_MODE_MODER_ALTERNATE |                 \
 766:d:\project\9388\e1\2023_7_27\sr5e1_l9388_freeosek\modules\platform\board\include\sr5e1\evbe7000p.h ****      GPIO_MODE_OTYPER_PUSHPULL |                 \
 767:d:\project\9388\e1\2023_7_27\sr5e1_l9388_freeosek\modules\platform\board\include\sr5e1\evbe7000p.h ****      GPIO_MODE_OSPEEDR_LOW |                     \
 768:d:\project\9388\e1\2023_7_27\sr5e1_l9388_freeosek\modules\platform\board\include\sr5e1\evbe7000p.h ****      GPIO_MODE_PUPDR_FLOATING |                  \
 769:d:\project\9388\e1\2023_7_27\sr5e1_l9388_freeosek\modules\platform\board\include\sr5e1\evbe7000p.h ****      GPIO_MODE_AFR(3U) |                         \
 770:d:\project\9388\e1\2023_7_27\sr5e1_l9388_freeosek\modules\platform\board\include\sr5e1\evbe7000p.h ****      GPIO_MODE_IHYSTR_CMOS |                     \
 771:d:\project\9388\e1\2023_7_27\sr5e1_l9388_freeosek\modules\platform\board\include\sr5e1\evbe7000p.h ****      GPIO_MODE_TRIGENR_IN_DISABLED |             \
 772:d:\project\9388\e1\2023_7_27\sr5e1_l9388_freeosek\modules\platform\board\include\sr5e1\evbe7000p.h ****      GPIO_MODE_SAFESELR_DISABLED |               \
 773:d:\project\9388\e1\2023_7_27\sr5e1_l9388_freeosek\modules\platform\board\include\sr5e1\evbe7000p.h ****      GPIO_MODE_SAFEVALR_LOW)
 774:d:\project\9388\e1\2023_7_27\sr5e1_l9388_freeosek\modules\platform\board\include\sr5e1\evbe7000p.h **** 
 775:d:\project\9388\e1\2023_7_27\sr5e1_l9388_freeosek\modules\platform\board\include\sr5e1\evbe7000p.h **** #define HRTIM1_CHC1 gpio_iopack(GPIO_PORT_D, GPIO_PIN_15)
 776:d:\project\9388\e1\2023_7_27\sr5e1_l9388_freeosek\modules\platform\board\include\sr5e1\evbe7000p.h **** #define HRTIM1_CHC1_CFG                          \
 777:d:\project\9388\e1\2023_7_27\sr5e1_l9388_freeosek\modules\platform\board\include\sr5e1\evbe7000p.h ****     (GPIO_MODE_MODER_ALTERNATE |                 \
 778:d:\project\9388\e1\2023_7_27\sr5e1_l9388_freeosek\modules\platform\board\include\sr5e1\evbe7000p.h ****      GPIO_MODE_OTYPER_PUSHPULL |                 \
 779:d:\project\9388\e1\2023_7_27\sr5e1_l9388_freeosek\modules\platform\board\include\sr5e1\evbe7000p.h ****      GPIO_MODE_OSPEEDR_LOW |                     \
 780:d:\project\9388\e1\2023_7_27\sr5e1_l9388_freeosek\modules\platform\board\include\sr5e1\evbe7000p.h ****      GPIO_MODE_PUPDR_FLOATING |                  \
 781:d:\project\9388\e1\2023_7_27\sr5e1_l9388_freeosek\modules\platform\board\include\sr5e1\evbe7000p.h ****      GPIO_MODE_AFR(3U) |                         \
 782:d:\project\9388\e1\2023_7_27\sr5e1_l9388_freeosek\modules\platform\board\include\sr5e1\evbe7000p.h ****      GPIO_MODE_IHYSTR_CMOS |                     \
 783:d:\project\9388\e1\2023_7_27\sr5e1_l9388_freeosek\modules\platform\board\include\sr5e1\evbe7000p.h ****      GPIO_MODE_TRIGENR_IN_DISABLED |             \
 784:d:\project\9388\e1\2023_7_27\sr5e1_l9388_freeosek\modules\platform\board\include\sr5e1\evbe7000p.h ****      GPIO_MODE_SAFESELR_DISABLED |               \
 785:d:\project\9388\e1\2023_7_27\sr5e1_l9388_freeosek\modules\platform\board\include\sr5e1\evbe7000p.h ****      GPIO_MODE_SAFEVALR_LOW)
 786:d:\project\9388\e1\2023_7_27\sr5e1_l9388_freeosek\modules\platform\board\include\sr5e1\evbe7000p.h **** 
 787:d:\project\9388\e1\2023_7_27\sr5e1_l9388_freeosek\modules\platform\board\include\sr5e1\evbe7000p.h **** /* PortE pin settings. */
 788:d:\project\9388\e1\2023_7_27\sr5e1_l9388_freeosek\modules\platform\board\include\sr5e1\evbe7000p.h **** /* GPIOE[0] is used to drive the USER_LED_1
 789:d:\project\9388\e1\2023_7_27\sr5e1_l9388_freeosek\modules\platform\board\include\sr5e1\evbe7000p.h **** #define HRTIM1_EEV6 gpio_iopack(GPIO_PORT_E, GPIO_PIN_0)
 790:d:\project\9388\e1\2023_7_27\sr5e1_l9388_freeosek\modules\platform\board\include\sr5e1\evbe7000p.h **** #define HRTIM1_EEV6_CFG                          \
 791:d:\project\9388\e1\2023_7_27\sr5e1_l9388_freeosek\modules\platform\board\include\sr5e1\evbe7000p.h ****     (GPIO_MODE_MODER_ALTERNATE |                 \
 792:d:\project\9388\e1\2023_7_27\sr5e1_l9388_freeosek\modules\platform\board\include\sr5e1\evbe7000p.h ****      GPIO_MODE_OTYPER_PUSHPULL |                 \
 793:d:\project\9388\e1\2023_7_27\sr5e1_l9388_freeosek\modules\platform\board\include\sr5e1\evbe7000p.h ****      GPIO_MODE_OSPEEDR_LOW |                     \
 794:d:\project\9388\e1\2023_7_27\sr5e1_l9388_freeosek\modules\platform\board\include\sr5e1\evbe7000p.h ****      GPIO_MODE_PUPDR_FLOATING |                  \
 795:d:\project\9388\e1\2023_7_27\sr5e1_l9388_freeosek\modules\platform\board\include\sr5e1\evbe7000p.h ****      GPIO_MODE_AFR(3U) |                         \
 796:d:\project\9388\e1\2023_7_27\sr5e1_l9388_freeosek\modules\platform\board\include\sr5e1\evbe7000p.h ****      GPIO_MODE_IHYSTR_CMOS |                     \
 797:d:\project\9388\e1\2023_7_27\sr5e1_l9388_freeosek\modules\platform\board\include\sr5e1\evbe7000p.h ****      GPIO_MODE_TRIGENR_IN_ENABLED |              \
 798:d:\project\9388\e1\2023_7_27\sr5e1_l9388_freeosek\modules\platform\board\include\sr5e1\evbe7000p.h ****      GPIO_MODE_SAFESELR_DISABLED |               \
 799:d:\project\9388\e1\2023_7_27\sr5e1_l9388_freeosek\modules\platform\board\include\sr5e1\evbe7000p.h ****      GPIO_MODE_SAFEVALR_LOW)
 800:d:\project\9388\e1\2023_7_27\sr5e1_l9388_freeosek\modules\platform\board\include\sr5e1\evbe7000p.h **** */
 801:d:\project\9388\e1\2023_7_27\sr5e1_l9388_freeosek\modules\platform\board\include\sr5e1\evbe7000p.h **** #define USER_LED_1 gpio_iopack(GPIO_PORT_E, GPIO_PIN_0)
 802:d:\project\9388\e1\2023_7_27\sr5e1_l9388_freeosek\modules\platform\board\include\sr5e1\evbe7000p.h **** #define USER_LED_1_CFG                           \
 803:d:\project\9388\e1\2023_7_27\sr5e1_l9388_freeosek\modules\platform\board\include\sr5e1\evbe7000p.h ****     (GPIO_MODE_MODER_OUTPUT |                    \
 804:d:\project\9388\e1\2023_7_27\sr5e1_l9388_freeosek\modules\platform\board\include\sr5e1\evbe7000p.h ****      GPIO_MODE_OTYPER_PUSHPULL |                 \
 805:d:\project\9388\e1\2023_7_27\sr5e1_l9388_freeosek\modules\platform\board\include\sr5e1\evbe7000p.h ****      GPIO_MODE_OSPEEDR_HIGH |                    \
 806:d:\project\9388\e1\2023_7_27\sr5e1_l9388_freeosek\modules\platform\board\include\sr5e1\evbe7000p.h ****      GPIO_MODE_PUPDR_FLOATING |                  \
 807:d:\project\9388\e1\2023_7_27\sr5e1_l9388_freeosek\modules\platform\board\include\sr5e1\evbe7000p.h ****      GPIO_MODE_AFR(0U) |                         \
 808:d:\project\9388\e1\2023_7_27\sr5e1_l9388_freeosek\modules\platform\board\include\sr5e1\evbe7000p.h ****      GPIO_MODE_IHYSTR_CMOS |                     \
 809:d:\project\9388\e1\2023_7_27\sr5e1_l9388_freeosek\modules\platform\board\include\sr5e1\evbe7000p.h ****      GPIO_MODE_TRIGENR_IN_DISABLED |             \
 810:d:\project\9388\e1\2023_7_27\sr5e1_l9388_freeosek\modules\platform\board\include\sr5e1\evbe7000p.h ****      GPIO_MODE_SAFESELR_DISABLED |               \
 811:d:\project\9388\e1\2023_7_27\sr5e1_l9388_freeosek\modules\platform\board\include\sr5e1\evbe7000p.h ****      GPIO_MODE_SAFEVALR_LOW)
 812:d:\project\9388\e1\2023_7_27\sr5e1_l9388_freeosek\modules\platform\board\include\sr5e1\evbe7000p.h **** 
 813:d:\project\9388\e1\2023_7_27\sr5e1_l9388_freeosek\modules\platform\board\include\sr5e1\evbe7000p.h **** #define HRTIM1_CHB2 gpio_iopack(GPIO_PORT_E, GPIO_PIN_1)
 814:d:\project\9388\e1\2023_7_27\sr5e1_l9388_freeosek\modules\platform\board\include\sr5e1\evbe7000p.h **** #define HRTIM1_CHB2_CFG                          \
 815:d:\project\9388\e1\2023_7_27\sr5e1_l9388_freeosek\modules\platform\board\include\sr5e1\evbe7000p.h ****     (GPIO_MODE_MODER_ALTERNATE |                 \
 816:d:\project\9388\e1\2023_7_27\sr5e1_l9388_freeosek\modules\platform\board\include\sr5e1\evbe7000p.h ****      GPIO_MODE_OTYPER_PUSHPULL |                 \
 817:d:\project\9388\e1\2023_7_27\sr5e1_l9388_freeosek\modules\platform\board\include\sr5e1\evbe7000p.h ****      GPIO_MODE_OSPEEDR_LOW |                     \
 818:d:\project\9388\e1\2023_7_27\sr5e1_l9388_freeosek\modules\platform\board\include\sr5e1\evbe7000p.h ****      GPIO_MODE_PUPDR_FLOATING |                  \
 819:d:\project\9388\e1\2023_7_27\sr5e1_l9388_freeosek\modules\platform\board\include\sr5e1\evbe7000p.h ****      GPIO_MODE_AFR(3U) |                         \
 820:d:\project\9388\e1\2023_7_27\sr5e1_l9388_freeosek\modules\platform\board\include\sr5e1\evbe7000p.h ****      GPIO_MODE_IHYSTR_CMOS |                     \
 821:d:\project\9388\e1\2023_7_27\sr5e1_l9388_freeosek\modules\platform\board\include\sr5e1\evbe7000p.h ****      GPIO_MODE_TRIGENR_IN_DISABLED |             \
 822:d:\project\9388\e1\2023_7_27\sr5e1_l9388_freeosek\modules\platform\board\include\sr5e1\evbe7000p.h ****      GPIO_MODE_SAFESELR_DISABLED |               \
 823:d:\project\9388\e1\2023_7_27\sr5e1_l9388_freeosek\modules\platform\board\include\sr5e1\evbe7000p.h ****      GPIO_MODE_SAFEVALR_LOW)
 824:d:\project\9388\e1\2023_7_27\sr5e1_l9388_freeosek\modules\platform\board\include\sr5e1\evbe7000p.h **** 
 825:d:\project\9388\e1\2023_7_27\sr5e1_l9388_freeosek\modules\platform\board\include\sr5e1\evbe7000p.h **** #define HRTIM1_CHB1 gpio_iopack(GPIO_PORT_E, GPIO_PIN_2)
 826:d:\project\9388\e1\2023_7_27\sr5e1_l9388_freeosek\modules\platform\board\include\sr5e1\evbe7000p.h **** #define HRTIM1_CHB1_CFG                          \
 827:d:\project\9388\e1\2023_7_27\sr5e1_l9388_freeosek\modules\platform\board\include\sr5e1\evbe7000p.h ****     (GPIO_MODE_MODER_ALTERNATE |                 \
 828:d:\project\9388\e1\2023_7_27\sr5e1_l9388_freeosek\modules\platform\board\include\sr5e1\evbe7000p.h ****      GPIO_MODE_OTYPER_PUSHPULL |                 \
 829:d:\project\9388\e1\2023_7_27\sr5e1_l9388_freeosek\modules\platform\board\include\sr5e1\evbe7000p.h ****      GPIO_MODE_OSPEEDR_LOW |                     \
 830:d:\project\9388\e1\2023_7_27\sr5e1_l9388_freeosek\modules\platform\board\include\sr5e1\evbe7000p.h ****      GPIO_MODE_PUPDR_FLOATING |                  \
 831:d:\project\9388\e1\2023_7_27\sr5e1_l9388_freeosek\modules\platform\board\include\sr5e1\evbe7000p.h ****      GPIO_MODE_AFR(3U) |                         \
 832:d:\project\9388\e1\2023_7_27\sr5e1_l9388_freeosek\modules\platform\board\include\sr5e1\evbe7000p.h ****      GPIO_MODE_IHYSTR_CMOS |                     \
 833:d:\project\9388\e1\2023_7_27\sr5e1_l9388_freeosek\modules\platform\board\include\sr5e1\evbe7000p.h ****      GPIO_MODE_TRIGENR_IN_DISABLED |             \
 834:d:\project\9388\e1\2023_7_27\sr5e1_l9388_freeosek\modules\platform\board\include\sr5e1\evbe7000p.h ****      GPIO_MODE_SAFESELR_DISABLED |               \
 835:d:\project\9388\e1\2023_7_27\sr5e1_l9388_freeosek\modules\platform\board\include\sr5e1\evbe7000p.h ****      GPIO_MODE_SAFEVALR_LOW)
 836:d:\project\9388\e1\2023_7_27\sr5e1_l9388_freeosek\modules\platform\board\include\sr5e1\evbe7000p.h **** 
 837:d:\project\9388\e1\2023_7_27\sr5e1_l9388_freeosek\modules\platform\board\include\sr5e1\evbe7000p.h **** #define HRTIM1_CHA2 gpio_iopack(GPIO_PORT_E, GPIO_PIN_3)
 838:d:\project\9388\e1\2023_7_27\sr5e1_l9388_freeosek\modules\platform\board\include\sr5e1\evbe7000p.h **** #define HRTIM1_CHA2_CFG                          \
 839:d:\project\9388\e1\2023_7_27\sr5e1_l9388_freeosek\modules\platform\board\include\sr5e1\evbe7000p.h ****     (GPIO_MODE_MODER_ALTERNATE |                 \
 840:d:\project\9388\e1\2023_7_27\sr5e1_l9388_freeosek\modules\platform\board\include\sr5e1\evbe7000p.h ****      GPIO_MODE_OTYPER_PUSHPULL |                 \
 841:d:\project\9388\e1\2023_7_27\sr5e1_l9388_freeosek\modules\platform\board\include\sr5e1\evbe7000p.h ****      GPIO_MODE_OSPEEDR_LOW |                     \
 842:d:\project\9388\e1\2023_7_27\sr5e1_l9388_freeosek\modules\platform\board\include\sr5e1\evbe7000p.h ****      GPIO_MODE_PUPDR_FLOATING |                  \
 843:d:\project\9388\e1\2023_7_27\sr5e1_l9388_freeosek\modules\platform\board\include\sr5e1\evbe7000p.h ****      GPIO_MODE_AFR(3U) |                         \
 844:d:\project\9388\e1\2023_7_27\sr5e1_l9388_freeosek\modules\platform\board\include\sr5e1\evbe7000p.h ****      GPIO_MODE_IHYSTR_CMOS |                     \
 845:d:\project\9388\e1\2023_7_27\sr5e1_l9388_freeosek\modules\platform\board\include\sr5e1\evbe7000p.h ****      GPIO_MODE_TRIGENR_IN_DISABLED |             \
 846:d:\project\9388\e1\2023_7_27\sr5e1_l9388_freeosek\modules\platform\board\include\sr5e1\evbe7000p.h ****      GPIO_MODE_SAFESELR_DISABLED |               \
 847:d:\project\9388\e1\2023_7_27\sr5e1_l9388_freeosek\modules\platform\board\include\sr5e1\evbe7000p.h ****      GPIO_MODE_SAFEVALR_LOW)
 848:d:\project\9388\e1\2023_7_27\sr5e1_l9388_freeosek\modules\platform\board\include\sr5e1\evbe7000p.h **** 
 849:d:\project\9388\e1\2023_7_27\sr5e1_l9388_freeosek\modules\platform\board\include\sr5e1\evbe7000p.h **** #define HRTIM1_CHA1 gpio_iopack(GPIO_PORT_E, GPIO_PIN_4)
 850:d:\project\9388\e1\2023_7_27\sr5e1_l9388_freeosek\modules\platform\board\include\sr5e1\evbe7000p.h **** #define HRTIM1_CHA1_CFG                          \
 851:d:\project\9388\e1\2023_7_27\sr5e1_l9388_freeosek\modules\platform\board\include\sr5e1\evbe7000p.h ****     (GPIO_MODE_MODER_ALTERNATE |                 \
 852:d:\project\9388\e1\2023_7_27\sr5e1_l9388_freeosek\modules\platform\board\include\sr5e1\evbe7000p.h ****      GPIO_MODE_OTYPER_PUSHPULL |                 \
 853:d:\project\9388\e1\2023_7_27\sr5e1_l9388_freeosek\modules\platform\board\include\sr5e1\evbe7000p.h ****      GPIO_MODE_OSPEEDR_LOW |                     \
 854:d:\project\9388\e1\2023_7_27\sr5e1_l9388_freeosek\modules\platform\board\include\sr5e1\evbe7000p.h ****      GPIO_MODE_PUPDR_FLOATING |                  \
 855:d:\project\9388\e1\2023_7_27\sr5e1_l9388_freeosek\modules\platform\board\include\sr5e1\evbe7000p.h ****      GPIO_MODE_AFR(3U) |                         \
 856:d:\project\9388\e1\2023_7_27\sr5e1_l9388_freeosek\modules\platform\board\include\sr5e1\evbe7000p.h ****      GPIO_MODE_IHYSTR_CMOS |                     \
 857:d:\project\9388\e1\2023_7_27\sr5e1_l9388_freeosek\modules\platform\board\include\sr5e1\evbe7000p.h ****      GPIO_MODE_TRIGENR_IN_DISABLED |             \
 858:d:\project\9388\e1\2023_7_27\sr5e1_l9388_freeosek\modules\platform\board\include\sr5e1\evbe7000p.h ****      GPIO_MODE_SAFESELR_DISABLED |               \
 859:d:\project\9388\e1\2023_7_27\sr5e1_l9388_freeosek\modules\platform\board\include\sr5e1\evbe7000p.h ****      GPIO_MODE_SAFEVALR_LOW)
 860:d:\project\9388\e1\2023_7_27\sr5e1_l9388_freeosek\modules\platform\board\include\sr5e1\evbe7000p.h **** 
 861:d:\project\9388\e1\2023_7_27\sr5e1_l9388_freeosek\modules\platform\board\include\sr5e1\evbe7000p.h **** #define SPI1_MOSI gpio_iopack(GPIO_PORT_E, GPIO_PIN_5)
 862:d:\project\9388\e1\2023_7_27\sr5e1_l9388_freeosek\modules\platform\board\include\sr5e1\evbe7000p.h **** #define SPI1_MOSI_CFG                            \
 863:d:\project\9388\e1\2023_7_27\sr5e1_l9388_freeosek\modules\platform\board\include\sr5e1\evbe7000p.h ****     (GPIO_MODE_MODER_ALTERNATE |                 \
 864:d:\project\9388\e1\2023_7_27\sr5e1_l9388_freeosek\modules\platform\board\include\sr5e1\evbe7000p.h ****      GPIO_MODE_OTYPER_PUSHPULL |                 \
 865:d:\project\9388\e1\2023_7_27\sr5e1_l9388_freeosek\modules\platform\board\include\sr5e1\evbe7000p.h ****      GPIO_MODE_OSPEEDR_HIGH |                    \
 866:d:\project\9388\e1\2023_7_27\sr5e1_l9388_freeosek\modules\platform\board\include\sr5e1\evbe7000p.h ****      GPIO_MODE_PUPDR_FLOATING |                  \
 867:d:\project\9388\e1\2023_7_27\sr5e1_l9388_freeosek\modules\platform\board\include\sr5e1\evbe7000p.h ****      GPIO_MODE_AFR(5U) |                         \
 868:d:\project\9388\e1\2023_7_27\sr5e1_l9388_freeosek\modules\platform\board\include\sr5e1\evbe7000p.h ****      GPIO_MODE_IHYSTR_CMOS |                     \
 869:d:\project\9388\e1\2023_7_27\sr5e1_l9388_freeosek\modules\platform\board\include\sr5e1\evbe7000p.h ****      GPIO_MODE_TRIGENR_IN_ENABLED |              \
 870:d:\project\9388\e1\2023_7_27\sr5e1_l9388_freeosek\modules\platform\board\include\sr5e1\evbe7000p.h ****      GPIO_MODE_SAFESELR_DISABLED |               \
 871:d:\project\9388\e1\2023_7_27\sr5e1_l9388_freeosek\modules\platform\board\include\sr5e1\evbe7000p.h ****      GPIO_MODE_SAFEVALR_LOW)
 872:d:\project\9388\e1\2023_7_27\sr5e1_l9388_freeosek\modules\platform\board\include\sr5e1\evbe7000p.h **** 
 873:d:\project\9388\e1\2023_7_27\sr5e1_l9388_freeosek\modules\platform\board\include\sr5e1\evbe7000p.h **** #define SPI1_MISO gpio_iopack(GPIO_PORT_E, GPIO_PIN_6)
 874:d:\project\9388\e1\2023_7_27\sr5e1_l9388_freeosek\modules\platform\board\include\sr5e1\evbe7000p.h **** #define SPI1_MISO_CFG                            \
 875:d:\project\9388\e1\2023_7_27\sr5e1_l9388_freeosek\modules\platform\board\include\sr5e1\evbe7000p.h ****     (GPIO_MODE_MODER_ALTERNATE |                 \
 876:d:\project\9388\e1\2023_7_27\sr5e1_l9388_freeosek\modules\platform\board\include\sr5e1\evbe7000p.h ****      GPIO_MODE_OTYPER_PUSHPULL |                 \
 877:d:\project\9388\e1\2023_7_27\sr5e1_l9388_freeosek\modules\platform\board\include\sr5e1\evbe7000p.h ****      GPIO_MODE_OSPEEDR_HIGH |                    \
 878:d:\project\9388\e1\2023_7_27\sr5e1_l9388_freeosek\modules\platform\board\include\sr5e1\evbe7000p.h ****      GPIO_MODE_PUPDR_FLOATING |                  \
 879:d:\project\9388\e1\2023_7_27\sr5e1_l9388_freeosek\modules\platform\board\include\sr5e1\evbe7000p.h ****      GPIO_MODE_AFR(5U) |                         \
 880:d:\project\9388\e1\2023_7_27\sr5e1_l9388_freeosek\modules\platform\board\include\sr5e1\evbe7000p.h ****      GPIO_MODE_IHYSTR_CMOS |                     \
 881:d:\project\9388\e1\2023_7_27\sr5e1_l9388_freeosek\modules\platform\board\include\sr5e1\evbe7000p.h ****      GPIO_MODE_TRIGENR_IN_ENABLED |              \
 882:d:\project\9388\e1\2023_7_27\sr5e1_l9388_freeosek\modules\platform\board\include\sr5e1\evbe7000p.h ****      GPIO_MODE_SAFESELR_DISABLED |               \
 883:d:\project\9388\e1\2023_7_27\sr5e1_l9388_freeosek\modules\platform\board\include\sr5e1\evbe7000p.h ****      GPIO_MODE_SAFEVALR_LOW)
 884:d:\project\9388\e1\2023_7_27\sr5e1_l9388_freeosek\modules\platform\board\include\sr5e1\evbe7000p.h **** 
 885:d:\project\9388\e1\2023_7_27\sr5e1_l9388_freeosek\modules\platform\board\include\sr5e1\evbe7000p.h **** #define SPI1_SCK gpio_iopack(GPIO_PORT_E, GPIO_PIN_7)
 886:d:\project\9388\e1\2023_7_27\sr5e1_l9388_freeosek\modules\platform\board\include\sr5e1\evbe7000p.h **** #define SPI1_SCK_CFG                             \
 887:d:\project\9388\e1\2023_7_27\sr5e1_l9388_freeosek\modules\platform\board\include\sr5e1\evbe7000p.h ****     (GPIO_MODE_MODER_ALTERNATE |                 \
 888:d:\project\9388\e1\2023_7_27\sr5e1_l9388_freeosek\modules\platform\board\include\sr5e1\evbe7000p.h ****      GPIO_MODE_OTYPER_PUSHPULL |                 \
 889:d:\project\9388\e1\2023_7_27\sr5e1_l9388_freeosek\modules\platform\board\include\sr5e1\evbe7000p.h ****      GPIO_MODE_OSPEEDR_HIGH |                    \
 890:d:\project\9388\e1\2023_7_27\sr5e1_l9388_freeosek\modules\platform\board\include\sr5e1\evbe7000p.h ****      GPIO_MODE_PUPDR_FLOATING |                  \
 891:d:\project\9388\e1\2023_7_27\sr5e1_l9388_freeosek\modules\platform\board\include\sr5e1\evbe7000p.h ****      GPIO_MODE_AFR(5U) |                         \
 892:d:\project\9388\e1\2023_7_27\sr5e1_l9388_freeosek\modules\platform\board\include\sr5e1\evbe7000p.h ****      GPIO_MODE_IHYSTR_CMOS |                     \
 893:d:\project\9388\e1\2023_7_27\sr5e1_l9388_freeosek\modules\platform\board\include\sr5e1\evbe7000p.h ****      GPIO_MODE_TRIGENR_IN_ENABLED |              \
 894:d:\project\9388\e1\2023_7_27\sr5e1_l9388_freeosek\modules\platform\board\include\sr5e1\evbe7000p.h ****      GPIO_MODE_SAFESELR_DISABLED |               \
 895:d:\project\9388\e1\2023_7_27\sr5e1_l9388_freeosek\modules\platform\board\include\sr5e1\evbe7000p.h ****      GPIO_MODE_SAFEVALR_LOW)
 896:d:\project\9388\e1\2023_7_27\sr5e1_l9388_freeosek\modules\platform\board\include\sr5e1\evbe7000p.h **** 
 897:d:\project\9388\e1\2023_7_27\sr5e1_l9388_freeosek\modules\platform\board\include\sr5e1\evbe7000p.h **** #define SPI1_NSS gpio_iopack(GPIO_PORT_E, GPIO_PIN_8)
 898:d:\project\9388\e1\2023_7_27\sr5e1_l9388_freeosek\modules\platform\board\include\sr5e1\evbe7000p.h **** #define SPI1_NSS_CFG                             \
 899:d:\project\9388\e1\2023_7_27\sr5e1_l9388_freeosek\modules\platform\board\include\sr5e1\evbe7000p.h ****     (GPIO_MODE_MODER_ALTERNATE |                 \
 900:d:\project\9388\e1\2023_7_27\sr5e1_l9388_freeosek\modules\platform\board\include\sr5e1\evbe7000p.h ****      GPIO_MODE_OTYPER_PUSHPULL |                 \
 901:d:\project\9388\e1\2023_7_27\sr5e1_l9388_freeosek\modules\platform\board\include\sr5e1\evbe7000p.h ****      GPIO_MODE_OSPEEDR_HIGH |                    \
 902:d:\project\9388\e1\2023_7_27\sr5e1_l9388_freeosek\modules\platform\board\include\sr5e1\evbe7000p.h ****      GPIO_MODE_PUPDR_FLOATING |                  \
 903:d:\project\9388\e1\2023_7_27\sr5e1_l9388_freeosek\modules\platform\board\include\sr5e1\evbe7000p.h ****      GPIO_MODE_AFR(5U) |                         \
 904:d:\project\9388\e1\2023_7_27\sr5e1_l9388_freeosek\modules\platform\board\include\sr5e1\evbe7000p.h ****      GPIO_MODE_IHYSTR_CMOS |                     \
 905:d:\project\9388\e1\2023_7_27\sr5e1_l9388_freeosek\modules\platform\board\include\sr5e1\evbe7000p.h ****      GPIO_MODE_TRIGENR_IN_ENABLED |              \
 906:d:\project\9388\e1\2023_7_27\sr5e1_l9388_freeosek\modules\platform\board\include\sr5e1\evbe7000p.h ****      GPIO_MODE_SAFESELR_DISABLED |               \
 907:d:\project\9388\e1\2023_7_27\sr5e1_l9388_freeosek\modules\platform\board\include\sr5e1\evbe7000p.h ****      GPIO_MODE_SAFEVALR_LOW)
 908:d:\project\9388\e1\2023_7_27\sr5e1_l9388_freeosek\modules\platform\board\include\sr5e1\evbe7000p.h **** 
 909:d:\project\9388\e1\2023_7_27\sr5e1_l9388_freeosek\modules\platform\board\include\sr5e1\evbe7000p.h **** #define HRTIM2_CHA1 gpio_iopack(GPIO_PORT_E, GPIO_PIN_9)
 910:d:\project\9388\e1\2023_7_27\sr5e1_l9388_freeosek\modules\platform\board\include\sr5e1\evbe7000p.h **** #define HRTIM2_CHA1_CFG                          \
 911:d:\project\9388\e1\2023_7_27\sr5e1_l9388_freeosek\modules\platform\board\include\sr5e1\evbe7000p.h ****     (GPIO_MODE_MODER_ALTERNATE |                 \
 912:d:\project\9388\e1\2023_7_27\sr5e1_l9388_freeosek\modules\platform\board\include\sr5e1\evbe7000p.h ****      GPIO_MODE_OTYPER_PUSHPULL |                 \
 913:d:\project\9388\e1\2023_7_27\sr5e1_l9388_freeosek\modules\platform\board\include\sr5e1\evbe7000p.h ****      GPIO_MODE_OSPEEDR_LOW |                     \
 914:d:\project\9388\e1\2023_7_27\sr5e1_l9388_freeosek\modules\platform\board\include\sr5e1\evbe7000p.h ****      GPIO_MODE_PUPDR_FLOATING |                  \
 915:d:\project\9388\e1\2023_7_27\sr5e1_l9388_freeosek\modules\platform\board\include\sr5e1\evbe7000p.h ****      GPIO_MODE_AFR(3U) |                         \
 916:d:\project\9388\e1\2023_7_27\sr5e1_l9388_freeosek\modules\platform\board\include\sr5e1\evbe7000p.h ****      GPIO_MODE_IHYSTR_CMOS |                     \
 917:d:\project\9388\e1\2023_7_27\sr5e1_l9388_freeosek\modules\platform\board\include\sr5e1\evbe7000p.h ****      GPIO_MODE_TRIGENR_IN_DISABLED |             \
 918:d:\project\9388\e1\2023_7_27\sr5e1_l9388_freeosek\modules\platform\board\include\sr5e1\evbe7000p.h ****      GPIO_MODE_SAFESELR_DISABLED |               \
 919:d:\project\9388\e1\2023_7_27\sr5e1_l9388_freeosek\modules\platform\board\include\sr5e1\evbe7000p.h ****      GPIO_MODE_SAFEVALR_LOW)
 920:d:\project\9388\e1\2023_7_27\sr5e1_l9388_freeosek\modules\platform\board\include\sr5e1\evbe7000p.h **** 
 921:d:\project\9388\e1\2023_7_27\sr5e1_l9388_freeosek\modules\platform\board\include\sr5e1\evbe7000p.h **** #define HRTIM2_CHA2 gpio_iopack(GPIO_PORT_E, GPIO_PIN_10)
 922:d:\project\9388\e1\2023_7_27\sr5e1_l9388_freeosek\modules\platform\board\include\sr5e1\evbe7000p.h **** #define HRTIM2_CHA2_CFG                          \
 923:d:\project\9388\e1\2023_7_27\sr5e1_l9388_freeosek\modules\platform\board\include\sr5e1\evbe7000p.h ****     (GPIO_MODE_MODER_ALTERNATE |                 \
 924:d:\project\9388\e1\2023_7_27\sr5e1_l9388_freeosek\modules\platform\board\include\sr5e1\evbe7000p.h ****      GPIO_MODE_OTYPER_PUSHPULL |                 \
 925:d:\project\9388\e1\2023_7_27\sr5e1_l9388_freeosek\modules\platform\board\include\sr5e1\evbe7000p.h ****      GPIO_MODE_OSPEEDR_LOW |                     \
 926:d:\project\9388\e1\2023_7_27\sr5e1_l9388_freeosek\modules\platform\board\include\sr5e1\evbe7000p.h ****      GPIO_MODE_PUPDR_FLOATING |                  \
 927:d:\project\9388\e1\2023_7_27\sr5e1_l9388_freeosek\modules\platform\board\include\sr5e1\evbe7000p.h ****      GPIO_MODE_AFR(3U) |                         \
 928:d:\project\9388\e1\2023_7_27\sr5e1_l9388_freeosek\modules\platform\board\include\sr5e1\evbe7000p.h ****      GPIO_MODE_IHYSTR_CMOS |                     \
 929:d:\project\9388\e1\2023_7_27\sr5e1_l9388_freeosek\modules\platform\board\include\sr5e1\evbe7000p.h ****      GPIO_MODE_TRIGENR_IN_DISABLED |             \
 930:d:\project\9388\e1\2023_7_27\sr5e1_l9388_freeosek\modules\platform\board\include\sr5e1\evbe7000p.h ****      GPIO_MODE_SAFESELR_DISABLED |               \
 931:d:\project\9388\e1\2023_7_27\sr5e1_l9388_freeosek\modules\platform\board\include\sr5e1\evbe7000p.h ****      GPIO_MODE_SAFEVALR_LOW)
 932:d:\project\9388\e1\2023_7_27\sr5e1_l9388_freeosek\modules\platform\board\include\sr5e1\evbe7000p.h **** 
 933:d:\project\9388\e1\2023_7_27\sr5e1_l9388_freeosek\modules\platform\board\include\sr5e1\evbe7000p.h **** #define HRTIM2_CHB1 gpio_iopack(GPIO_PORT_E, GPIO_PIN_11)
 934:d:\project\9388\e1\2023_7_27\sr5e1_l9388_freeosek\modules\platform\board\include\sr5e1\evbe7000p.h **** #define HRTIM2_CHB1_CFG                          \
 935:d:\project\9388\e1\2023_7_27\sr5e1_l9388_freeosek\modules\platform\board\include\sr5e1\evbe7000p.h ****     (GPIO_MODE_MODER_ALTERNATE |                 \
 936:d:\project\9388\e1\2023_7_27\sr5e1_l9388_freeosek\modules\platform\board\include\sr5e1\evbe7000p.h ****      GPIO_MODE_OTYPER_PUSHPULL |                 \
 937:d:\project\9388\e1\2023_7_27\sr5e1_l9388_freeosek\modules\platform\board\include\sr5e1\evbe7000p.h ****      GPIO_MODE_OSPEEDR_LOW |                     \
 938:d:\project\9388\e1\2023_7_27\sr5e1_l9388_freeosek\modules\platform\board\include\sr5e1\evbe7000p.h ****      GPIO_MODE_PUPDR_FLOATING |                  \
 939:d:\project\9388\e1\2023_7_27\sr5e1_l9388_freeosek\modules\platform\board\include\sr5e1\evbe7000p.h ****      GPIO_MODE_AFR(3U) |                         \
 940:d:\project\9388\e1\2023_7_27\sr5e1_l9388_freeosek\modules\platform\board\include\sr5e1\evbe7000p.h ****      GPIO_MODE_IHYSTR_CMOS |                     \
 941:d:\project\9388\e1\2023_7_27\sr5e1_l9388_freeosek\modules\platform\board\include\sr5e1\evbe7000p.h ****      GPIO_MODE_TRIGENR_IN_DISABLED |             \
 942:d:\project\9388\e1\2023_7_27\sr5e1_l9388_freeosek\modules\platform\board\include\sr5e1\evbe7000p.h ****      GPIO_MODE_SAFESELR_DISABLED |               \
 943:d:\project\9388\e1\2023_7_27\sr5e1_l9388_freeosek\modules\platform\board\include\sr5e1\evbe7000p.h ****      GPIO_MODE_SAFEVALR_LOW)
 944:d:\project\9388\e1\2023_7_27\sr5e1_l9388_freeosek\modules\platform\board\include\sr5e1\evbe7000p.h **** 
 945:d:\project\9388\e1\2023_7_27\sr5e1_l9388_freeosek\modules\platform\board\include\sr5e1\evbe7000p.h **** #define HRTIM2_CHB2 gpio_iopack(GPIO_PORT_E, GPIO_PIN_12)
 946:d:\project\9388\e1\2023_7_27\sr5e1_l9388_freeosek\modules\platform\board\include\sr5e1\evbe7000p.h **** #define HRTIM2_CHB2_CFG                          \
 947:d:\project\9388\e1\2023_7_27\sr5e1_l9388_freeosek\modules\platform\board\include\sr5e1\evbe7000p.h ****     (GPIO_MODE_MODER_ALTERNATE |                 \
 948:d:\project\9388\e1\2023_7_27\sr5e1_l9388_freeosek\modules\platform\board\include\sr5e1\evbe7000p.h ****      GPIO_MODE_OTYPER_PUSHPULL |                 \
 949:d:\project\9388\e1\2023_7_27\sr5e1_l9388_freeosek\modules\platform\board\include\sr5e1\evbe7000p.h ****      GPIO_MODE_OSPEEDR_LOW |                     \
 950:d:\project\9388\e1\2023_7_27\sr5e1_l9388_freeosek\modules\platform\board\include\sr5e1\evbe7000p.h ****      GPIO_MODE_PUPDR_FLOATING |                  \
 951:d:\project\9388\e1\2023_7_27\sr5e1_l9388_freeosek\modules\platform\board\include\sr5e1\evbe7000p.h ****      GPIO_MODE_AFR(3U) |                         \
 952:d:\project\9388\e1\2023_7_27\sr5e1_l9388_freeosek\modules\platform\board\include\sr5e1\evbe7000p.h ****      GPIO_MODE_IHYSTR_CMOS |                     \
 953:d:\project\9388\e1\2023_7_27\sr5e1_l9388_freeosek\modules\platform\board\include\sr5e1\evbe7000p.h ****      GPIO_MODE_TRIGENR_IN_DISABLED |             \
 954:d:\project\9388\e1\2023_7_27\sr5e1_l9388_freeosek\modules\platform\board\include\sr5e1\evbe7000p.h ****      GPIO_MODE_SAFESELR_DISABLED |               \
 955:d:\project\9388\e1\2023_7_27\sr5e1_l9388_freeosek\modules\platform\board\include\sr5e1\evbe7000p.h ****      GPIO_MODE_SAFEVALR_LOW)
 956:d:\project\9388\e1\2023_7_27\sr5e1_l9388_freeosek\modules\platform\board\include\sr5e1\evbe7000p.h **** 
 957:d:\project\9388\e1\2023_7_27\sr5e1_l9388_freeosek\modules\platform\board\include\sr5e1\evbe7000p.h **** /* GPIOE[13] is used to drive the USER_LED_0
 958:d:\project\9388\e1\2023_7_27\sr5e1_l9388_freeosek\modules\platform\board\include\sr5e1\evbe7000p.h **** #define HRTIM2_EEV6 gpio_iopack(GPIO_PORT_E, GPIO_PIN_13)
 959:d:\project\9388\e1\2023_7_27\sr5e1_l9388_freeosek\modules\platform\board\include\sr5e1\evbe7000p.h **** #define HRTIM2_EEV6_CFG                          \
 960:d:\project\9388\e1\2023_7_27\sr5e1_l9388_freeosek\modules\platform\board\include\sr5e1\evbe7000p.h ****     (GPIO_MODE_MODER_ALTERNATE |                 \
 961:d:\project\9388\e1\2023_7_27\sr5e1_l9388_freeosek\modules\platform\board\include\sr5e1\evbe7000p.h ****      GPIO_MODE_OTYPER_PUSHPULL |                 \
 962:d:\project\9388\e1\2023_7_27\sr5e1_l9388_freeosek\modules\platform\board\include\sr5e1\evbe7000p.h ****      GPIO_MODE_OSPEEDR_LOW |                     \
 963:d:\project\9388\e1\2023_7_27\sr5e1_l9388_freeosek\modules\platform\board\include\sr5e1\evbe7000p.h ****      GPIO_MODE_PUPDR_FLOATING |                  \
 964:d:\project\9388\e1\2023_7_27\sr5e1_l9388_freeosek\modules\platform\board\include\sr5e1\evbe7000p.h ****      GPIO_MODE_AFR(3U) |                         \
 965:d:\project\9388\e1\2023_7_27\sr5e1_l9388_freeosek\modules\platform\board\include\sr5e1\evbe7000p.h ****      GPIO_MODE_IHYSTR_CMOS |                     \
 966:d:\project\9388\e1\2023_7_27\sr5e1_l9388_freeosek\modules\platform\board\include\sr5e1\evbe7000p.h ****      GPIO_MODE_TRIGENR_IN_ENABLED |              \
 967:d:\project\9388\e1\2023_7_27\sr5e1_l9388_freeosek\modules\platform\board\include\sr5e1\evbe7000p.h ****      GPIO_MODE_SAFESELR_DISABLED |               \
 968:d:\project\9388\e1\2023_7_27\sr5e1_l9388_freeosek\modules\platform\board\include\sr5e1\evbe7000p.h ****      GPIO_MODE_SAFEVALR_LOW)
 969:d:\project\9388\e1\2023_7_27\sr5e1_l9388_freeosek\modules\platform\board\include\sr5e1\evbe7000p.h **** */
 970:d:\project\9388\e1\2023_7_27\sr5e1_l9388_freeosek\modules\platform\board\include\sr5e1\evbe7000p.h **** #define USER_LED_0 gpio_iopack(GPIO_PORT_E, GPIO_PIN_13)
 971:d:\project\9388\e1\2023_7_27\sr5e1_l9388_freeosek\modules\platform\board\include\sr5e1\evbe7000p.h **** #define USER_LED_0_CFG                           \
 972:d:\project\9388\e1\2023_7_27\sr5e1_l9388_freeosek\modules\platform\board\include\sr5e1\evbe7000p.h ****     (GPIO_MODE_MODER_OUTPUT |                    \
 973:d:\project\9388\e1\2023_7_27\sr5e1_l9388_freeosek\modules\platform\board\include\sr5e1\evbe7000p.h ****      GPIO_MODE_OTYPER_PUSHPULL |                 \
 974:d:\project\9388\e1\2023_7_27\sr5e1_l9388_freeosek\modules\platform\board\include\sr5e1\evbe7000p.h ****      GPIO_MODE_OSPEEDR_HIGH |                    \
 975:d:\project\9388\e1\2023_7_27\sr5e1_l9388_freeosek\modules\platform\board\include\sr5e1\evbe7000p.h ****      GPIO_MODE_PUPDR_FLOATING |                  \
 976:d:\project\9388\e1\2023_7_27\sr5e1_l9388_freeosek\modules\platform\board\include\sr5e1\evbe7000p.h ****      GPIO_MODE_AFR(0U) |                         \
 977:d:\project\9388\e1\2023_7_27\sr5e1_l9388_freeosek\modules\platform\board\include\sr5e1\evbe7000p.h ****      GPIO_MODE_IHYSTR_CMOS |                     \
 978:d:\project\9388\e1\2023_7_27\sr5e1_l9388_freeosek\modules\platform\board\include\sr5e1\evbe7000p.h ****      GPIO_MODE_TRIGENR_IN_DISABLED |             \
 979:d:\project\9388\e1\2023_7_27\sr5e1_l9388_freeosek\modules\platform\board\include\sr5e1\evbe7000p.h ****      GPIO_MODE_SAFESELR_DISABLED |               \
 980:d:\project\9388\e1\2023_7_27\sr5e1_l9388_freeosek\modules\platform\board\include\sr5e1\evbe7000p.h ****      GPIO_MODE_SAFEVALR_LOW)
 981:d:\project\9388\e1\2023_7_27\sr5e1_l9388_freeosek\modules\platform\board\include\sr5e1\evbe7000p.h **** 
 982:d:\project\9388\e1\2023_7_27\sr5e1_l9388_freeosek\modules\platform\board\include\sr5e1\evbe7000p.h **** #define HRTIM2_CHC1 gpio_iopack(GPIO_PORT_E, GPIO_PIN_14)
 983:d:\project\9388\e1\2023_7_27\sr5e1_l9388_freeosek\modules\platform\board\include\sr5e1\evbe7000p.h **** #define HRTIM2_CHC1_CFG                          \
 984:d:\project\9388\e1\2023_7_27\sr5e1_l9388_freeosek\modules\platform\board\include\sr5e1\evbe7000p.h ****     (GPIO_MODE_MODER_ALTERNATE |                 \
 985:d:\project\9388\e1\2023_7_27\sr5e1_l9388_freeosek\modules\platform\board\include\sr5e1\evbe7000p.h ****      GPIO_MODE_OTYPER_PUSHPULL |                 \
 986:d:\project\9388\e1\2023_7_27\sr5e1_l9388_freeosek\modules\platform\board\include\sr5e1\evbe7000p.h ****      GPIO_MODE_OSPEEDR_LOW |                     \
 987:d:\project\9388\e1\2023_7_27\sr5e1_l9388_freeosek\modules\platform\board\include\sr5e1\evbe7000p.h ****      GPIO_MODE_PUPDR_FLOATING |                  \
 988:d:\project\9388\e1\2023_7_27\sr5e1_l9388_freeosek\modules\platform\board\include\sr5e1\evbe7000p.h ****      GPIO_MODE_AFR(3U) |                         \
 989:d:\project\9388\e1\2023_7_27\sr5e1_l9388_freeosek\modules\platform\board\include\sr5e1\evbe7000p.h ****      GPIO_MODE_IHYSTR_CMOS |                     \
 990:d:\project\9388\e1\2023_7_27\sr5e1_l9388_freeosek\modules\platform\board\include\sr5e1\evbe7000p.h ****      GPIO_MODE_TRIGENR_IN_DISABLED |             \
 991:d:\project\9388\e1\2023_7_27\sr5e1_l9388_freeosek\modules\platform\board\include\sr5e1\evbe7000p.h ****      GPIO_MODE_SAFESELR_DISABLED |               \
 992:d:\project\9388\e1\2023_7_27\sr5e1_l9388_freeosek\modules\platform\board\include\sr5e1\evbe7000p.h ****      GPIO_MODE_SAFEVALR_LOW)
 993:d:\project\9388\e1\2023_7_27\sr5e1_l9388_freeosek\modules\platform\board\include\sr5e1\evbe7000p.h **** 
 994:d:\project\9388\e1\2023_7_27\sr5e1_l9388_freeosek\modules\platform\board\include\sr5e1\evbe7000p.h **** #define HRTIM2_CHC2 gpio_iopack(GPIO_PORT_E, GPIO_PIN_15)
 995:d:\project\9388\e1\2023_7_27\sr5e1_l9388_freeosek\modules\platform\board\include\sr5e1\evbe7000p.h **** #define HRTIM2_CHC2_CFG                          \
 996:d:\project\9388\e1\2023_7_27\sr5e1_l9388_freeosek\modules\platform\board\include\sr5e1\evbe7000p.h ****     (GPIO_MODE_MODER_ALTERNATE |                 \
 997:d:\project\9388\e1\2023_7_27\sr5e1_l9388_freeosek\modules\platform\board\include\sr5e1\evbe7000p.h ****      GPIO_MODE_OTYPER_PUSHPULL |                 \
 998:d:\project\9388\e1\2023_7_27\sr5e1_l9388_freeosek\modules\platform\board\include\sr5e1\evbe7000p.h ****      GPIO_MODE_OSPEEDR_LOW |                     \
 999:d:\project\9388\e1\2023_7_27\sr5e1_l9388_freeosek\modules\platform\board\include\sr5e1\evbe7000p.h ****      GPIO_MODE_PUPDR_FLOATING |                  \
1000:d:\project\9388\e1\2023_7_27\sr5e1_l9388_freeosek\modules\platform\board\include\sr5e1\evbe7000p.h ****      GPIO_MODE_AFR(3U) |                         \
1001:d:\project\9388\e1\2023_7_27\sr5e1_l9388_freeosek\modules\platform\board\include\sr5e1\evbe7000p.h ****      GPIO_MODE_IHYSTR_CMOS |                     \
1002:d:\project\9388\e1\2023_7_27\sr5e1_l9388_freeosek\modules\platform\board\include\sr5e1\evbe7000p.h ****      GPIO_MODE_TRIGENR_IN_DISABLED |             \
1003:d:\project\9388\e1\2023_7_27\sr5e1_l9388_freeosek\modules\platform\board\include\sr5e1\evbe7000p.h ****      GPIO_MODE_SAFESELR_DISABLED |               \
1004:d:\project\9388\e1\2023_7_27\sr5e1_l9388_freeosek\modules\platform\board\include\sr5e1\evbe7000p.h ****      GPIO_MODE_SAFEVALR_LOW)
1005:d:\project\9388\e1\2023_7_27\sr5e1_l9388_freeosek\modules\platform\board\include\sr5e1\evbe7000p.h **** 
1006:d:\project\9388\e1\2023_7_27\sr5e1_l9388_freeosek\modules\platform\board\include\sr5e1\evbe7000p.h **** /* PortF pin settings. */
1007:d:\project\9388\e1\2023_7_27\sr5e1_l9388_freeosek\modules\platform\board\include\sr5e1\evbe7000p.h **** #define HRTIM2_CHD1 gpio_iopack(GPIO_PORT_F, GPIO_PIN_0)
1008:d:\project\9388\e1\2023_7_27\sr5e1_l9388_freeosek\modules\platform\board\include\sr5e1\evbe7000p.h **** #define HRTIM2_CHD1_CFG                          \
1009:d:\project\9388\e1\2023_7_27\sr5e1_l9388_freeosek\modules\platform\board\include\sr5e1\evbe7000p.h ****     (GPIO_MODE_MODER_ALTERNATE |                 \
1010:d:\project\9388\e1\2023_7_27\sr5e1_l9388_freeosek\modules\platform\board\include\sr5e1\evbe7000p.h ****      GPIO_MODE_OTYPER_PUSHPULL |                 \
1011:d:\project\9388\e1\2023_7_27\sr5e1_l9388_freeosek\modules\platform\board\include\sr5e1\evbe7000p.h ****      GPIO_MODE_OSPEEDR_LOW |                     \
1012:d:\project\9388\e1\2023_7_27\sr5e1_l9388_freeosek\modules\platform\board\include\sr5e1\evbe7000p.h ****      GPIO_MODE_PUPDR_FLOATING |                  \
1013:d:\project\9388\e1\2023_7_27\sr5e1_l9388_freeosek\modules\platform\board\include\sr5e1\evbe7000p.h ****      GPIO_MODE_AFR(3U) |                         \
1014:d:\project\9388\e1\2023_7_27\sr5e1_l9388_freeosek\modules\platform\board\include\sr5e1\evbe7000p.h ****      GPIO_MODE_IHYSTR_CMOS |                     \
1015:d:\project\9388\e1\2023_7_27\sr5e1_l9388_freeosek\modules\platform\board\include\sr5e1\evbe7000p.h ****      GPIO_MODE_TRIGENR_IN_DISABLED |             \
1016:d:\project\9388\e1\2023_7_27\sr5e1_l9388_freeosek\modules\platform\board\include\sr5e1\evbe7000p.h ****      GPIO_MODE_SAFESELR_DISABLED |               \
1017:d:\project\9388\e1\2023_7_27\sr5e1_l9388_freeosek\modules\platform\board\include\sr5e1\evbe7000p.h ****      GPIO_MODE_SAFEVALR_LOW)
1018:d:\project\9388\e1\2023_7_27\sr5e1_l9388_freeosek\modules\platform\board\include\sr5e1\evbe7000p.h **** 
1019:d:\project\9388\e1\2023_7_27\sr5e1_l9388_freeosek\modules\platform\board\include\sr5e1\evbe7000p.h **** #define HRTIM2_CHD2 gpio_iopack(GPIO_PORT_F, GPIO_PIN_1)
1020:d:\project\9388\e1\2023_7_27\sr5e1_l9388_freeosek\modules\platform\board\include\sr5e1\evbe7000p.h **** #define HRTIM2_CHD2_CFG                          \
1021:d:\project\9388\e1\2023_7_27\sr5e1_l9388_freeosek\modules\platform\board\include\sr5e1\evbe7000p.h ****     (GPIO_MODE_MODER_ALTERNATE |                 \
1022:d:\project\9388\e1\2023_7_27\sr5e1_l9388_freeosek\modules\platform\board\include\sr5e1\evbe7000p.h ****      GPIO_MODE_OTYPER_PUSHPULL |                 \
1023:d:\project\9388\e1\2023_7_27\sr5e1_l9388_freeosek\modules\platform\board\include\sr5e1\evbe7000p.h ****      GPIO_MODE_OSPEEDR_LOW |                     \
1024:d:\project\9388\e1\2023_7_27\sr5e1_l9388_freeosek\modules\platform\board\include\sr5e1\evbe7000p.h ****      GPIO_MODE_PUPDR_FLOATING |                  \
1025:d:\project\9388\e1\2023_7_27\sr5e1_l9388_freeosek\modules\platform\board\include\sr5e1\evbe7000p.h ****      GPIO_MODE_AFR(3U) |                         \
1026:d:\project\9388\e1\2023_7_27\sr5e1_l9388_freeosek\modules\platform\board\include\sr5e1\evbe7000p.h ****      GPIO_MODE_IHYSTR_CMOS |                     \
1027:d:\project\9388\e1\2023_7_27\sr5e1_l9388_freeosek\modules\platform\board\include\sr5e1\evbe7000p.h ****      GPIO_MODE_TRIGENR_IN_DISABLED |             \
1028:d:\project\9388\e1\2023_7_27\sr5e1_l9388_freeosek\modules\platform\board\include\sr5e1\evbe7000p.h ****      GPIO_MODE_SAFESELR_DISABLED |               \
1029:d:\project\9388\e1\2023_7_27\sr5e1_l9388_freeosek\modules\platform\board\include\sr5e1\evbe7000p.h ****      GPIO_MODE_SAFEVALR_LOW)
1030:d:\project\9388\e1\2023_7_27\sr5e1_l9388_freeosek\modules\platform\board\include\sr5e1\evbe7000p.h **** 
1031:d:\project\9388\e1\2023_7_27\sr5e1_l9388_freeosek\modules\platform\board\include\sr5e1\evbe7000p.h **** #define HRTIM2_CHE1 gpio_iopack(GPIO_PORT_F, GPIO_PIN_2)
1032:d:\project\9388\e1\2023_7_27\sr5e1_l9388_freeosek\modules\platform\board\include\sr5e1\evbe7000p.h **** #define HRTIM2_CHE1_CFG                          \
1033:d:\project\9388\e1\2023_7_27\sr5e1_l9388_freeosek\modules\platform\board\include\sr5e1\evbe7000p.h ****     (GPIO_MODE_MODER_ALTERNATE |                 \
1034:d:\project\9388\e1\2023_7_27\sr5e1_l9388_freeosek\modules\platform\board\include\sr5e1\evbe7000p.h ****      GPIO_MODE_OTYPER_PUSHPULL |                 \
1035:d:\project\9388\e1\2023_7_27\sr5e1_l9388_freeosek\modules\platform\board\include\sr5e1\evbe7000p.h ****      GPIO_MODE_OSPEEDR_LOW |                     \
1036:d:\project\9388\e1\2023_7_27\sr5e1_l9388_freeosek\modules\platform\board\include\sr5e1\evbe7000p.h ****      GPIO_MODE_PUPDR_FLOATING |                  \
1037:d:\project\9388\e1\2023_7_27\sr5e1_l9388_freeosek\modules\platform\board\include\sr5e1\evbe7000p.h ****      GPIO_MODE_AFR(3U) |                         \
1038:d:\project\9388\e1\2023_7_27\sr5e1_l9388_freeosek\modules\platform\board\include\sr5e1\evbe7000p.h ****      GPIO_MODE_IHYSTR_CMOS |                     \
1039:d:\project\9388\e1\2023_7_27\sr5e1_l9388_freeosek\modules\platform\board\include\sr5e1\evbe7000p.h ****      GPIO_MODE_TRIGENR_IN_DISABLED |             \
1040:d:\project\9388\e1\2023_7_27\sr5e1_l9388_freeosek\modules\platform\board\include\sr5e1\evbe7000p.h ****      GPIO_MODE_SAFESELR_DISABLED |               \
1041:d:\project\9388\e1\2023_7_27\sr5e1_l9388_freeosek\modules\platform\board\include\sr5e1\evbe7000p.h ****      GPIO_MODE_SAFEVALR_LOW)
1042:d:\project\9388\e1\2023_7_27\sr5e1_l9388_freeosek\modules\platform\board\include\sr5e1\evbe7000p.h **** 
1043:d:\project\9388\e1\2023_7_27\sr5e1_l9388_freeosek\modules\platform\board\include\sr5e1\evbe7000p.h **** #define HRTIM2_CHE2 gpio_iopack(GPIO_PORT_F, GPIO_PIN_3)
1044:d:\project\9388\e1\2023_7_27\sr5e1_l9388_freeosek\modules\platform\board\include\sr5e1\evbe7000p.h **** #define HRTIM2_CHE2_CFG                          \
1045:d:\project\9388\e1\2023_7_27\sr5e1_l9388_freeosek\modules\platform\board\include\sr5e1\evbe7000p.h ****     (GPIO_MODE_MODER_ALTERNATE |                 \
1046:d:\project\9388\e1\2023_7_27\sr5e1_l9388_freeosek\modules\platform\board\include\sr5e1\evbe7000p.h ****      GPIO_MODE_OTYPER_PUSHPULL |                 \
1047:d:\project\9388\e1\2023_7_27\sr5e1_l9388_freeosek\modules\platform\board\include\sr5e1\evbe7000p.h ****      GPIO_MODE_OSPEEDR_LOW |                     \
1048:d:\project\9388\e1\2023_7_27\sr5e1_l9388_freeosek\modules\platform\board\include\sr5e1\evbe7000p.h ****      GPIO_MODE_PUPDR_FLOATING |                  \
1049:d:\project\9388\e1\2023_7_27\sr5e1_l9388_freeosek\modules\platform\board\include\sr5e1\evbe7000p.h ****      GPIO_MODE_AFR(3U) |                         \
1050:d:\project\9388\e1\2023_7_27\sr5e1_l9388_freeosek\modules\platform\board\include\sr5e1\evbe7000p.h ****      GPIO_MODE_IHYSTR_CMOS |                     \
1051:d:\project\9388\e1\2023_7_27\sr5e1_l9388_freeosek\modules\platform\board\include\sr5e1\evbe7000p.h ****      GPIO_MODE_TRIGENR_IN_DISABLED |             \
1052:d:\project\9388\e1\2023_7_27\sr5e1_l9388_freeosek\modules\platform\board\include\sr5e1\evbe7000p.h ****      GPIO_MODE_SAFESELR_DISABLED |               \
1053:d:\project\9388\e1\2023_7_27\sr5e1_l9388_freeosek\modules\platform\board\include\sr5e1\evbe7000p.h ****      GPIO_MODE_SAFEVALR_LOW)
1054:d:\project\9388\e1\2023_7_27\sr5e1_l9388_freeosek\modules\platform\board\include\sr5e1\evbe7000p.h **** 
1055:d:\project\9388\e1\2023_7_27\sr5e1_l9388_freeosek\modules\platform\board\include\sr5e1\evbe7000p.h **** #define HRTIM2_CHF1 gpio_iopack(GPIO_PORT_F, GPIO_PIN_4)
1056:d:\project\9388\e1\2023_7_27\sr5e1_l9388_freeosek\modules\platform\board\include\sr5e1\evbe7000p.h **** #define HRTIM2_CHF1_CFG                          \
1057:d:\project\9388\e1\2023_7_27\sr5e1_l9388_freeosek\modules\platform\board\include\sr5e1\evbe7000p.h ****     (GPIO_MODE_MODER_ALTERNATE |                 \
1058:d:\project\9388\e1\2023_7_27\sr5e1_l9388_freeosek\modules\platform\board\include\sr5e1\evbe7000p.h ****      GPIO_MODE_OTYPER_PUSHPULL |                 \
1059:d:\project\9388\e1\2023_7_27\sr5e1_l9388_freeosek\modules\platform\board\include\sr5e1\evbe7000p.h ****      GPIO_MODE_OSPEEDR_LOW |                     \
1060:d:\project\9388\e1\2023_7_27\sr5e1_l9388_freeosek\modules\platform\board\include\sr5e1\evbe7000p.h ****      GPIO_MODE_PUPDR_FLOATING |                  \
1061:d:\project\9388\e1\2023_7_27\sr5e1_l9388_freeosek\modules\platform\board\include\sr5e1\evbe7000p.h ****      GPIO_MODE_AFR(3U) |                         \
1062:d:\project\9388\e1\2023_7_27\sr5e1_l9388_freeosek\modules\platform\board\include\sr5e1\evbe7000p.h ****      GPIO_MODE_IHYSTR_CMOS |                     \
1063:d:\project\9388\e1\2023_7_27\sr5e1_l9388_freeosek\modules\platform\board\include\sr5e1\evbe7000p.h ****      GPIO_MODE_TRIGENR_IN_DISABLED |             \
1064:d:\project\9388\e1\2023_7_27\sr5e1_l9388_freeosek\modules\platform\board\include\sr5e1\evbe7000p.h ****      GPIO_MODE_SAFESELR_DISABLED |               \
1065:d:\project\9388\e1\2023_7_27\sr5e1_l9388_freeosek\modules\platform\board\include\sr5e1\evbe7000p.h ****      GPIO_MODE_SAFEVALR_LOW)
1066:d:\project\9388\e1\2023_7_27\sr5e1_l9388_freeosek\modules\platform\board\include\sr5e1\evbe7000p.h **** 
1067:d:\project\9388\e1\2023_7_27\sr5e1_l9388_freeosek\modules\platform\board\include\sr5e1\evbe7000p.h **** #define HRTIM2_CHF2 gpio_iopack(GPIO_PORT_F, GPIO_PIN_5)
1068:d:\project\9388\e1\2023_7_27\sr5e1_l9388_freeosek\modules\platform\board\include\sr5e1\evbe7000p.h **** #define HRTIM2_CHF2_CFG                          \
1069:d:\project\9388\e1\2023_7_27\sr5e1_l9388_freeosek\modules\platform\board\include\sr5e1\evbe7000p.h ****     (GPIO_MODE_MODER_ALTERNATE |                 \
1070:d:\project\9388\e1\2023_7_27\sr5e1_l9388_freeosek\modules\platform\board\include\sr5e1\evbe7000p.h ****      GPIO_MODE_OTYPER_PUSHPULL |                 \
1071:d:\project\9388\e1\2023_7_27\sr5e1_l9388_freeosek\modules\platform\board\include\sr5e1\evbe7000p.h ****      GPIO_MODE_OSPEEDR_LOW |                     \
1072:d:\project\9388\e1\2023_7_27\sr5e1_l9388_freeosek\modules\platform\board\include\sr5e1\evbe7000p.h ****      GPIO_MODE_PUPDR_FLOATING |                  \
1073:d:\project\9388\e1\2023_7_27\sr5e1_l9388_freeosek\modules\platform\board\include\sr5e1\evbe7000p.h ****      GPIO_MODE_AFR(3U) |                         \
1074:d:\project\9388\e1\2023_7_27\sr5e1_l9388_freeosek\modules\platform\board\include\sr5e1\evbe7000p.h ****      GPIO_MODE_IHYSTR_CMOS |                     \
1075:d:\project\9388\e1\2023_7_27\sr5e1_l9388_freeosek\modules\platform\board\include\sr5e1\evbe7000p.h ****      GPIO_MODE_TRIGENR_IN_DISABLED |             \
1076:d:\project\9388\e1\2023_7_27\sr5e1_l9388_freeosek\modules\platform\board\include\sr5e1\evbe7000p.h ****      GPIO_MODE_SAFESELR_DISABLED |               \
1077:d:\project\9388\e1\2023_7_27\sr5e1_l9388_freeosek\modules\platform\board\include\sr5e1\evbe7000p.h ****      GPIO_MODE_SAFEVALR_LOW)
1078:d:\project\9388\e1\2023_7_27\sr5e1_l9388_freeosek\modules\platform\board\include\sr5e1\evbe7000p.h **** 
1079:d:\project\9388\e1\2023_7_27\sr5e1_l9388_freeosek\modules\platform\board\include\sr5e1\evbe7000p.h **** #define HRTIM2_EEV2 gpio_iopack(GPIO_PORT_F, GPIO_PIN_6)
1080:d:\project\9388\e1\2023_7_27\sr5e1_l9388_freeosek\modules\platform\board\include\sr5e1\evbe7000p.h **** #define HRTIM2_EEV2_CFG                          \
1081:d:\project\9388\e1\2023_7_27\sr5e1_l9388_freeosek\modules\platform\board\include\sr5e1\evbe7000p.h ****     (GPIO_MODE_MODER_ALTERNATE |                 \
1082:d:\project\9388\e1\2023_7_27\sr5e1_l9388_freeosek\modules\platform\board\include\sr5e1\evbe7000p.h ****      GPIO_MODE_OTYPER_PUSHPULL |                 \
1083:d:\project\9388\e1\2023_7_27\sr5e1_l9388_freeosek\modules\platform\board\include\sr5e1\evbe7000p.h ****      GPIO_MODE_OSPEEDR_LOW |                     \
1084:d:\project\9388\e1\2023_7_27\sr5e1_l9388_freeosek\modules\platform\board\include\sr5e1\evbe7000p.h ****      GPIO_MODE_PUPDR_FLOATING |                  \
1085:d:\project\9388\e1\2023_7_27\sr5e1_l9388_freeosek\modules\platform\board\include\sr5e1\evbe7000p.h ****      GPIO_MODE_AFR(3U) |                         \
1086:d:\project\9388\e1\2023_7_27\sr5e1_l9388_freeosek\modules\platform\board\include\sr5e1\evbe7000p.h ****      GPIO_MODE_IHYSTR_CMOS |                     \
1087:d:\project\9388\e1\2023_7_27\sr5e1_l9388_freeosek\modules\platform\board\include\sr5e1\evbe7000p.h ****      GPIO_MODE_TRIGENR_IN_ENABLED |              \
1088:d:\project\9388\e1\2023_7_27\sr5e1_l9388_freeosek\modules\platform\board\include\sr5e1\evbe7000p.h ****      GPIO_MODE_SAFESELR_DISABLED |               \
1089:d:\project\9388\e1\2023_7_27\sr5e1_l9388_freeosek\modules\platform\board\include\sr5e1\evbe7000p.h ****      GPIO_MODE_SAFEVALR_LOW)
1090:d:\project\9388\e1\2023_7_27\sr5e1_l9388_freeosek\modules\platform\board\include\sr5e1\evbe7000p.h **** 
1091:d:\project\9388\e1\2023_7_27\sr5e1_l9388_freeosek\modules\platform\board\include\sr5e1\evbe7000p.h **** /* PortG pin settings. */
1092:d:\project\9388\e1\2023_7_27\sr5e1_l9388_freeosek\modules\platform\board\include\sr5e1\evbe7000p.h **** #define SPI4_SCK gpio_iopack(GPIO_PORT_G, GPIO_PIN_5)
1093:d:\project\9388\e1\2023_7_27\sr5e1_l9388_freeosek\modules\platform\board\include\sr5e1\evbe7000p.h **** #define SPI4_SCK_CFG                             \
1094:d:\project\9388\e1\2023_7_27\sr5e1_l9388_freeosek\modules\platform\board\include\sr5e1\evbe7000p.h ****     (GPIO_MODE_MODER_ALTERNATE |                 \
1095:d:\project\9388\e1\2023_7_27\sr5e1_l9388_freeosek\modules\platform\board\include\sr5e1\evbe7000p.h ****      GPIO_MODE_OTYPER_PUSHPULL |                 \
1096:d:\project\9388\e1\2023_7_27\sr5e1_l9388_freeosek\modules\platform\board\include\sr5e1\evbe7000p.h ****      GPIO_MODE_OSPEEDR_HIGH |                    \
1097:d:\project\9388\e1\2023_7_27\sr5e1_l9388_freeosek\modules\platform\board\include\sr5e1\evbe7000p.h ****      GPIO_MODE_PUPDR_FLOATING |                  \
1098:d:\project\9388\e1\2023_7_27\sr5e1_l9388_freeosek\modules\platform\board\include\sr5e1\evbe7000p.h ****      GPIO_MODE_AFR(5U) |                         \
1099:d:\project\9388\e1\2023_7_27\sr5e1_l9388_freeosek\modules\platform\board\include\sr5e1\evbe7000p.h ****      GPIO_MODE_IHYSTR_CMOS |                     \
1100:d:\project\9388\e1\2023_7_27\sr5e1_l9388_freeosek\modules\platform\board\include\sr5e1\evbe7000p.h ****      GPIO_MODE_TRIGENR_IN_ENABLED |              \
1101:d:\project\9388\e1\2023_7_27\sr5e1_l9388_freeosek\modules\platform\board\include\sr5e1\evbe7000p.h ****      GPIO_MODE_SAFESELR_DISABLED |               \
1102:d:\project\9388\e1\2023_7_27\sr5e1_l9388_freeosek\modules\platform\board\include\sr5e1\evbe7000p.h ****      GPIO_MODE_SAFEVALR_LOW)
1103:d:\project\9388\e1\2023_7_27\sr5e1_l9388_freeosek\modules\platform\board\include\sr5e1\evbe7000p.h **** 
1104:d:\project\9388\e1\2023_7_27\sr5e1_l9388_freeosek\modules\platform\board\include\sr5e1\evbe7000p.h **** #define SPI4_MISO gpio_iopack(GPIO_PORT_G, GPIO_PIN_6)
1105:d:\project\9388\e1\2023_7_27\sr5e1_l9388_freeosek\modules\platform\board\include\sr5e1\evbe7000p.h **** #define SPI4_MISO_CFG                            \
1106:d:\project\9388\e1\2023_7_27\sr5e1_l9388_freeosek\modules\platform\board\include\sr5e1\evbe7000p.h ****     (GPIO_MODE_MODER_ALTERNATE |                 \
1107:d:\project\9388\e1\2023_7_27\sr5e1_l9388_freeosek\modules\platform\board\include\sr5e1\evbe7000p.h ****      GPIO_MODE_OTYPER_PUSHPULL |                 \
1108:d:\project\9388\e1\2023_7_27\sr5e1_l9388_freeosek\modules\platform\board\include\sr5e1\evbe7000p.h ****      GPIO_MODE_OSPEEDR_HIGH |                    \
1109:d:\project\9388\e1\2023_7_27\sr5e1_l9388_freeosek\modules\platform\board\include\sr5e1\evbe7000p.h ****      GPIO_MODE_PUPDR_FLOATING |                  \
1110:d:\project\9388\e1\2023_7_27\sr5e1_l9388_freeosek\modules\platform\board\include\sr5e1\evbe7000p.h ****      GPIO_MODE_AFR(5U) |                         \
1111:d:\project\9388\e1\2023_7_27\sr5e1_l9388_freeosek\modules\platform\board\include\sr5e1\evbe7000p.h ****      GPIO_MODE_IHYSTR_CMOS |                     \
1112:d:\project\9388\e1\2023_7_27\sr5e1_l9388_freeosek\modules\platform\board\include\sr5e1\evbe7000p.h ****      GPIO_MODE_TRIGENR_IN_ENABLED |              \
1113:d:\project\9388\e1\2023_7_27\sr5e1_l9388_freeosek\modules\platform\board\include\sr5e1\evbe7000p.h ****      GPIO_MODE_SAFESELR_DISABLED |               \
1114:d:\project\9388\e1\2023_7_27\sr5e1_l9388_freeosek\modules\platform\board\include\sr5e1\evbe7000p.h ****      GPIO_MODE_SAFEVALR_LOW)
1115:d:\project\9388\e1\2023_7_27\sr5e1_l9388_freeosek\modules\platform\board\include\sr5e1\evbe7000p.h **** 
1116:d:\project\9388\e1\2023_7_27\sr5e1_l9388_freeosek\modules\platform\board\include\sr5e1\evbe7000p.h **** #define SPI4_MOSI gpio_iopack(GPIO_PORT_G, GPIO_PIN_7)
1117:d:\project\9388\e1\2023_7_27\sr5e1_l9388_freeosek\modules\platform\board\include\sr5e1\evbe7000p.h **** #define SPI4_MOSI_CFG                            \
1118:d:\project\9388\e1\2023_7_27\sr5e1_l9388_freeosek\modules\platform\board\include\sr5e1\evbe7000p.h ****     (GPIO_MODE_MODER_ALTERNATE |                 \
1119:d:\project\9388\e1\2023_7_27\sr5e1_l9388_freeosek\modules\platform\board\include\sr5e1\evbe7000p.h ****      GPIO_MODE_OTYPER_PUSHPULL |                 \
1120:d:\project\9388\e1\2023_7_27\sr5e1_l9388_freeosek\modules\platform\board\include\sr5e1\evbe7000p.h ****      GPIO_MODE_OSPEEDR_HIGH |                    \
1121:d:\project\9388\e1\2023_7_27\sr5e1_l9388_freeosek\modules\platform\board\include\sr5e1\evbe7000p.h ****      GPIO_MODE_PUPDR_FLOATING |                  \
1122:d:\project\9388\e1\2023_7_27\sr5e1_l9388_freeosek\modules\platform\board\include\sr5e1\evbe7000p.h ****      GPIO_MODE_AFR(5U) |                         \
1123:d:\project\9388\e1\2023_7_27\sr5e1_l9388_freeosek\modules\platform\board\include\sr5e1\evbe7000p.h ****      GPIO_MODE_IHYSTR_CMOS |                     \
1124:d:\project\9388\e1\2023_7_27\sr5e1_l9388_freeosek\modules\platform\board\include\sr5e1\evbe7000p.h ****      GPIO_MODE_TRIGENR_IN_ENABLED |              \
1125:d:\project\9388\e1\2023_7_27\sr5e1_l9388_freeosek\modules\platform\board\include\sr5e1\evbe7000p.h ****      GPIO_MODE_SAFESELR_DISABLED |               \
1126:d:\project\9388\e1\2023_7_27\sr5e1_l9388_freeosek\modules\platform\board\include\sr5e1\evbe7000p.h ****      GPIO_MODE_SAFEVALR_LOW)
1127:d:\project\9388\e1\2023_7_27\sr5e1_l9388_freeosek\modules\platform\board\include\sr5e1\evbe7000p.h **** 
1128:d:\project\9388\e1\2023_7_27\sr5e1_l9388_freeosek\modules\platform\board\include\sr5e1\evbe7000p.h **** #define SPI4_NSS gpio_iopack(GPIO_PORT_G, GPIO_PIN_8)
1129:d:\project\9388\e1\2023_7_27\sr5e1_l9388_freeosek\modules\platform\board\include\sr5e1\evbe7000p.h **** #define SPI4_NSS_CFG                             \
1130:d:\project\9388\e1\2023_7_27\sr5e1_l9388_freeosek\modules\platform\board\include\sr5e1\evbe7000p.h ****     (GPIO_MODE_MODER_ALTERNATE |                 \
1131:d:\project\9388\e1\2023_7_27\sr5e1_l9388_freeosek\modules\platform\board\include\sr5e1\evbe7000p.h ****      GPIO_MODE_OTYPER_PUSHPULL |                 \
1132:d:\project\9388\e1\2023_7_27\sr5e1_l9388_freeosek\modules\platform\board\include\sr5e1\evbe7000p.h ****      GPIO_MODE_OSPEEDR_HIGH |                    \
1133:d:\project\9388\e1\2023_7_27\sr5e1_l9388_freeosek\modules\platform\board\include\sr5e1\evbe7000p.h ****      GPIO_MODE_PUPDR_FLOATING |                  \
1134:d:\project\9388\e1\2023_7_27\sr5e1_l9388_freeosek\modules\platform\board\include\sr5e1\evbe7000p.h ****      GPIO_MODE_AFR(5U) |                         \
1135:d:\project\9388\e1\2023_7_27\sr5e1_l9388_freeosek\modules\platform\board\include\sr5e1\evbe7000p.h ****      GPIO_MODE_IHYSTR_CMOS |                     \
1136:d:\project\9388\e1\2023_7_27\sr5e1_l9388_freeosek\modules\platform\board\include\sr5e1\evbe7000p.h ****      GPIO_MODE_TRIGENR_IN_ENABLED |              \
1137:d:\project\9388\e1\2023_7_27\sr5e1_l9388_freeosek\modules\platform\board\include\sr5e1\evbe7000p.h ****      GPIO_MODE_SAFESELR_DISABLED |               \
1138:d:\project\9388\e1\2023_7_27\sr5e1_l9388_freeosek\modules\platform\board\include\sr5e1\evbe7000p.h ****      GPIO_MODE_SAFEVALR_LOW)
1139:d:\project\9388\e1\2023_7_27\sr5e1_l9388_freeosek\modules\platform\board\include\sr5e1\evbe7000p.h **** 
1140:d:\project\9388\e1\2023_7_27\sr5e1_l9388_freeosek\modules\platform\board\include\sr5e1\evbe7000p.h **** #define SPI2_MISO gpio_iopack(GPIO_PORT_G, GPIO_PIN_9)
1141:d:\project\9388\e1\2023_7_27\sr5e1_l9388_freeosek\modules\platform\board\include\sr5e1\evbe7000p.h **** #define SPI2_MISO_CFG                            \
1142:d:\project\9388\e1\2023_7_27\sr5e1_l9388_freeosek\modules\platform\board\include\sr5e1\evbe7000p.h ****     (GPIO_MODE_MODER_ALTERNATE |                 \
1143:d:\project\9388\e1\2023_7_27\sr5e1_l9388_freeosek\modules\platform\board\include\sr5e1\evbe7000p.h ****      GPIO_MODE_OTYPER_PUSHPULL |                 \
1144:d:\project\9388\e1\2023_7_27\sr5e1_l9388_freeosek\modules\platform\board\include\sr5e1\evbe7000p.h ****      GPIO_MODE_OSPEEDR_HIGH |                    \
1145:d:\project\9388\e1\2023_7_27\sr5e1_l9388_freeosek\modules\platform\board\include\sr5e1\evbe7000p.h ****      GPIO_MODE_PUPDR_FLOATING |                  \
1146:d:\project\9388\e1\2023_7_27\sr5e1_l9388_freeosek\modules\platform\board\include\sr5e1\evbe7000p.h ****      GPIO_MODE_AFR(5U) |                         \
1147:d:\project\9388\e1\2023_7_27\sr5e1_l9388_freeosek\modules\platform\board\include\sr5e1\evbe7000p.h ****      GPIO_MODE_IHYSTR_CMOS |                     \
1148:d:\project\9388\e1\2023_7_27\sr5e1_l9388_freeosek\modules\platform\board\include\sr5e1\evbe7000p.h ****      GPIO_MODE_TRIGENR_IN_ENABLED |              \
1149:d:\project\9388\e1\2023_7_27\sr5e1_l9388_freeosek\modules\platform\board\include\sr5e1\evbe7000p.h ****      GPIO_MODE_SAFESELR_DISABLED |               \
1150:d:\project\9388\e1\2023_7_27\sr5e1_l9388_freeosek\modules\platform\board\include\sr5e1\evbe7000p.h ****      GPIO_MODE_SAFEVALR_LOW)
1151:d:\project\9388\e1\2023_7_27\sr5e1_l9388_freeosek\modules\platform\board\include\sr5e1\evbe7000p.h **** 
1152:d:\project\9388\e1\2023_7_27\sr5e1_l9388_freeosek\modules\platform\board\include\sr5e1\evbe7000p.h **** #define SPI2_MOSI gpio_iopack(GPIO_PORT_G, GPIO_PIN_10)
1153:d:\project\9388\e1\2023_7_27\sr5e1_l9388_freeosek\modules\platform\board\include\sr5e1\evbe7000p.h **** #define SPI2_MOSI_CFG                            \
1154:d:\project\9388\e1\2023_7_27\sr5e1_l9388_freeosek\modules\platform\board\include\sr5e1\evbe7000p.h ****     (GPIO_MODE_MODER_ALTERNATE |                 \
1155:d:\project\9388\e1\2023_7_27\sr5e1_l9388_freeosek\modules\platform\board\include\sr5e1\evbe7000p.h ****      GPIO_MODE_OTYPER_PUSHPULL |                 \
1156:d:\project\9388\e1\2023_7_27\sr5e1_l9388_freeosek\modules\platform\board\include\sr5e1\evbe7000p.h ****      GPIO_MODE_OSPEEDR_HIGH |                    \
1157:d:\project\9388\e1\2023_7_27\sr5e1_l9388_freeosek\modules\platform\board\include\sr5e1\evbe7000p.h ****      GPIO_MODE_PUPDR_FLOATING |                  \
1158:d:\project\9388\e1\2023_7_27\sr5e1_l9388_freeosek\modules\platform\board\include\sr5e1\evbe7000p.h ****      GPIO_MODE_AFR(5U) |                         \
1159:d:\project\9388\e1\2023_7_27\sr5e1_l9388_freeosek\modules\platform\board\include\sr5e1\evbe7000p.h ****      GPIO_MODE_IHYSTR_CMOS |                     \
1160:d:\project\9388\e1\2023_7_27\sr5e1_l9388_freeosek\modules\platform\board\include\sr5e1\evbe7000p.h ****      GPIO_MODE_TRIGENR_IN_ENABLED |              \
1161:d:\project\9388\e1\2023_7_27\sr5e1_l9388_freeosek\modules\platform\board\include\sr5e1\evbe7000p.h ****      GPIO_MODE_SAFESELR_DISABLED |               \
1162:d:\project\9388\e1\2023_7_27\sr5e1_l9388_freeosek\modules\platform\board\include\sr5e1\evbe7000p.h ****      GPIO_MODE_SAFEVALR_LOW)
1163:d:\project\9388\e1\2023_7_27\sr5e1_l9388_freeosek\modules\platform\board\include\sr5e1\evbe7000p.h **** 
1164:d:\project\9388\e1\2023_7_27\sr5e1_l9388_freeosek\modules\platform\board\include\sr5e1\evbe7000p.h **** #define SPI2_SCK gpio_iopack(GPIO_PORT_G, GPIO_PIN_11)
1165:d:\project\9388\e1\2023_7_27\sr5e1_l9388_freeosek\modules\platform\board\include\sr5e1\evbe7000p.h **** #define SPI2_SCK_CFG                             \
1166:d:\project\9388\e1\2023_7_27\sr5e1_l9388_freeosek\modules\platform\board\include\sr5e1\evbe7000p.h ****     (GPIO_MODE_MODER_ALTERNATE |                 \
1167:d:\project\9388\e1\2023_7_27\sr5e1_l9388_freeosek\modules\platform\board\include\sr5e1\evbe7000p.h ****      GPIO_MODE_OTYPER_PUSHPULL |                 \
1168:d:\project\9388\e1\2023_7_27\sr5e1_l9388_freeosek\modules\platform\board\include\sr5e1\evbe7000p.h ****      GPIO_MODE_OSPEEDR_HIGH |                    \
1169:d:\project\9388\e1\2023_7_27\sr5e1_l9388_freeosek\modules\platform\board\include\sr5e1\evbe7000p.h ****      GPIO_MODE_PUPDR_FLOATING |                  \
1170:d:\project\9388\e1\2023_7_27\sr5e1_l9388_freeosek\modules\platform\board\include\sr5e1\evbe7000p.h ****      GPIO_MODE_AFR(5U) |                         \
1171:d:\project\9388\e1\2023_7_27\sr5e1_l9388_freeosek\modules\platform\board\include\sr5e1\evbe7000p.h ****      GPIO_MODE_IHYSTR_CMOS |                     \
1172:d:\project\9388\e1\2023_7_27\sr5e1_l9388_freeosek\modules\platform\board\include\sr5e1\evbe7000p.h ****      GPIO_MODE_TRIGENR_IN_ENABLED |              \
1173:d:\project\9388\e1\2023_7_27\sr5e1_l9388_freeosek\modules\platform\board\include\sr5e1\evbe7000p.h ****      GPIO_MODE_SAFESELR_DISABLED |               \
1174:d:\project\9388\e1\2023_7_27\sr5e1_l9388_freeosek\modules\platform\board\include\sr5e1\evbe7000p.h ****      GPIO_MODE_SAFEVALR_LOW)
1175:d:\project\9388\e1\2023_7_27\sr5e1_l9388_freeosek\modules\platform\board\include\sr5e1\evbe7000p.h **** 
1176:d:\project\9388\e1\2023_7_27\sr5e1_l9388_freeosek\modules\platform\board\include\sr5e1\evbe7000p.h **** #define SPI2_NSS gpio_iopack(GPIO_PORT_G, GPIO_PIN_12)
1177:d:\project\9388\e1\2023_7_27\sr5e1_l9388_freeosek\modules\platform\board\include\sr5e1\evbe7000p.h **** #define SPI2_NSS_CFG                             \
1178:d:\project\9388\e1\2023_7_27\sr5e1_l9388_freeosek\modules\platform\board\include\sr5e1\evbe7000p.h ****     (GPIO_MODE_MODER_ALTERNATE |                 \
1179:d:\project\9388\e1\2023_7_27\sr5e1_l9388_freeosek\modules\platform\board\include\sr5e1\evbe7000p.h ****      GPIO_MODE_OTYPER_PUSHPULL |                 \
1180:d:\project\9388\e1\2023_7_27\sr5e1_l9388_freeosek\modules\platform\board\include\sr5e1\evbe7000p.h ****      GPIO_MODE_OSPEEDR_HIGH |                    \
1181:d:\project\9388\e1\2023_7_27\sr5e1_l9388_freeosek\modules\platform\board\include\sr5e1\evbe7000p.h ****      GPIO_MODE_PUPDR_FLOATING |                  \
1182:d:\project\9388\e1\2023_7_27\sr5e1_l9388_freeosek\modules\platform\board\include\sr5e1\evbe7000p.h ****      GPIO_MODE_AFR(5U) |                         \
1183:d:\project\9388\e1\2023_7_27\sr5e1_l9388_freeosek\modules\platform\board\include\sr5e1\evbe7000p.h ****      GPIO_MODE_IHYSTR_CMOS |                     \
1184:d:\project\9388\e1\2023_7_27\sr5e1_l9388_freeosek\modules\platform\board\include\sr5e1\evbe7000p.h ****      GPIO_MODE_TRIGENR_IN_ENABLED |              \
1185:d:\project\9388\e1\2023_7_27\sr5e1_l9388_freeosek\modules\platform\board\include\sr5e1\evbe7000p.h ****      GPIO_MODE_SAFESELR_DISABLED |               \
1186:d:\project\9388\e1\2023_7_27\sr5e1_l9388_freeosek\modules\platform\board\include\sr5e1\evbe7000p.h ****      GPIO_MODE_SAFEVALR_LOW)
1187:d:\project\9388\e1\2023_7_27\sr5e1_l9388_freeosek\modules\platform\board\include\sr5e1\evbe7000p.h **** 
1188:d:\project\9388\e1\2023_7_27\sr5e1_l9388_freeosek\modules\platform\board\include\sr5e1\evbe7000p.h **** #define TIM3_ETR gpio_iopack(GPIO_PORT_G, GPIO_PIN_13)
1189:d:\project\9388\e1\2023_7_27\sr5e1_l9388_freeosek\modules\platform\board\include\sr5e1\evbe7000p.h **** #define TIM3_ETR_CFG                             \
1190:d:\project\9388\e1\2023_7_27\sr5e1_l9388_freeosek\modules\platform\board\include\sr5e1\evbe7000p.h ****     (GPIO_MODE_MODER_ALTERNATE |                 \
1191:d:\project\9388\e1\2023_7_27\sr5e1_l9388_freeosek\modules\platform\board\include\sr5e1\evbe7000p.h ****      GPIO_MODE_OTYPER_PUSHPULL |                 \
1192:d:\project\9388\e1\2023_7_27\sr5e1_l9388_freeosek\modules\platform\board\include\sr5e1\evbe7000p.h ****      GPIO_MODE_OSPEEDR_LOW |                     \
1193:d:\project\9388\e1\2023_7_27\sr5e1_l9388_freeosek\modules\platform\board\include\sr5e1\evbe7000p.h ****      GPIO_MODE_PUPDR_FLOATING |                  \
1194:d:\project\9388\e1\2023_7_27\sr5e1_l9388_freeosek\modules\platform\board\include\sr5e1\evbe7000p.h ****      GPIO_MODE_AFR(2U) |                         \
1195:d:\project\9388\e1\2023_7_27\sr5e1_l9388_freeosek\modules\platform\board\include\sr5e1\evbe7000p.h ****      GPIO_MODE_IHYSTR_CMOS |                     \
1196:d:\project\9388\e1\2023_7_27\sr5e1_l9388_freeosek\modules\platform\board\include\sr5e1\evbe7000p.h ****      GPIO_MODE_TRIGENR_IN_ENABLED |              \
1197:d:\project\9388\e1\2023_7_27\sr5e1_l9388_freeosek\modules\platform\board\include\sr5e1\evbe7000p.h ****      GPIO_MODE_SAFESELR_DISABLED |               \
1198:d:\project\9388\e1\2023_7_27\sr5e1_l9388_freeosek\modules\platform\board\include\sr5e1\evbe7000p.h ****      GPIO_MODE_SAFEVALR_LOW)
1199:d:\project\9388\e1\2023_7_27\sr5e1_l9388_freeosek\modules\platform\board\include\sr5e1\evbe7000p.h **** 
1200:d:\project\9388\e1\2023_7_27\sr5e1_l9388_freeosek\modules\platform\board\include\sr5e1\evbe7000p.h **** #define TIM3_CH1 gpio_iopack(GPIO_PORT_G, GPIO_PIN_14)
1201:d:\project\9388\e1\2023_7_27\sr5e1_l9388_freeosek\modules\platform\board\include\sr5e1\evbe7000p.h **** #define TIM3_CH1_CFG                             \
1202:d:\project\9388\e1\2023_7_27\sr5e1_l9388_freeosek\modules\platform\board\include\sr5e1\evbe7000p.h ****     (GPIO_MODE_MODER_ALTERNATE |                 \
1203:d:\project\9388\e1\2023_7_27\sr5e1_l9388_freeosek\modules\platform\board\include\sr5e1\evbe7000p.h ****      GPIO_MODE_OTYPER_PUSHPULL |                 \
1204:d:\project\9388\e1\2023_7_27\sr5e1_l9388_freeosek\modules\platform\board\include\sr5e1\evbe7000p.h ****      GPIO_MODE_OSPEEDR_LOW |                     \
1205:d:\project\9388\e1\2023_7_27\sr5e1_l9388_freeosek\modules\platform\board\include\sr5e1\evbe7000p.h ****      GPIO_MODE_PUPDR_FLOATING |                  \
1206:d:\project\9388\e1\2023_7_27\sr5e1_l9388_freeosek\modules\platform\board\include\sr5e1\evbe7000p.h ****      GPIO_MODE_AFR(2U) |                         \
1207:d:\project\9388\e1\2023_7_27\sr5e1_l9388_freeosek\modules\platform\board\include\sr5e1\evbe7000p.h ****      GPIO_MODE_IHYSTR_CMOS |                     \
1208:d:\project\9388\e1\2023_7_27\sr5e1_l9388_freeosek\modules\platform\board\include\sr5e1\evbe7000p.h ****      GPIO_MODE_TRIGENR_IN_ENABLED |              \
1209:d:\project\9388\e1\2023_7_27\sr5e1_l9388_freeosek\modules\platform\board\include\sr5e1\evbe7000p.h ****      GPIO_MODE_SAFESELR_DISABLED |               \
1210:d:\project\9388\e1\2023_7_27\sr5e1_l9388_freeosek\modules\platform\board\include\sr5e1\evbe7000p.h ****      GPIO_MODE_SAFEVALR_LOW)
1211:d:\project\9388\e1\2023_7_27\sr5e1_l9388_freeosek\modules\platform\board\include\sr5e1\evbe7000p.h **** 
1212:d:\project\9388\e1\2023_7_27\sr5e1_l9388_freeosek\modules\platform\board\include\sr5e1\evbe7000p.h **** #define TIM3_CH2 gpio_iopack(GPIO_PORT_G, GPIO_PIN_15)
1213:d:\project\9388\e1\2023_7_27\sr5e1_l9388_freeosek\modules\platform\board\include\sr5e1\evbe7000p.h **** #define TIM3_CH2_CFG                             \
1214:d:\project\9388\e1\2023_7_27\sr5e1_l9388_freeosek\modules\platform\board\include\sr5e1\evbe7000p.h ****     (GPIO_MODE_MODER_ALTERNATE |                 \
1215:d:\project\9388\e1\2023_7_27\sr5e1_l9388_freeosek\modules\platform\board\include\sr5e1\evbe7000p.h ****      GPIO_MODE_OTYPER_PUSHPULL |                 \
1216:d:\project\9388\e1\2023_7_27\sr5e1_l9388_freeosek\modules\platform\board\include\sr5e1\evbe7000p.h ****      GPIO_MODE_OSPEEDR_LOW |                     \
1217:d:\project\9388\e1\2023_7_27\sr5e1_l9388_freeosek\modules\platform\board\include\sr5e1\evbe7000p.h ****      GPIO_MODE_PUPDR_FLOATING |                  \
1218:d:\project\9388\e1\2023_7_27\sr5e1_l9388_freeosek\modules\platform\board\include\sr5e1\evbe7000p.h ****      GPIO_MODE_AFR(2U) |                         \
1219:d:\project\9388\e1\2023_7_27\sr5e1_l9388_freeosek\modules\platform\board\include\sr5e1\evbe7000p.h ****      GPIO_MODE_IHYSTR_CMOS |                     \
1220:d:\project\9388\e1\2023_7_27\sr5e1_l9388_freeosek\modules\platform\board\include\sr5e1\evbe7000p.h ****      GPIO_MODE_TRIGENR_IN_ENABLED |              \
1221:d:\project\9388\e1\2023_7_27\sr5e1_l9388_freeosek\modules\platform\board\include\sr5e1\evbe7000p.h ****      GPIO_MODE_SAFESELR_DISABLED |               \
1222:d:\project\9388\e1\2023_7_27\sr5e1_l9388_freeosek\modules\platform\board\include\sr5e1\evbe7000p.h ****      GPIO_MODE_SAFEVALR_LOW)
1223:d:\project\9388\e1\2023_7_27\sr5e1_l9388_freeosek\modules\platform\board\include\sr5e1\evbe7000p.h **** 
1224:d:\project\9388\e1\2023_7_27\sr5e1_l9388_freeosek\modules\platform\board\include\sr5e1\evbe7000p.h **** /* PortH pin settings. */
1225:d:\project\9388\e1\2023_7_27\sr5e1_l9388_freeosek\modules\platform\board\include\sr5e1\evbe7000p.h **** #define TIM3_CH3 gpio_iopack(GPIO_PORT_H, GPIO_PIN_0)
1226:d:\project\9388\e1\2023_7_27\sr5e1_l9388_freeosek\modules\platform\board\include\sr5e1\evbe7000p.h **** #define TIM3_CH3_CFG                             \
1227:d:\project\9388\e1\2023_7_27\sr5e1_l9388_freeosek\modules\platform\board\include\sr5e1\evbe7000p.h ****     (GPIO_MODE_MODER_ALTERNATE |                 \
1228:d:\project\9388\e1\2023_7_27\sr5e1_l9388_freeosek\modules\platform\board\include\sr5e1\evbe7000p.h ****      GPIO_MODE_OTYPER_PUSHPULL |                 \
1229:d:\project\9388\e1\2023_7_27\sr5e1_l9388_freeosek\modules\platform\board\include\sr5e1\evbe7000p.h ****      GPIO_MODE_OSPEEDR_LOW |                     \
1230:d:\project\9388\e1\2023_7_27\sr5e1_l9388_freeosek\modules\platform\board\include\sr5e1\evbe7000p.h ****      GPIO_MODE_PUPDR_FLOATING |                  \
1231:d:\project\9388\e1\2023_7_27\sr5e1_l9388_freeosek\modules\platform\board\include\sr5e1\evbe7000p.h ****      GPIO_MODE_AFR(2U) |                         \
1232:d:\project\9388\e1\2023_7_27\sr5e1_l9388_freeosek\modules\platform\board\include\sr5e1\evbe7000p.h ****      GPIO_MODE_IHYSTR_CMOS |                     \
1233:d:\project\9388\e1\2023_7_27\sr5e1_l9388_freeosek\modules\platform\board\include\sr5e1\evbe7000p.h ****      GPIO_MODE_TRIGENR_IN_ENABLED |              \
1234:d:\project\9388\e1\2023_7_27\sr5e1_l9388_freeosek\modules\platform\board\include\sr5e1\evbe7000p.h ****      GPIO_MODE_SAFESELR_DISABLED |               \
1235:d:\project\9388\e1\2023_7_27\sr5e1_l9388_freeosek\modules\platform\board\include\sr5e1\evbe7000p.h ****      GPIO_MODE_SAFEVALR_LOW)
1236:d:\project\9388\e1\2023_7_27\sr5e1_l9388_freeosek\modules\platform\board\include\sr5e1\evbe7000p.h **** 
1237:d:\project\9388\e1\2023_7_27\sr5e1_l9388_freeosek\modules\platform\board\include\sr5e1\evbe7000p.h **** #define TIM3_CH4 gpio_iopack(GPIO_PORT_H, GPIO_PIN_1)
1238:d:\project\9388\e1\2023_7_27\sr5e1_l9388_freeosek\modules\platform\board\include\sr5e1\evbe7000p.h **** #define TIM3_CH4_CFG                             \
1239:d:\project\9388\e1\2023_7_27\sr5e1_l9388_freeosek\modules\platform\board\include\sr5e1\evbe7000p.h ****     (GPIO_MODE_MODER_ALTERNATE |                 \
1240:d:\project\9388\e1\2023_7_27\sr5e1_l9388_freeosek\modules\platform\board\include\sr5e1\evbe7000p.h ****      GPIO_MODE_OTYPER_PUSHPULL |                 \
1241:d:\project\9388\e1\2023_7_27\sr5e1_l9388_freeosek\modules\platform\board\include\sr5e1\evbe7000p.h ****      GPIO_MODE_OSPEEDR_LOW |                     \
1242:d:\project\9388\e1\2023_7_27\sr5e1_l9388_freeosek\modules\platform\board\include\sr5e1\evbe7000p.h ****      GPIO_MODE_PUPDR_FLOATING |                  \
1243:d:\project\9388\e1\2023_7_27\sr5e1_l9388_freeosek\modules\platform\board\include\sr5e1\evbe7000p.h ****      GPIO_MODE_AFR(2U) |                         \
1244:d:\project\9388\e1\2023_7_27\sr5e1_l9388_freeosek\modules\platform\board\include\sr5e1\evbe7000p.h ****      GPIO_MODE_IHYSTR_CMOS |                     \
1245:d:\project\9388\e1\2023_7_27\sr5e1_l9388_freeosek\modules\platform\board\include\sr5e1\evbe7000p.h ****      GPIO_MODE_TRIGENR_IN_ENABLED |              \
1246:d:\project\9388\e1\2023_7_27\sr5e1_l9388_freeosek\modules\platform\board\include\sr5e1\evbe7000p.h ****      GPIO_MODE_SAFESELR_DISABLED |               \
1247:d:\project\9388\e1\2023_7_27\sr5e1_l9388_freeosek\modules\platform\board\include\sr5e1\evbe7000p.h ****      GPIO_MODE_SAFEVALR_LOW)
1248:d:\project\9388\e1\2023_7_27\sr5e1_l9388_freeosek\modules\platform\board\include\sr5e1\evbe7000p.h **** 
1249:d:\project\9388\e1\2023_7_27\sr5e1_l9388_freeosek\modules\platform\board\include\sr5e1\evbe7000p.h **** #define TIM2_CH1 gpio_iopack(GPIO_PORT_H, GPIO_PIN_2)
1250:d:\project\9388\e1\2023_7_27\sr5e1_l9388_freeosek\modules\platform\board\include\sr5e1\evbe7000p.h **** #define TIM2_CH1_CFG                             \
1251:d:\project\9388\e1\2023_7_27\sr5e1_l9388_freeosek\modules\platform\board\include\sr5e1\evbe7000p.h ****     (GPIO_MODE_MODER_ALTERNATE |                 \
1252:d:\project\9388\e1\2023_7_27\sr5e1_l9388_freeosek\modules\platform\board\include\sr5e1\evbe7000p.h ****      GPIO_MODE_OTYPER_PUSHPULL |                 \
1253:d:\project\9388\e1\2023_7_27\sr5e1_l9388_freeosek\modules\platform\board\include\sr5e1\evbe7000p.h ****      GPIO_MODE_OSPEEDR_LOW |                     \
1254:d:\project\9388\e1\2023_7_27\sr5e1_l9388_freeosek\modules\platform\board\include\sr5e1\evbe7000p.h ****      GPIO_MODE_PUPDR_FLOATING |                  \
1255:d:\project\9388\e1\2023_7_27\sr5e1_l9388_freeosek\modules\platform\board\include\sr5e1\evbe7000p.h ****      GPIO_MODE_AFR(1U) |                         \
1256:d:\project\9388\e1\2023_7_27\sr5e1_l9388_freeosek\modules\platform\board\include\sr5e1\evbe7000p.h ****      GPIO_MODE_IHYSTR_CMOS |                     \
1257:d:\project\9388\e1\2023_7_27\sr5e1_l9388_freeosek\modules\platform\board\include\sr5e1\evbe7000p.h ****      GPIO_MODE_TRIGENR_IN_ENABLED |              \
1258:d:\project\9388\e1\2023_7_27\sr5e1_l9388_freeosek\modules\platform\board\include\sr5e1\evbe7000p.h ****      GPIO_MODE_SAFESELR_DISABLED |               \
1259:d:\project\9388\e1\2023_7_27\sr5e1_l9388_freeosek\modules\platform\board\include\sr5e1\evbe7000p.h ****      GPIO_MODE_SAFEVALR_LOW)
1260:d:\project\9388\e1\2023_7_27\sr5e1_l9388_freeosek\modules\platform\board\include\sr5e1\evbe7000p.h **** 
1261:d:\project\9388\e1\2023_7_27\sr5e1_l9388_freeosek\modules\platform\board\include\sr5e1\evbe7000p.h **** #define TIM2_CH2 gpio_iopack(GPIO_PORT_H, GPIO_PIN_3)
1262:d:\project\9388\e1\2023_7_27\sr5e1_l9388_freeosek\modules\platform\board\include\sr5e1\evbe7000p.h **** #define TIM2_CH2_CFG                             \
1263:d:\project\9388\e1\2023_7_27\sr5e1_l9388_freeosek\modules\platform\board\include\sr5e1\evbe7000p.h ****     (GPIO_MODE_MODER_ALTERNATE |                 \
1264:d:\project\9388\e1\2023_7_27\sr5e1_l9388_freeosek\modules\platform\board\include\sr5e1\evbe7000p.h ****      GPIO_MODE_OTYPER_PUSHPULL |                 \
1265:d:\project\9388\e1\2023_7_27\sr5e1_l9388_freeosek\modules\platform\board\include\sr5e1\evbe7000p.h ****      GPIO_MODE_OSPEEDR_LOW |                     \
1266:d:\project\9388\e1\2023_7_27\sr5e1_l9388_freeosek\modules\platform\board\include\sr5e1\evbe7000p.h ****      GPIO_MODE_PUPDR_FLOATING |                  \
1267:d:\project\9388\e1\2023_7_27\sr5e1_l9388_freeosek\modules\platform\board\include\sr5e1\evbe7000p.h ****      GPIO_MODE_AFR(1U) |                         \
1268:d:\project\9388\e1\2023_7_27\sr5e1_l9388_freeosek\modules\platform\board\include\sr5e1\evbe7000p.h ****      GPIO_MODE_IHYSTR_CMOS |                     \
1269:d:\project\9388\e1\2023_7_27\sr5e1_l9388_freeosek\modules\platform\board\include\sr5e1\evbe7000p.h ****      GPIO_MODE_TRIGENR_IN_ENABLED |              \
1270:d:\project\9388\e1\2023_7_27\sr5e1_l9388_freeosek\modules\platform\board\include\sr5e1\evbe7000p.h ****      GPIO_MODE_SAFESELR_DISABLED |               \
1271:d:\project\9388\e1\2023_7_27\sr5e1_l9388_freeosek\modules\platform\board\include\sr5e1\evbe7000p.h ****      GPIO_MODE_SAFEVALR_LOW)
1272:d:\project\9388\e1\2023_7_27\sr5e1_l9388_freeosek\modules\platform\board\include\sr5e1\evbe7000p.h **** 
1273:d:\project\9388\e1\2023_7_27\sr5e1_l9388_freeosek\modules\platform\board\include\sr5e1\evbe7000p.h **** #define TIM2_CH3 gpio_iopack(GPIO_PORT_H, GPIO_PIN_4)
1274:d:\project\9388\e1\2023_7_27\sr5e1_l9388_freeosek\modules\platform\board\include\sr5e1\evbe7000p.h **** #define TIM2_CH3_CFG                             \
1275:d:\project\9388\e1\2023_7_27\sr5e1_l9388_freeosek\modules\platform\board\include\sr5e1\evbe7000p.h ****     (GPIO_MODE_MODER_ALTERNATE |                 \
1276:d:\project\9388\e1\2023_7_27\sr5e1_l9388_freeosek\modules\platform\board\include\sr5e1\evbe7000p.h ****      GPIO_MODE_OTYPER_PUSHPULL |                 \
1277:d:\project\9388\e1\2023_7_27\sr5e1_l9388_freeosek\modules\platform\board\include\sr5e1\evbe7000p.h ****      GPIO_MODE_OSPEEDR_LOW |                     \
1278:d:\project\9388\e1\2023_7_27\sr5e1_l9388_freeosek\modules\platform\board\include\sr5e1\evbe7000p.h ****      GPIO_MODE_PUPDR_FLOATING |                  \
1279:d:\project\9388\e1\2023_7_27\sr5e1_l9388_freeosek\modules\platform\board\include\sr5e1\evbe7000p.h ****      GPIO_MODE_AFR(1U) |                         \
1280:d:\project\9388\e1\2023_7_27\sr5e1_l9388_freeosek\modules\platform\board\include\sr5e1\evbe7000p.h ****      GPIO_MODE_IHYSTR_CMOS |                     \
1281:d:\project\9388\e1\2023_7_27\sr5e1_l9388_freeosek\modules\platform\board\include\sr5e1\evbe7000p.h ****      GPIO_MODE_TRIGENR_IN_ENABLED |              \
1282:d:\project\9388\e1\2023_7_27\sr5e1_l9388_freeosek\modules\platform\board\include\sr5e1\evbe7000p.h ****      GPIO_MODE_SAFESELR_DISABLED |               \
1283:d:\project\9388\e1\2023_7_27\sr5e1_l9388_freeosek\modules\platform\board\include\sr5e1\evbe7000p.h ****      GPIO_MODE_SAFEVALR_LOW)
1284:d:\project\9388\e1\2023_7_27\sr5e1_l9388_freeosek\modules\platform\board\include\sr5e1\evbe7000p.h **** 
1285:d:\project\9388\e1\2023_7_27\sr5e1_l9388_freeosek\modules\platform\board\include\sr5e1\evbe7000p.h **** #define TIM2_CH4 gpio_iopack(GPIO_PORT_H, GPIO_PIN_5)
1286:d:\project\9388\e1\2023_7_27\sr5e1_l9388_freeosek\modules\platform\board\include\sr5e1\evbe7000p.h **** #define TIM2_CH4_CFG                             \
1287:d:\project\9388\e1\2023_7_27\sr5e1_l9388_freeosek\modules\platform\board\include\sr5e1\evbe7000p.h ****     (GPIO_MODE_MODER_ALTERNATE |                 \
1288:d:\project\9388\e1\2023_7_27\sr5e1_l9388_freeosek\modules\platform\board\include\sr5e1\evbe7000p.h ****      GPIO_MODE_OTYPER_PUSHPULL |                 \
1289:d:\project\9388\e1\2023_7_27\sr5e1_l9388_freeosek\modules\platform\board\include\sr5e1\evbe7000p.h ****      GPIO_MODE_OSPEEDR_LOW |                     \
1290:d:\project\9388\e1\2023_7_27\sr5e1_l9388_freeosek\modules\platform\board\include\sr5e1\evbe7000p.h ****      GPIO_MODE_PUPDR_FLOATING |                  \
1291:d:\project\9388\e1\2023_7_27\sr5e1_l9388_freeosek\modules\platform\board\include\sr5e1\evbe7000p.h ****      GPIO_MODE_AFR(1U) |                         \
1292:d:\project\9388\e1\2023_7_27\sr5e1_l9388_freeosek\modules\platform\board\include\sr5e1\evbe7000p.h ****      GPIO_MODE_IHYSTR_CMOS |                     \
1293:d:\project\9388\e1\2023_7_27\sr5e1_l9388_freeosek\modules\platform\board\include\sr5e1\evbe7000p.h ****      GPIO_MODE_TRIGENR_IN_ENABLED |              \
1294:d:\project\9388\e1\2023_7_27\sr5e1_l9388_freeosek\modules\platform\board\include\sr5e1\evbe7000p.h ****      GPIO_MODE_SAFESELR_DISABLED |               \
1295:d:\project\9388\e1\2023_7_27\sr5e1_l9388_freeosek\modules\platform\board\include\sr5e1\evbe7000p.h ****      GPIO_MODE_SAFEVALR_LOW)
1296:d:\project\9388\e1\2023_7_27\sr5e1_l9388_freeosek\modules\platform\board\include\sr5e1\evbe7000p.h **** 
1297:d:\project\9388\e1\2023_7_27\sr5e1_l9388_freeosek\modules\platform\board\include\sr5e1\evbe7000p.h **** #define TIM15_CH1 gpio_iopack(GPIO_PORT_H, GPIO_PIN_6)
1298:d:\project\9388\e1\2023_7_27\sr5e1_l9388_freeosek\modules\platform\board\include\sr5e1\evbe7000p.h **** #define TIM15_CH1_CFG                            \
1299:d:\project\9388\e1\2023_7_27\sr5e1_l9388_freeosek\modules\platform\board\include\sr5e1\evbe7000p.h ****     (GPIO_MODE_MODER_ALTERNATE |                 \
1300:d:\project\9388\e1\2023_7_27\sr5e1_l9388_freeosek\modules\platform\board\include\sr5e1\evbe7000p.h ****      GPIO_MODE_OTYPER_PUSHPULL |                 \
1301:d:\project\9388\e1\2023_7_27\sr5e1_l9388_freeosek\modules\platform\board\include\sr5e1\evbe7000p.h ****      GPIO_MODE_OSPEEDR_LOW |                     \
1302:d:\project\9388\e1\2023_7_27\sr5e1_l9388_freeosek\modules\platform\board\include\sr5e1\evbe7000p.h ****      GPIO_MODE_PUPDR_FLOATING |                  \
1303:d:\project\9388\e1\2023_7_27\sr5e1_l9388_freeosek\modules\platform\board\include\sr5e1\evbe7000p.h ****      GPIO_MODE_AFR(1U) |                         \
1304:d:\project\9388\e1\2023_7_27\sr5e1_l9388_freeosek\modules\platform\board\include\sr5e1\evbe7000p.h ****      GPIO_MODE_IHYSTR_CMOS |                     \
1305:d:\project\9388\e1\2023_7_27\sr5e1_l9388_freeosek\modules\platform\board\include\sr5e1\evbe7000p.h ****      GPIO_MODE_TRIGENR_IN_ENABLED |              \
1306:d:\project\9388\e1\2023_7_27\sr5e1_l9388_freeosek\modules\platform\board\include\sr5e1\evbe7000p.h ****      GPIO_MODE_SAFESELR_DISABLED |               \
1307:d:\project\9388\e1\2023_7_27\sr5e1_l9388_freeosek\modules\platform\board\include\sr5e1\evbe7000p.h ****      GPIO_MODE_SAFEVALR_LOW)
1308:d:\project\9388\e1\2023_7_27\sr5e1_l9388_freeosek\modules\platform\board\include\sr5e1\evbe7000p.h **** 
1309:d:\project\9388\e1\2023_7_27\sr5e1_l9388_freeosek\modules\platform\board\include\sr5e1\evbe7000p.h **** #define TIM15_CH1N gpio_iopack(GPIO_PORT_H, GPIO_PIN_7)
1310:d:\project\9388\e1\2023_7_27\sr5e1_l9388_freeosek\modules\platform\board\include\sr5e1\evbe7000p.h **** #define TIM15_CH1N_CFG                           \
1311:d:\project\9388\e1\2023_7_27\sr5e1_l9388_freeosek\modules\platform\board\include\sr5e1\evbe7000p.h ****     (GPIO_MODE_MODER_ALTERNATE |                 \
1312:d:\project\9388\e1\2023_7_27\sr5e1_l9388_freeosek\modules\platform\board\include\sr5e1\evbe7000p.h ****      GPIO_MODE_OTYPER_PUSHPULL |                 \
1313:d:\project\9388\e1\2023_7_27\sr5e1_l9388_freeosek\modules\platform\board\include\sr5e1\evbe7000p.h ****      GPIO_MODE_OSPEEDR_LOW |                     \
1314:d:\project\9388\e1\2023_7_27\sr5e1_l9388_freeosek\modules\platform\board\include\sr5e1\evbe7000p.h ****      GPIO_MODE_PUPDR_FLOATING |                  \
1315:d:\project\9388\e1\2023_7_27\sr5e1_l9388_freeosek\modules\platform\board\include\sr5e1\evbe7000p.h ****      GPIO_MODE_AFR(1U) |                         \
1316:d:\project\9388\e1\2023_7_27\sr5e1_l9388_freeosek\modules\platform\board\include\sr5e1\evbe7000p.h ****      GPIO_MODE_IHYSTR_CMOS |                     \
1317:d:\project\9388\e1\2023_7_27\sr5e1_l9388_freeosek\modules\platform\board\include\sr5e1\evbe7000p.h ****      GPIO_MODE_TRIGENR_IN_DISABLED |             \
1318:d:\project\9388\e1\2023_7_27\sr5e1_l9388_freeosek\modules\platform\board\include\sr5e1\evbe7000p.h ****      GPIO_MODE_SAFESELR_DISABLED |               \
1319:d:\project\9388\e1\2023_7_27\sr5e1_l9388_freeosek\modules\platform\board\include\sr5e1\evbe7000p.h ****      GPIO_MODE_SAFEVALR_LOW)
1320:d:\project\9388\e1\2023_7_27\sr5e1_l9388_freeosek\modules\platform\board\include\sr5e1\evbe7000p.h **** 
1321:d:\project\9388\e1\2023_7_27\sr5e1_l9388_freeosek\modules\platform\board\include\sr5e1\evbe7000p.h **** #define TIM15_CH2 gpio_iopack(GPIO_PORT_H, GPIO_PIN_8)
1322:d:\project\9388\e1\2023_7_27\sr5e1_l9388_freeosek\modules\platform\board\include\sr5e1\evbe7000p.h **** #define TIM15_CH2_CFG                            \
1323:d:\project\9388\e1\2023_7_27\sr5e1_l9388_freeosek\modules\platform\board\include\sr5e1\evbe7000p.h ****     (GPIO_MODE_MODER_ALTERNATE |                 \
1324:d:\project\9388\e1\2023_7_27\sr5e1_l9388_freeosek\modules\platform\board\include\sr5e1\evbe7000p.h ****      GPIO_MODE_OTYPER_PUSHPULL |                 \
1325:d:\project\9388\e1\2023_7_27\sr5e1_l9388_freeosek\modules\platform\board\include\sr5e1\evbe7000p.h ****      GPIO_MODE_OSPEEDR_LOW |                     \
1326:d:\project\9388\e1\2023_7_27\sr5e1_l9388_freeosek\modules\platform\board\include\sr5e1\evbe7000p.h ****      GPIO_MODE_PUPDR_FLOATING |                  \
1327:d:\project\9388\e1\2023_7_27\sr5e1_l9388_freeosek\modules\platform\board\include\sr5e1\evbe7000p.h ****      GPIO_MODE_AFR(1U) |                         \
1328:d:\project\9388\e1\2023_7_27\sr5e1_l9388_freeosek\modules\platform\board\include\sr5e1\evbe7000p.h ****      GPIO_MODE_IHYSTR_CMOS |                     \
1329:d:\project\9388\e1\2023_7_27\sr5e1_l9388_freeosek\modules\platform\board\include\sr5e1\evbe7000p.h ****      GPIO_MODE_TRIGENR_IN_ENABLED |              \
1330:d:\project\9388\e1\2023_7_27\sr5e1_l9388_freeosek\modules\platform\board\include\sr5e1\evbe7000p.h ****      GPIO_MODE_SAFESELR_DISABLED |               \
1331:d:\project\9388\e1\2023_7_27\sr5e1_l9388_freeosek\modules\platform\board\include\sr5e1\evbe7000p.h ****      GPIO_MODE_SAFEVALR_LOW)
1332:d:\project\9388\e1\2023_7_27\sr5e1_l9388_freeosek\modules\platform\board\include\sr5e1\evbe7000p.h **** 
1333:d:\project\9388\e1\2023_7_27\sr5e1_l9388_freeosek\modules\platform\board\include\sr5e1\evbe7000p.h **** #define TIM15_BKIN gpio_iopack(GPIO_PORT_H, GPIO_PIN_9)
1334:d:\project\9388\e1\2023_7_27\sr5e1_l9388_freeosek\modules\platform\board\include\sr5e1\evbe7000p.h **** #define TIM15_BKIN_CFG                           \
1335:d:\project\9388\e1\2023_7_27\sr5e1_l9388_freeosek\modules\platform\board\include\sr5e1\evbe7000p.h ****     (GPIO_MODE_MODER_ALTERNATE |                 \
1336:d:\project\9388\e1\2023_7_27\sr5e1_l9388_freeosek\modules\platform\board\include\sr5e1\evbe7000p.h ****      GPIO_MODE_OTYPER_PUSHPULL |                 \
1337:d:\project\9388\e1\2023_7_27\sr5e1_l9388_freeosek\modules\platform\board\include\sr5e1\evbe7000p.h ****      GPIO_MODE_OSPEEDR_LOW |                     \
1338:d:\project\9388\e1\2023_7_27\sr5e1_l9388_freeosek\modules\platform\board\include\sr5e1\evbe7000p.h ****      GPIO_MODE_PUPDR_FLOATING |                  \
1339:d:\project\9388\e1\2023_7_27\sr5e1_l9388_freeosek\modules\platform\board\include\sr5e1\evbe7000p.h ****      GPIO_MODE_AFR(1U) |                         \
1340:d:\project\9388\e1\2023_7_27\sr5e1_l9388_freeosek\modules\platform\board\include\sr5e1\evbe7000p.h ****      GPIO_MODE_IHYSTR_CMOS |                     \
1341:d:\project\9388\e1\2023_7_27\sr5e1_l9388_freeosek\modules\platform\board\include\sr5e1\evbe7000p.h ****      GPIO_MODE_TRIGENR_IN_ENABLED |              \
1342:d:\project\9388\e1\2023_7_27\sr5e1_l9388_freeosek\modules\platform\board\include\sr5e1\evbe7000p.h ****      GPIO_MODE_SAFESELR_DISABLED |               \
1343:d:\project\9388\e1\2023_7_27\sr5e1_l9388_freeosek\modules\platform\board\include\sr5e1\evbe7000p.h ****      GPIO_MODE_SAFEVALR_LOW)
1344:d:\project\9388\e1\2023_7_27\sr5e1_l9388_freeosek\modules\platform\board\include\sr5e1\evbe7000p.h **** 
1345:d:\project\9388\e1\2023_7_27\sr5e1_l9388_freeosek\modules\platform\board\include\sr5e1\evbe7000p.h **** #define CAN3_TX gpio_iopack(GPIO_PORT_H, GPIO_PIN_10)
1346:d:\project\9388\e1\2023_7_27\sr5e1_l9388_freeosek\modules\platform\board\include\sr5e1\evbe7000p.h **** #define CAN3_TX_CFG                              \
1347:d:\project\9388\e1\2023_7_27\sr5e1_l9388_freeosek\modules\platform\board\include\sr5e1\evbe7000p.h ****     (GPIO_MODE_MODER_ALTERNATE |                 \
1348:d:\project\9388\e1\2023_7_27\sr5e1_l9388_freeosek\modules\platform\board\include\sr5e1\evbe7000p.h ****      GPIO_MODE_OTYPER_PUSHPULL |                 \
1349:d:\project\9388\e1\2023_7_27\sr5e1_l9388_freeosek\modules\platform\board\include\sr5e1\evbe7000p.h ****      GPIO_MODE_OSPEEDR_HIGH |                    \
1350:d:\project\9388\e1\2023_7_27\sr5e1_l9388_freeosek\modules\platform\board\include\sr5e1\evbe7000p.h ****      GPIO_MODE_PUPDR_FLOATING |                  \
1351:d:\project\9388\e1\2023_7_27\sr5e1_l9388_freeosek\modules\platform\board\include\sr5e1\evbe7000p.h ****      GPIO_MODE_AFR(6U) |                         \
1352:d:\project\9388\e1\2023_7_27\sr5e1_l9388_freeosek\modules\platform\board\include\sr5e1\evbe7000p.h ****      GPIO_MODE_IHYSTR_CMOS |                     \
1353:d:\project\9388\e1\2023_7_27\sr5e1_l9388_freeosek\modules\platform\board\include\sr5e1\evbe7000p.h ****      GPIO_MODE_TRIGENR_IN_DISABLED |             \
1354:d:\project\9388\e1\2023_7_27\sr5e1_l9388_freeosek\modules\platform\board\include\sr5e1\evbe7000p.h ****      GPIO_MODE_SAFESELR_DISABLED |               \
1355:d:\project\9388\e1\2023_7_27\sr5e1_l9388_freeosek\modules\platform\board\include\sr5e1\evbe7000p.h ****      GPIO_MODE_SAFEVALR_LOW)
1356:d:\project\9388\e1\2023_7_27\sr5e1_l9388_freeosek\modules\platform\board\include\sr5e1\evbe7000p.h **** 
1357:d:\project\9388\e1\2023_7_27\sr5e1_l9388_freeosek\modules\platform\board\include\sr5e1\evbe7000p.h **** #define CAN3_RX gpio_iopack(GPIO_PORT_H, GPIO_PIN_11)
1358:d:\project\9388\e1\2023_7_27\sr5e1_l9388_freeosek\modules\platform\board\include\sr5e1\evbe7000p.h **** #define CAN3_RX_CFG                              \
1359:d:\project\9388\e1\2023_7_27\sr5e1_l9388_freeosek\modules\platform\board\include\sr5e1\evbe7000p.h ****     (GPIO_MODE_MODER_ALTERNATE |                 \
1360:d:\project\9388\e1\2023_7_27\sr5e1_l9388_freeosek\modules\platform\board\include\sr5e1\evbe7000p.h ****      GPIO_MODE_OTYPER_PUSHPULL |                 \
1361:d:\project\9388\e1\2023_7_27\sr5e1_l9388_freeosek\modules\platform\board\include\sr5e1\evbe7000p.h ****      GPIO_MODE_OSPEEDR_HIGH |                    \
1362:d:\project\9388\e1\2023_7_27\sr5e1_l9388_freeosek\modules\platform\board\include\sr5e1\evbe7000p.h ****      GPIO_MODE_PUPDR_FLOATING |                  \
1363:d:\project\9388\e1\2023_7_27\sr5e1_l9388_freeosek\modules\platform\board\include\sr5e1\evbe7000p.h ****      GPIO_MODE_AFR(6U) |                         \
1364:d:\project\9388\e1\2023_7_27\sr5e1_l9388_freeosek\modules\platform\board\include\sr5e1\evbe7000p.h ****      GPIO_MODE_IHYSTR_CMOS |                     \
1365:d:\project\9388\e1\2023_7_27\sr5e1_l9388_freeosek\modules\platform\board\include\sr5e1\evbe7000p.h ****      GPIO_MODE_TRIGENR_IN_ENABLED |              \
1366:d:\project\9388\e1\2023_7_27\sr5e1_l9388_freeosek\modules\platform\board\include\sr5e1\evbe7000p.h ****      GPIO_MODE_SAFESELR_DISABLED |               \
1367:d:\project\9388\e1\2023_7_27\sr5e1_l9388_freeosek\modules\platform\board\include\sr5e1\evbe7000p.h ****      GPIO_MODE_SAFEVALR_LOW)
1368:d:\project\9388\e1\2023_7_27\sr5e1_l9388_freeosek\modules\platform\board\include\sr5e1\evbe7000p.h **** 
1369:d:\project\9388\e1\2023_7_27\sr5e1_l9388_freeosek\modules\platform\board\include\sr5e1\evbe7000p.h **** #define CAN4_TX gpio_iopack(GPIO_PORT_H, GPIO_PIN_12)
1370:d:\project\9388\e1\2023_7_27\sr5e1_l9388_freeosek\modules\platform\board\include\sr5e1\evbe7000p.h **** #define CAN4_TX_CFG                              \
1371:d:\project\9388\e1\2023_7_27\sr5e1_l9388_freeosek\modules\platform\board\include\sr5e1\evbe7000p.h ****     (GPIO_MODE_MODER_ALTERNATE |                 \
1372:d:\project\9388\e1\2023_7_27\sr5e1_l9388_freeosek\modules\platform\board\include\sr5e1\evbe7000p.h ****      GPIO_MODE_OTYPER_PUSHPULL |                 \
1373:d:\project\9388\e1\2023_7_27\sr5e1_l9388_freeosek\modules\platform\board\include\sr5e1\evbe7000p.h ****      GPIO_MODE_OSPEEDR_HIGH |                    \
1374:d:\project\9388\e1\2023_7_27\sr5e1_l9388_freeosek\modules\platform\board\include\sr5e1\evbe7000p.h ****      GPIO_MODE_PUPDR_FLOATING |                  \
1375:d:\project\9388\e1\2023_7_27\sr5e1_l9388_freeosek\modules\platform\board\include\sr5e1\evbe7000p.h ****      GPIO_MODE_AFR(6U) |                         \
1376:d:\project\9388\e1\2023_7_27\sr5e1_l9388_freeosek\modules\platform\board\include\sr5e1\evbe7000p.h ****      GPIO_MODE_IHYSTR_CMOS |                     \
1377:d:\project\9388\e1\2023_7_27\sr5e1_l9388_freeosek\modules\platform\board\include\sr5e1\evbe7000p.h ****      GPIO_MODE_TRIGENR_IN_DISABLED |             \
1378:d:\project\9388\e1\2023_7_27\sr5e1_l9388_freeosek\modules\platform\board\include\sr5e1\evbe7000p.h ****      GPIO_MODE_SAFESELR_DISABLED |               \
1379:d:\project\9388\e1\2023_7_27\sr5e1_l9388_freeosek\modules\platform\board\include\sr5e1\evbe7000p.h ****      GPIO_MODE_SAFEVALR_LOW)
1380:d:\project\9388\e1\2023_7_27\sr5e1_l9388_freeosek\modules\platform\board\include\sr5e1\evbe7000p.h **** 
1381:d:\project\9388\e1\2023_7_27\sr5e1_l9388_freeosek\modules\platform\board\include\sr5e1\evbe7000p.h **** #define CAN4_RX gpio_iopack(GPIO_PORT_H, GPIO_PIN_13)
1382:d:\project\9388\e1\2023_7_27\sr5e1_l9388_freeosek\modules\platform\board\include\sr5e1\evbe7000p.h **** #define CAN4_RX_CFG                              \
1383:d:\project\9388\e1\2023_7_27\sr5e1_l9388_freeosek\modules\platform\board\include\sr5e1\evbe7000p.h ****     (GPIO_MODE_MODER_ALTERNATE |                 \
1384:d:\project\9388\e1\2023_7_27\sr5e1_l9388_freeosek\modules\platform\board\include\sr5e1\evbe7000p.h ****      GPIO_MODE_OTYPER_PUSHPULL |                 \
1385:d:\project\9388\e1\2023_7_27\sr5e1_l9388_freeosek\modules\platform\board\include\sr5e1\evbe7000p.h ****      GPIO_MODE_OSPEEDR_HIGH |                    \
1386:d:\project\9388\e1\2023_7_27\sr5e1_l9388_freeosek\modules\platform\board\include\sr5e1\evbe7000p.h ****      GPIO_MODE_PUPDR_FLOATING |                  \
1387:d:\project\9388\e1\2023_7_27\sr5e1_l9388_freeosek\modules\platform\board\include\sr5e1\evbe7000p.h ****      GPIO_MODE_AFR(6U) |                         \
1388:d:\project\9388\e1\2023_7_27\sr5e1_l9388_freeosek\modules\platform\board\include\sr5e1\evbe7000p.h ****      GPIO_MODE_IHYSTR_CMOS |                     \
1389:d:\project\9388\e1\2023_7_27\sr5e1_l9388_freeosek\modules\platform\board\include\sr5e1\evbe7000p.h ****      GPIO_MODE_TRIGENR_IN_ENABLED |              \
1390:d:\project\9388\e1\2023_7_27\sr5e1_l9388_freeosek\modules\platform\board\include\sr5e1\evbe7000p.h ****      GPIO_MODE_SAFESELR_DISABLED |               \
1391:d:\project\9388\e1\2023_7_27\sr5e1_l9388_freeosek\modules\platform\board\include\sr5e1\evbe7000p.h ****      GPIO_MODE_SAFEVALR_LOW)
1392:d:\project\9388\e1\2023_7_27\sr5e1_l9388_freeosek\modules\platform\board\include\sr5e1\evbe7000p.h **** 
1393:d:\project\9388\e1\2023_7_27\sr5e1_l9388_freeosek\modules\platform\board\include\sr5e1\evbe7000p.h **** #define UART3_RX gpio_iopack(GPIO_PORT_H, GPIO_PIN_14)
1394:d:\project\9388\e1\2023_7_27\sr5e1_l9388_freeosek\modules\platform\board\include\sr5e1\evbe7000p.h **** #define UART3_RX_CFG                             \
1395:d:\project\9388\e1\2023_7_27\sr5e1_l9388_freeosek\modules\platform\board\include\sr5e1\evbe7000p.h ****     (GPIO_MODE_MODER_ALTERNATE |                 \
1396:d:\project\9388\e1\2023_7_27\sr5e1_l9388_freeosek\modules\platform\board\include\sr5e1\evbe7000p.h ****      GPIO_MODE_OTYPER_PUSHPULL |                 \
1397:d:\project\9388\e1\2023_7_27\sr5e1_l9388_freeosek\modules\platform\board\include\sr5e1\evbe7000p.h ****      GPIO_MODE_OSPEEDR_LOW |                     \
1398:d:\project\9388\e1\2023_7_27\sr5e1_l9388_freeosek\modules\platform\board\include\sr5e1\evbe7000p.h ****      GPIO_MODE_PUPDR_FLOATING |                  \
1399:d:\project\9388\e1\2023_7_27\sr5e1_l9388_freeosek\modules\platform\board\include\sr5e1\evbe7000p.h ****      GPIO_MODE_AFR(7U) |                         \
1400:d:\project\9388\e1\2023_7_27\sr5e1_l9388_freeosek\modules\platform\board\include\sr5e1\evbe7000p.h ****      GPIO_MODE_IHYSTR_CMOS |                     \
1401:d:\project\9388\e1\2023_7_27\sr5e1_l9388_freeosek\modules\platform\board\include\sr5e1\evbe7000p.h ****      GPIO_MODE_TRIGENR_IN_ENABLED |              \
1402:d:\project\9388\e1\2023_7_27\sr5e1_l9388_freeosek\modules\platform\board\include\sr5e1\evbe7000p.h ****      GPIO_MODE_SAFESELR_DISABLED |               \
1403:d:\project\9388\e1\2023_7_27\sr5e1_l9388_freeosek\modules\platform\board\include\sr5e1\evbe7000p.h ****      GPIO_MODE_SAFEVALR_LOW)
1404:d:\project\9388\e1\2023_7_27\sr5e1_l9388_freeosek\modules\platform\board\include\sr5e1\evbe7000p.h **** 
1405:d:\project\9388\e1\2023_7_27\sr5e1_l9388_freeosek\modules\platform\board\include\sr5e1\evbe7000p.h **** #define UART3_TX gpio_iopack(GPIO_PORT_H, GPIO_PIN_15)
1406:d:\project\9388\e1\2023_7_27\sr5e1_l9388_freeosek\modules\platform\board\include\sr5e1\evbe7000p.h **** #define UART3_TX_CFG                             \
1407:d:\project\9388\e1\2023_7_27\sr5e1_l9388_freeosek\modules\platform\board\include\sr5e1\evbe7000p.h ****     (GPIO_MODE_MODER_ALTERNATE |                 \
1408:d:\project\9388\e1\2023_7_27\sr5e1_l9388_freeosek\modules\platform\board\include\sr5e1\evbe7000p.h ****      GPIO_MODE_OTYPER_PUSHPULL |                 \
1409:d:\project\9388\e1\2023_7_27\sr5e1_l9388_freeosek\modules\platform\board\include\sr5e1\evbe7000p.h ****      GPIO_MODE_OSPEEDR_LOW |                     \
1410:d:\project\9388\e1\2023_7_27\sr5e1_l9388_freeosek\modules\platform\board\include\sr5e1\evbe7000p.h ****      GPIO_MODE_PUPDR_FLOATING |                  \
1411:d:\project\9388\e1\2023_7_27\sr5e1_l9388_freeosek\modules\platform\board\include\sr5e1\evbe7000p.h ****      GPIO_MODE_AFR(7U) |                         \
1412:d:\project\9388\e1\2023_7_27\sr5e1_l9388_freeosek\modules\platform\board\include\sr5e1\evbe7000p.h ****      GPIO_MODE_IHYSTR_CMOS |                     \
1413:d:\project\9388\e1\2023_7_27\sr5e1_l9388_freeosek\modules\platform\board\include\sr5e1\evbe7000p.h ****      GPIO_MODE_TRIGENR_IN_DISABLED |             \
1414:d:\project\9388\e1\2023_7_27\sr5e1_l9388_freeosek\modules\platform\board\include\sr5e1\evbe7000p.h ****      GPIO_MODE_SAFESELR_DISABLED |               \
1415:d:\project\9388\e1\2023_7_27\sr5e1_l9388_freeosek\modules\platform\board\include\sr5e1\evbe7000p.h ****      GPIO_MODE_SAFEVALR_LOW)
1416:d:\project\9388\e1\2023_7_27\sr5e1_l9388_freeosek\modules\platform\board\include\sr5e1\evbe7000p.h **** 
1417:d:\project\9388\e1\2023_7_27\sr5e1_l9388_freeosek\modules\platform\board\include\sr5e1\evbe7000p.h **** /* PortI pin settings. */
1418:d:\project\9388\e1\2023_7_27\sr5e1_l9388_freeosek\modules\platform\board\include\sr5e1\evbe7000p.h **** #define TIM8_CH1 gpio_iopack(GPIO_PORT_I, GPIO_PIN_0)
1419:d:\project\9388\e1\2023_7_27\sr5e1_l9388_freeosek\modules\platform\board\include\sr5e1\evbe7000p.h **** #define TIM8_CH1_CFG                             \
1420:d:\project\9388\e1\2023_7_27\sr5e1_l9388_freeosek\modules\platform\board\include\sr5e1\evbe7000p.h ****     (GPIO_MODE_MODER_ALTERNATE |                 \
1421:d:\project\9388\e1\2023_7_27\sr5e1_l9388_freeosek\modules\platform\board\include\sr5e1\evbe7000p.h ****      GPIO_MODE_OTYPER_PUSHPULL |                 \
1422:d:\project\9388\e1\2023_7_27\sr5e1_l9388_freeosek\modules\platform\board\include\sr5e1\evbe7000p.h ****      GPIO_MODE_OSPEEDR_LOW |                     \
1423:d:\project\9388\e1\2023_7_27\sr5e1_l9388_freeosek\modules\platform\board\include\sr5e1\evbe7000p.h ****      GPIO_MODE_PUPDR_FLOATING |                  \
1424:d:\project\9388\e1\2023_7_27\sr5e1_l9388_freeosek\modules\platform\board\include\sr5e1\evbe7000p.h ****      GPIO_MODE_AFR(4U) |                         \
1425:d:\project\9388\e1\2023_7_27\sr5e1_l9388_freeosek\modules\platform\board\include\sr5e1\evbe7000p.h ****      GPIO_MODE_IHYSTR_CMOS |                     \
1426:d:\project\9388\e1\2023_7_27\sr5e1_l9388_freeosek\modules\platform\board\include\sr5e1\evbe7000p.h ****      GPIO_MODE_TRIGENR_IN_ENABLED |              \
1427:d:\project\9388\e1\2023_7_27\sr5e1_l9388_freeosek\modules\platform\board\include\sr5e1\evbe7000p.h ****      GPIO_MODE_SAFESELR_DISABLED |               \
1428:d:\project\9388\e1\2023_7_27\sr5e1_l9388_freeosek\modules\platform\board\include\sr5e1\evbe7000p.h ****      GPIO_MODE_SAFEVALR_LOW)
1429:d:\project\9388\e1\2023_7_27\sr5e1_l9388_freeosek\modules\platform\board\include\sr5e1\evbe7000p.h **** 
1430:d:\project\9388\e1\2023_7_27\sr5e1_l9388_freeosek\modules\platform\board\include\sr5e1\evbe7000p.h **** #define TIM8_CH1N gpio_iopack(GPIO_PORT_I, GPIO_PIN_1)
1431:d:\project\9388\e1\2023_7_27\sr5e1_l9388_freeosek\modules\platform\board\include\sr5e1\evbe7000p.h **** #define TIM8_CH1N_CFG                            \
1432:d:\project\9388\e1\2023_7_27\sr5e1_l9388_freeosek\modules\platform\board\include\sr5e1\evbe7000p.h ****     (GPIO_MODE_MODER_ALTERNATE |                 \
1433:d:\project\9388\e1\2023_7_27\sr5e1_l9388_freeosek\modules\platform\board\include\sr5e1\evbe7000p.h ****      GPIO_MODE_OTYPER_PUSHPULL |                 \
1434:d:\project\9388\e1\2023_7_27\sr5e1_l9388_freeosek\modules\platform\board\include\sr5e1\evbe7000p.h ****      GPIO_MODE_OSPEEDR_LOW |                     \
1435:d:\project\9388\e1\2023_7_27\sr5e1_l9388_freeosek\modules\platform\board\include\sr5e1\evbe7000p.h ****      GPIO_MODE_PUPDR_FLOATING |                  \
1436:d:\project\9388\e1\2023_7_27\sr5e1_l9388_freeosek\modules\platform\board\include\sr5e1\evbe7000p.h ****      GPIO_MODE_AFR(4U) |                         \
1437:d:\project\9388\e1\2023_7_27\sr5e1_l9388_freeosek\modules\platform\board\include\sr5e1\evbe7000p.h ****      GPIO_MODE_IHYSTR_CMOS |                     \
1438:d:\project\9388\e1\2023_7_27\sr5e1_l9388_freeosek\modules\platform\board\include\sr5e1\evbe7000p.h ****      GPIO_MODE_TRIGENR_IN_DISABLED |             \
1439:d:\project\9388\e1\2023_7_27\sr5e1_l9388_freeosek\modules\platform\board\include\sr5e1\evbe7000p.h ****      GPIO_MODE_SAFESELR_DISABLED |               \
1440:d:\project\9388\e1\2023_7_27\sr5e1_l9388_freeosek\modules\platform\board\include\sr5e1\evbe7000p.h ****      GPIO_MODE_SAFEVALR_LOW)
1441:d:\project\9388\e1\2023_7_27\sr5e1_l9388_freeosek\modules\platform\board\include\sr5e1\evbe7000p.h **** 
1442:d:\project\9388\e1\2023_7_27\sr5e1_l9388_freeosek\modules\platform\board\include\sr5e1\evbe7000p.h **** #define TIM8_CH2 gpio_iopack(GPIO_PORT_I, GPIO_PIN_2)
1443:d:\project\9388\e1\2023_7_27\sr5e1_l9388_freeosek\modules\platform\board\include\sr5e1\evbe7000p.h **** #define TIM8_CH2_CFG                             \
1444:d:\project\9388\e1\2023_7_27\sr5e1_l9388_freeosek\modules\platform\board\include\sr5e1\evbe7000p.h ****     (GPIO_MODE_MODER_ALTERNATE |                 \
1445:d:\project\9388\e1\2023_7_27\sr5e1_l9388_freeosek\modules\platform\board\include\sr5e1\evbe7000p.h ****      GPIO_MODE_OTYPER_PUSHPULL |                 \
1446:d:\project\9388\e1\2023_7_27\sr5e1_l9388_freeosek\modules\platform\board\include\sr5e1\evbe7000p.h ****      GPIO_MODE_OSPEEDR_LOW |                     \
1447:d:\project\9388\e1\2023_7_27\sr5e1_l9388_freeosek\modules\platform\board\include\sr5e1\evbe7000p.h ****      GPIO_MODE_PUPDR_FLOATING |                  \
1448:d:\project\9388\e1\2023_7_27\sr5e1_l9388_freeosek\modules\platform\board\include\sr5e1\evbe7000p.h ****      GPIO_MODE_AFR(4U) |                         \
1449:d:\project\9388\e1\2023_7_27\sr5e1_l9388_freeosek\modules\platform\board\include\sr5e1\evbe7000p.h ****      GPIO_MODE_IHYSTR_CMOS |                     \
1450:d:\project\9388\e1\2023_7_27\sr5e1_l9388_freeosek\modules\platform\board\include\sr5e1\evbe7000p.h ****      GPIO_MODE_TRIGENR_IN_ENABLED |              \
1451:d:\project\9388\e1\2023_7_27\sr5e1_l9388_freeosek\modules\platform\board\include\sr5e1\evbe7000p.h ****      GPIO_MODE_SAFESELR_DISABLED |               \
1452:d:\project\9388\e1\2023_7_27\sr5e1_l9388_freeosek\modules\platform\board\include\sr5e1\evbe7000p.h ****      GPIO_MODE_SAFEVALR_LOW)
1453:d:\project\9388\e1\2023_7_27\sr5e1_l9388_freeosek\modules\platform\board\include\sr5e1\evbe7000p.h **** 
1454:d:\project\9388\e1\2023_7_27\sr5e1_l9388_freeosek\modules\platform\board\include\sr5e1\evbe7000p.h **** #define TIM8_CH2N gpio_iopack(GPIO_PORT_I, GPIO_PIN_3)
1455:d:\project\9388\e1\2023_7_27\sr5e1_l9388_freeosek\modules\platform\board\include\sr5e1\evbe7000p.h **** #define TIM8_CH2N_CFG                            \
1456:d:\project\9388\e1\2023_7_27\sr5e1_l9388_freeosek\modules\platform\board\include\sr5e1\evbe7000p.h ****     (GPIO_MODE_MODER_ALTERNATE |                 \
1457:d:\project\9388\e1\2023_7_27\sr5e1_l9388_freeosek\modules\platform\board\include\sr5e1\evbe7000p.h ****      GPIO_MODE_OTYPER_PUSHPULL |                 \
1458:d:\project\9388\e1\2023_7_27\sr5e1_l9388_freeosek\modules\platform\board\include\sr5e1\evbe7000p.h ****      GPIO_MODE_OSPEEDR_LOW |                     \
1459:d:\project\9388\e1\2023_7_27\sr5e1_l9388_freeosek\modules\platform\board\include\sr5e1\evbe7000p.h ****      GPIO_MODE_PUPDR_FLOATING |                  \
1460:d:\project\9388\e1\2023_7_27\sr5e1_l9388_freeosek\modules\platform\board\include\sr5e1\evbe7000p.h ****      GPIO_MODE_AFR(4U) |                         \
1461:d:\project\9388\e1\2023_7_27\sr5e1_l9388_freeosek\modules\platform\board\include\sr5e1\evbe7000p.h ****      GPIO_MODE_IHYSTR_CMOS |                     \
1462:d:\project\9388\e1\2023_7_27\sr5e1_l9388_freeosek\modules\platform\board\include\sr5e1\evbe7000p.h ****      GPIO_MODE_TRIGENR_IN_DISABLED |             \
1463:d:\project\9388\e1\2023_7_27\sr5e1_l9388_freeosek\modules\platform\board\include\sr5e1\evbe7000p.h ****      GPIO_MODE_SAFESELR_DISABLED |               \
1464:d:\project\9388\e1\2023_7_27\sr5e1_l9388_freeosek\modules\platform\board\include\sr5e1\evbe7000p.h ****      GPIO_MODE_SAFEVALR_LOW)
1465:d:\project\9388\e1\2023_7_27\sr5e1_l9388_freeosek\modules\platform\board\include\sr5e1\evbe7000p.h **** 
1466:d:\project\9388\e1\2023_7_27\sr5e1_l9388_freeosek\modules\platform\board\include\sr5e1\evbe7000p.h **** #define TIM8_CH3 gpio_iopack(GPIO_PORT_I, GPIO_PIN_4)
1467:d:\project\9388\e1\2023_7_27\sr5e1_l9388_freeosek\modules\platform\board\include\sr5e1\evbe7000p.h **** #define TIM8_CH3_CFG                             \
1468:d:\project\9388\e1\2023_7_27\sr5e1_l9388_freeosek\modules\platform\board\include\sr5e1\evbe7000p.h ****     (GPIO_MODE_MODER_ALTERNATE |                 \
1469:d:\project\9388\e1\2023_7_27\sr5e1_l9388_freeosek\modules\platform\board\include\sr5e1\evbe7000p.h ****      GPIO_MODE_OTYPER_PUSHPULL |                 \
1470:d:\project\9388\e1\2023_7_27\sr5e1_l9388_freeosek\modules\platform\board\include\sr5e1\evbe7000p.h ****      GPIO_MODE_OSPEEDR_LOW |                     \
1471:d:\project\9388\e1\2023_7_27\sr5e1_l9388_freeosek\modules\platform\board\include\sr5e1\evbe7000p.h ****      GPIO_MODE_PUPDR_FLOATING |                  \
1472:d:\project\9388\e1\2023_7_27\sr5e1_l9388_freeosek\modules\platform\board\include\sr5e1\evbe7000p.h ****      GPIO_MODE_AFR(4U) |                         \
1473:d:\project\9388\e1\2023_7_27\sr5e1_l9388_freeosek\modules\platform\board\include\sr5e1\evbe7000p.h ****      GPIO_MODE_IHYSTR_CMOS |                     \
1474:d:\project\9388\e1\2023_7_27\sr5e1_l9388_freeosek\modules\platform\board\include\sr5e1\evbe7000p.h ****      GPIO_MODE_TRIGENR_IN_ENABLED |              \
1475:d:\project\9388\e1\2023_7_27\sr5e1_l9388_freeosek\modules\platform\board\include\sr5e1\evbe7000p.h ****      GPIO_MODE_SAFESELR_DISABLED |               \
1476:d:\project\9388\e1\2023_7_27\sr5e1_l9388_freeosek\modules\platform\board\include\sr5e1\evbe7000p.h ****      GPIO_MODE_SAFEVALR_LOW)
1477:d:\project\9388\e1\2023_7_27\sr5e1_l9388_freeosek\modules\platform\board\include\sr5e1\evbe7000p.h **** 
1478:d:\project\9388\e1\2023_7_27\sr5e1_l9388_freeosek\modules\platform\board\include\sr5e1\evbe7000p.h **** #define TIM8_CH3N gpio_iopack(GPIO_PORT_I, GPIO_PIN_5)
1479:d:\project\9388\e1\2023_7_27\sr5e1_l9388_freeosek\modules\platform\board\include\sr5e1\evbe7000p.h **** #define TIM8_CH3N_CFG                            \
1480:d:\project\9388\e1\2023_7_27\sr5e1_l9388_freeosek\modules\platform\board\include\sr5e1\evbe7000p.h ****     (GPIO_MODE_MODER_ALTERNATE |                 \
1481:d:\project\9388\e1\2023_7_27\sr5e1_l9388_freeosek\modules\platform\board\include\sr5e1\evbe7000p.h ****      GPIO_MODE_OTYPER_PUSHPULL |                 \
1482:d:\project\9388\e1\2023_7_27\sr5e1_l9388_freeosek\modules\platform\board\include\sr5e1\evbe7000p.h ****      GPIO_MODE_OSPEEDR_LOW |                     \
1483:d:\project\9388\e1\2023_7_27\sr5e1_l9388_freeosek\modules\platform\board\include\sr5e1\evbe7000p.h ****      GPIO_MODE_PUPDR_FLOATING |                  \
1484:d:\project\9388\e1\2023_7_27\sr5e1_l9388_freeosek\modules\platform\board\include\sr5e1\evbe7000p.h ****      GPIO_MODE_AFR(4U) |                         \
1485:d:\project\9388\e1\2023_7_27\sr5e1_l9388_freeosek\modules\platform\board\include\sr5e1\evbe7000p.h ****      GPIO_MODE_IHYSTR_CMOS |                     \
1486:d:\project\9388\e1\2023_7_27\sr5e1_l9388_freeosek\modules\platform\board\include\sr5e1\evbe7000p.h ****      GPIO_MODE_TRIGENR_IN_DISABLED |             \
1487:d:\project\9388\e1\2023_7_27\sr5e1_l9388_freeosek\modules\platform\board\include\sr5e1\evbe7000p.h ****      GPIO_MODE_SAFESELR_DISABLED |               \
1488:d:\project\9388\e1\2023_7_27\sr5e1_l9388_freeosek\modules\platform\board\include\sr5e1\evbe7000p.h ****      GPIO_MODE_SAFEVALR_LOW)
1489:d:\project\9388\e1\2023_7_27\sr5e1_l9388_freeosek\modules\platform\board\include\sr5e1\evbe7000p.h **** 
1490:d:\project\9388\e1\2023_7_27\sr5e1_l9388_freeosek\modules\platform\board\include\sr5e1\evbe7000p.h **** #define TIM8_CH4 gpio_iopack(GPIO_PORT_I, GPIO_PIN_6)
1491:d:\project\9388\e1\2023_7_27\sr5e1_l9388_freeosek\modules\platform\board\include\sr5e1\evbe7000p.h **** #define TIM8_CH4_CFG                             \
1492:d:\project\9388\e1\2023_7_27\sr5e1_l9388_freeosek\modules\platform\board\include\sr5e1\evbe7000p.h ****     (GPIO_MODE_MODER_ALTERNATE |                 \
1493:d:\project\9388\e1\2023_7_27\sr5e1_l9388_freeosek\modules\platform\board\include\sr5e1\evbe7000p.h ****      GPIO_MODE_OTYPER_PUSHPULL |                 \
1494:d:\project\9388\e1\2023_7_27\sr5e1_l9388_freeosek\modules\platform\board\include\sr5e1\evbe7000p.h ****      GPIO_MODE_OSPEEDR_LOW |                     \
1495:d:\project\9388\e1\2023_7_27\sr5e1_l9388_freeosek\modules\platform\board\include\sr5e1\evbe7000p.h ****      GPIO_MODE_PUPDR_FLOATING |                  \
1496:d:\project\9388\e1\2023_7_27\sr5e1_l9388_freeosek\modules\platform\board\include\sr5e1\evbe7000p.h ****      GPIO_MODE_AFR(4U) |                         \
1497:d:\project\9388\e1\2023_7_27\sr5e1_l9388_freeosek\modules\platform\board\include\sr5e1\evbe7000p.h ****      GPIO_MODE_IHYSTR_CMOS |                     \
1498:d:\project\9388\e1\2023_7_27\sr5e1_l9388_freeosek\modules\platform\board\include\sr5e1\evbe7000p.h ****      GPIO_MODE_TRIGENR_IN_ENABLED |              \
1499:d:\project\9388\e1\2023_7_27\sr5e1_l9388_freeosek\modules\platform\board\include\sr5e1\evbe7000p.h ****      GPIO_MODE_SAFESELR_DISABLED |               \
1500:d:\project\9388\e1\2023_7_27\sr5e1_l9388_freeosek\modules\platform\board\include\sr5e1\evbe7000p.h ****      GPIO_MODE_SAFEVALR_LOW)
1501:d:\project\9388\e1\2023_7_27\sr5e1_l9388_freeosek\modules\platform\board\include\sr5e1\evbe7000p.h **** 
1502:d:\project\9388\e1\2023_7_27\sr5e1_l9388_freeosek\modules\platform\board\include\sr5e1\evbe7000p.h **** #define TIM8_CH4N gpio_iopack(GPIO_PORT_I, GPIO_PIN_7)
1503:d:\project\9388\e1\2023_7_27\sr5e1_l9388_freeosek\modules\platform\board\include\sr5e1\evbe7000p.h **** #define TIM8_CH4N_CFG                            \
1504:d:\project\9388\e1\2023_7_27\sr5e1_l9388_freeosek\modules\platform\board\include\sr5e1\evbe7000p.h ****     (GPIO_MODE_MODER_ALTERNATE |                 \
1505:d:\project\9388\e1\2023_7_27\sr5e1_l9388_freeosek\modules\platform\board\include\sr5e1\evbe7000p.h ****      GPIO_MODE_OTYPER_PUSHPULL |                 \
1506:d:\project\9388\e1\2023_7_27\sr5e1_l9388_freeosek\modules\platform\board\include\sr5e1\evbe7000p.h ****      GPIO_MODE_OSPEEDR_LOW |                     \
1507:d:\project\9388\e1\2023_7_27\sr5e1_l9388_freeosek\modules\platform\board\include\sr5e1\evbe7000p.h ****      GPIO_MODE_PUPDR_FLOATING |                  \
1508:d:\project\9388\e1\2023_7_27\sr5e1_l9388_freeosek\modules\platform\board\include\sr5e1\evbe7000p.h ****      GPIO_MODE_AFR(4U) |                         \
1509:d:\project\9388\e1\2023_7_27\sr5e1_l9388_freeosek\modules\platform\board\include\sr5e1\evbe7000p.h ****      GPIO_MODE_IHYSTR_CMOS |                     \
1510:d:\project\9388\e1\2023_7_27\sr5e1_l9388_freeosek\modules\platform\board\include\sr5e1\evbe7000p.h ****      GPIO_MODE_TRIGENR_IN_DISABLED |             \
1511:d:\project\9388\e1\2023_7_27\sr5e1_l9388_freeosek\modules\platform\board\include\sr5e1\evbe7000p.h ****      GPIO_MODE_SAFESELR_DISABLED |               \
1512:d:\project\9388\e1\2023_7_27\sr5e1_l9388_freeosek\modules\platform\board\include\sr5e1\evbe7000p.h ****      GPIO_MODE_SAFEVALR_LOW)
1513:d:\project\9388\e1\2023_7_27\sr5e1_l9388_freeosek\modules\platform\board\include\sr5e1\evbe7000p.h **** 
1514:d:\project\9388\e1\2023_7_27\sr5e1_l9388_freeosek\modules\platform\board\include\sr5e1\evbe7000p.h **** #define TIM8_BKIN gpio_iopack(GPIO_PORT_I, GPIO_PIN_8)
1515:d:\project\9388\e1\2023_7_27\sr5e1_l9388_freeosek\modules\platform\board\include\sr5e1\evbe7000p.h **** #define TIM8_BKIN_CFG                            \
1516:d:\project\9388\e1\2023_7_27\sr5e1_l9388_freeosek\modules\platform\board\include\sr5e1\evbe7000p.h ****     (GPIO_MODE_MODER_ALTERNATE |                 \
1517:d:\project\9388\e1\2023_7_27\sr5e1_l9388_freeosek\modules\platform\board\include\sr5e1\evbe7000p.h ****      GPIO_MODE_OTYPER_PUSHPULL |                 \
1518:d:\project\9388\e1\2023_7_27\sr5e1_l9388_freeosek\modules\platform\board\include\sr5e1\evbe7000p.h ****      GPIO_MODE_OSPEEDR_LOW |                     \
1519:d:\project\9388\e1\2023_7_27\sr5e1_l9388_freeosek\modules\platform\board\include\sr5e1\evbe7000p.h ****      GPIO_MODE_PUPDR_FLOATING |                  \
1520:d:\project\9388\e1\2023_7_27\sr5e1_l9388_freeosek\modules\platform\board\include\sr5e1\evbe7000p.h ****      GPIO_MODE_AFR(4U) |                         \
1521:d:\project\9388\e1\2023_7_27\sr5e1_l9388_freeosek\modules\platform\board\include\sr5e1\evbe7000p.h ****      GPIO_MODE_IHYSTR_CMOS |                     \
1522:d:\project\9388\e1\2023_7_27\sr5e1_l9388_freeosek\modules\platform\board\include\sr5e1\evbe7000p.h ****      GPIO_MODE_TRIGENR_IN_ENABLED |              \
1523:d:\project\9388\e1\2023_7_27\sr5e1_l9388_freeosek\modules\platform\board\include\sr5e1\evbe7000p.h ****      GPIO_MODE_SAFESELR_DISABLED |               \
1524:d:\project\9388\e1\2023_7_27\sr5e1_l9388_freeosek\modules\platform\board\include\sr5e1\evbe7000p.h ****      GPIO_MODE_SAFEVALR_LOW)
1525:d:\project\9388\e1\2023_7_27\sr5e1_l9388_freeosek\modules\platform\board\include\sr5e1\evbe7000p.h **** 
1526:d:\project\9388\e1\2023_7_27\sr5e1_l9388_freeosek\modules\platform\board\include\sr5e1\evbe7000p.h **** #define TIM8_BKIN2 gpio_iopack(GPIO_PORT_I, GPIO_PIN_9)
1527:d:\project\9388\e1\2023_7_27\sr5e1_l9388_freeosek\modules\platform\board\include\sr5e1\evbe7000p.h **** #define TIM8_BKIN2_CFG                           \
1528:d:\project\9388\e1\2023_7_27\sr5e1_l9388_freeosek\modules\platform\board\include\sr5e1\evbe7000p.h ****     (GPIO_MODE_MODER_ALTERNATE |                 \
1529:d:\project\9388\e1\2023_7_27\sr5e1_l9388_freeosek\modules\platform\board\include\sr5e1\evbe7000p.h ****      GPIO_MODE_OTYPER_PUSHPULL |                 \
1530:d:\project\9388\e1\2023_7_27\sr5e1_l9388_freeosek\modules\platform\board\include\sr5e1\evbe7000p.h ****      GPIO_MODE_OSPEEDR_LOW |                     \
1531:d:\project\9388\e1\2023_7_27\sr5e1_l9388_freeosek\modules\platform\board\include\sr5e1\evbe7000p.h ****      GPIO_MODE_PUPDR_FLOATING |                  \
1532:d:\project\9388\e1\2023_7_27\sr5e1_l9388_freeosek\modules\platform\board\include\sr5e1\evbe7000p.h ****      GPIO_MODE_AFR(4U) |                         \
1533:d:\project\9388\e1\2023_7_27\sr5e1_l9388_freeosek\modules\platform\board\include\sr5e1\evbe7000p.h ****      GPIO_MODE_IHYSTR_CMOS |                     \
1534:d:\project\9388\e1\2023_7_27\sr5e1_l9388_freeosek\modules\platform\board\include\sr5e1\evbe7000p.h ****      GPIO_MODE_TRIGENR_IN_ENABLED |              \
1535:d:\project\9388\e1\2023_7_27\sr5e1_l9388_freeosek\modules\platform\board\include\sr5e1\evbe7000p.h ****      GPIO_MODE_SAFESELR_DISABLED |               \
1536:d:\project\9388\e1\2023_7_27\sr5e1_l9388_freeosek\modules\platform\board\include\sr5e1\evbe7000p.h ****      GPIO_MODE_SAFEVALR_LOW)
1537:d:\project\9388\e1\2023_7_27\sr5e1_l9388_freeosek\modules\platform\board\include\sr5e1\evbe7000p.h **** 
1538:d:\project\9388\e1\2023_7_27\sr5e1_l9388_freeosek\modules\platform\board\include\sr5e1\evbe7000p.h **** /*===========================================================================*/
1539:d:\project\9388\e1\2023_7_27\sr5e1_l9388_freeosek\modules\platform\board\include\sr5e1\evbe7000p.h **** /* Module pre-compile time settings.                                         */
1540:d:\project\9388\e1\2023_7_27\sr5e1_l9388_freeosek\modules\platform\board\include\sr5e1\evbe7000p.h **** /*===========================================================================*/
1541:d:\project\9388\e1\2023_7_27\sr5e1_l9388_freeosek\modules\platform\board\include\sr5e1\evbe7000p.h **** 
1542:d:\project\9388\e1\2023_7_27\sr5e1_l9388_freeosek\modules\platform\board\include\sr5e1\evbe7000p.h **** /*===========================================================================*/
1543:d:\project\9388\e1\2023_7_27\sr5e1_l9388_freeosek\modules\platform\board\include\sr5e1\evbe7000p.h **** /* Derived constants and error checks.                                       */
1544:d:\project\9388\e1\2023_7_27\sr5e1_l9388_freeosek\modules\platform\board\include\sr5e1\evbe7000p.h **** /*===========================================================================*/
1545:d:\project\9388\e1\2023_7_27\sr5e1_l9388_freeosek\modules\platform\board\include\sr5e1\evbe7000p.h **** 
1546:d:\project\9388\e1\2023_7_27\sr5e1_l9388_freeosek\modules\platform\board\include\sr5e1\evbe7000p.h **** /*===========================================================================*/
1547:d:\project\9388\e1\2023_7_27\sr5e1_l9388_freeosek\modules\platform\board\include\sr5e1\evbe7000p.h **** /* Module data structures and types.                                         */
1548:d:\project\9388\e1\2023_7_27\sr5e1_l9388_freeosek\modules\platform\board\include\sr5e1\evbe7000p.h **** /*===========================================================================*/
1549:d:\project\9388\e1\2023_7_27\sr5e1_l9388_freeosek\modules\platform\board\include\sr5e1\evbe7000p.h **** 
1550:d:\project\9388\e1\2023_7_27\sr5e1_l9388_freeosek\modules\platform\board\include\sr5e1\evbe7000p.h **** /*===========================================================================*/
1551:d:\project\9388\e1\2023_7_27\sr5e1_l9388_freeosek\modules\platform\board\include\sr5e1\evbe7000p.h **** /* Module macros.                                                            */
1552:d:\project\9388\e1\2023_7_27\sr5e1_l9388_freeosek\modules\platform\board\include\sr5e1\evbe7000p.h **** /*===========================================================================*/
1553:d:\project\9388\e1\2023_7_27\sr5e1_l9388_freeosek\modules\platform\board\include\sr5e1\evbe7000p.h **** 
1554:d:\project\9388\e1\2023_7_27\sr5e1_l9388_freeosek\modules\platform\board\include\sr5e1\evbe7000p.h **** /*===========================================================================*/
1555:d:\project\9388\e1\2023_7_27\sr5e1_l9388_freeosek\modules\platform\board\include\sr5e1\evbe7000p.h **** /* External declarations.                                                    */
1556:d:\project\9388\e1\2023_7_27\sr5e1_l9388_freeosek\modules\platform\board\include\sr5e1\evbe7000p.h **** /*===========================================================================*/
1557:d:\project\9388\e1\2023_7_27\sr5e1_l9388_freeosek\modules\platform\board\include\sr5e1\evbe7000p.h **** 
1558:d:\project\9388\e1\2023_7_27\sr5e1_l9388_freeosek\modules\platform\board\include\sr5e1\evbe7000p.h **** #if !defined(_FROM_ASM_)
1559:d:\project\9388\e1\2023_7_27\sr5e1_l9388_freeosek\modules\platform\board\include\sr5e1\evbe7000p.h **** #ifdef __cplusplus
1560:d:\project\9388\e1\2023_7_27\sr5e1_l9388_freeosek\modules\platform\board\include\sr5e1\evbe7000p.h **** extern "C" {
1561:d:\project\9388\e1\2023_7_27\sr5e1_l9388_freeosek\modules\platform\board\include\sr5e1\evbe7000p.h **** #endif
1562:d:\project\9388\e1\2023_7_27\sr5e1_l9388_freeosek\modules\platform\board\include\sr5e1\evbe7000p.h **** 
1563:d:\project\9388\e1\2023_7_27\sr5e1_l9388_freeosek\modules\platform\board\include\sr5e1\evbe7000p.h **** #ifdef __cplusplus
1564:d:\project\9388\e1\2023_7_27\sr5e1_l9388_freeosek\modules\platform\board\include\sr5e1\evbe7000p.h **** }
1565:d:\project\9388\e1\2023_7_27\sr5e1_l9388_freeosek\modules\platform\board\include\sr5e1\evbe7000p.h **** #endif
1566:d:\project\9388\e1\2023_7_27\sr5e1_l9388_freeosek\modules\platform\board\include\sr5e1\evbe7000p.h **** #endif /* _FROM_ASM_ */
1567:d:\project\9388\e1\2023_7_27\sr5e1_l9388_freeosek\modules\platform\board\include\sr5e1\evbe7000p.h **** 
1568:d:\project\9388\e1\2023_7_27\sr5e1_l9388_freeosek\modules\platform\board\include\sr5e1\evbe7000p.h **** /*===========================================================================*/
1569:d:\project\9388\e1\2023_7_27\sr5e1_l9388_freeosek\modules\platform\board\include\sr5e1\evbe7000p.h **** /* Module inline functions.                                                  */
1570:d:\project\9388\e1\2023_7_27\sr5e1_l9388_freeosek\modules\platform\board\include\sr5e1\evbe7000p.h **** /*===========================================================================*/
1571:d:\project\9388\e1\2023_7_27\sr5e1_l9388_freeosek\modules\platform\board\include\sr5e1\evbe7000p.h **** 
1572:d:\project\9388\e1\2023_7_27\sr5e1_l9388_freeosek\modules\platform\board\include\sr5e1\evbe7000p.h **** __STATIC_INLINE void evbe7000p_init(void) {
 937              		.loc 2 1572 43
 938              		.cfi_startproc
 939              		@ args = 0, pretend = 0, frame = 0
 940              		@ frame_needed = 0, uses_anonymous_args = 0
 941 0000 08B5     		push	{r3, lr}
 942              		.cfi_def_cfa_offset 8
 943              		.cfi_offset 3, -8
 944              		.cfi_offset 14, -4
1573:d:\project\9388\e1\2023_7_27\sr5e1_l9388_freeosek\modules\platform\board\include\sr5e1\evbe7000p.h **** 
1574:d:\project\9388\e1\2023_7_27\sr5e1_l9388_freeosek\modules\platform\board\include\sr5e1\evbe7000p.h ****     /* PortA pin settings.*/
1575:d:\project\9388\e1\2023_7_27\sr5e1_l9388_freeosek\modules\platform\board\include\sr5e1\evbe7000p.h ****     gpio_set_pin_mode(TIM16_CH1, TIM16_CH1_CFG);
 945              		.loc 2 1575 5
 946 0002 42F28201 		movw	r1, #8322
 947 0006 0020     		movs	r0, #0
 948 0008 FFF7FEFF 		bl	gpio_set_pin_mode
1576:d:\project\9388\e1\2023_7_27\sr5e1_l9388_freeosek\modules\platform\board\include\sr5e1\evbe7000p.h ****     gpio_set_pin_mode(TIM16_CH1N, TIM16_CH1N_CFG);
 949              		.loc 2 1576 5
 950 000c 8221     		movs	r1, #130
 951 000e 0120     		movs	r0, #1
 952 0010 FFF7FEFF 		bl	gpio_set_pin_mode
1577:d:\project\9388\e1\2023_7_27\sr5e1_l9388_freeosek\modules\platform\board\include\sr5e1\evbe7000p.h ****     gpio_set_pin_mode(TIM16_BKIN, TIM16_BKIN_CFG);
 953              		.loc 2 1577 5
 954 0014 42F28201 		movw	r1, #8322
 955 0018 0220     		movs	r0, #2
 956 001a FFF7FEFF 		bl	gpio_set_pin_mode
1578:d:\project\9388\e1\2023_7_27\sr5e1_l9388_freeosek\modules\platform\board\include\sr5e1\evbe7000p.h ****     gpio_set_pin_mode(TIM8_ETR, TIM8_ETR_CFG);
 957              		.loc 2 1578 5
 958 001e 42F20221 		movw	r1, #8706
 959 0022 0320     		movs	r0, #3
 960 0024 FFF7FEFF 		bl	gpio_set_pin_mode
1579:d:\project\9388\e1\2023_7_27\sr5e1_l9388_freeosek\modules\platform\board\include\sr5e1\evbe7000p.h ****     gpio_set_pin_mode(CAN1_RX, CAN1_RX_CFG);
 961              		.loc 2 1579 5
 962 0028 42F21231 		movw	r1, #8978
 963 002c 0420     		movs	r0, #4
 964 002e FFF7FEFF 		bl	gpio_set_pin_mode
1580:d:\project\9388\e1\2023_7_27\sr5e1_l9388_freeosek\modules\platform\board\include\sr5e1\evbe7000p.h ****     gpio_set_pin_mode(CAN1_TX, CAN1_TX_CFG);
 965              		.loc 2 1580 5
 966 0032 40F21231 		movw	r1, #786
 967 0036 0520     		movs	r0, #5
 968 0038 FFF7FEFF 		bl	gpio_set_pin_mode
1581:d:\project\9388\e1\2023_7_27\sr5e1_l9388_freeosek\modules\platform\board\include\sr5e1\evbe7000p.h ****     gpio_set_pin_mode(I2C_SDA, I2C_SDA_CFG);
 969              		.loc 2 1581 5
 970 003c 42F20231 		movw	r1, #8962
 971 0040 0620     		movs	r0, #6
 972 0042 FFF7FEFF 		bl	gpio_set_pin_mode
1582:d:\project\9388\e1\2023_7_27\sr5e1_l9388_freeosek\modules\platform\board\include\sr5e1\evbe7000p.h ****     gpio_set_pin_mode(I2C_SCL, I2C_SCL_CFG);
 973              		.loc 2 1582 5
 974 0046 42F20231 		movw	r1, #8962
 975 004a 0720     		movs	r0, #7
 976 004c FFF7FEFF 		bl	gpio_set_pin_mode
1583:d:\project\9388\e1\2023_7_27\sr5e1_l9388_freeosek\modules\platform\board\include\sr5e1\evbe7000p.h ****     gpio_set_pin_mode(I2C_SMBA, I2C_SMBA_CFG);
 977              		.loc 2 1583 5
 978 0050 42F20231 		movw	r1, #8962
 979 0054 0820     		movs	r0, #8
 980 0056 FFF7FEFF 		bl	gpio_set_pin_mode
1584:d:\project\9388\e1\2023_7_27\sr5e1_l9388_freeosek\modules\platform\board\include\sr5e1\evbe7000p.h ****     gpio_set_pin_mode(CAN2_TX, CAN2_TX_CFG);
 981              		.loc 2 1584 5
 982 005a 40F21231 		movw	r1, #786
 983 005e 0B20     		movs	r0, #11
 984 0060 FFF7FEFF 		bl	gpio_set_pin_mode
1585:d:\project\9388\e1\2023_7_27\sr5e1_l9388_freeosek\modules\platform\board\include\sr5e1\evbe7000p.h ****     gpio_set_pin_mode(CAN2_RX, CAN2_RX_CFG);
 985              		.loc 2 1585 5
 986 0064 42F21231 		movw	r1, #8978
 987 0068 0C20     		movs	r0, #12
 988 006a FFF7FEFF 		bl	gpio_set_pin_mode
1586:d:\project\9388\e1\2023_7_27\sr5e1_l9388_freeosek\modules\platform\board\include\sr5e1\evbe7000p.h ****     gpio_set_pin_mode(SDADC_1_0_IO, SDADC_1_0_IO_CFG);
 989              		.loc 2 1586 5
 990 006e 42F20301 		movw	r1, #8195
 991 0072 0D20     		movs	r0, #13
 992 0074 FFF7FEFF 		bl	gpio_set_pin_mode
1587:d:\project\9388\e1\2023_7_27\sr5e1_l9388_freeosek\modules\platform\board\include\sr5e1\evbe7000p.h ****     gpio_set_pin_mode(SDADC_1_1_IO, SDADC_1_1_IO_CFG);
 993              		.loc 2 1587 5
 994 0078 42F20301 		movw	r1, #8195
 995 007c 0E20     		movs	r0, #14
 996 007e FFF7FEFF 		bl	gpio_set_pin_mode
1588:d:\project\9388\e1\2023_7_27\sr5e1_l9388_freeosek\modules\platform\board\include\sr5e1\evbe7000p.h ****     gpio_set_pin_mode(SDADC_2_0_IO, SDADC_2_0_IO_CFG);
 997              		.loc 2 1588 5
 998 0082 42F20301 		movw	r1, #8195
 999 0086 0F20     		movs	r0, #15
 1000 0088 FFF7FEFF 		bl	gpio_set_pin_mode
1589:d:\project\9388\e1\2023_7_27\sr5e1_l9388_freeosek\modules\platform\board\include\sr5e1\evbe7000p.h **** 
1590:d:\project\9388\e1\2023_7_27\sr5e1_l9388_freeosek\modules\platform\board\include\sr5e1\evbe7000p.h ****     /* PortB pin settings.*/
1591:d:\project\9388\e1\2023_7_27\sr5e1_l9388_freeosek\modules\platform\board\include\sr5e1\evbe7000p.h ****     gpio_set_pin_mode(SDADC_2_1_IO, SDADC_2_1_IO_CFG);
 1001              		.loc 2 1591 5
 1002 008c 42F20301 		movw	r1, #8195
 1003 0090 1020     		movs	r0, #16
 1004 0092 FFF7FEFF 		bl	gpio_set_pin_mode
1592:d:\project\9388\e1\2023_7_27\sr5e1_l9388_freeosek\modules\platform\board\include\sr5e1\evbe7000p.h ****     gpio_set_pin_mode(DAC_1_IO, DAC_1_IO_CFG);
 1005              		.loc 2 1592 5
 1006 0096 0321     		movs	r1, #3
 1007 0098 1120     		movs	r0, #17
 1008 009a FFF7FEFF 		bl	gpio_set_pin_mode
1593:d:\project\9388\e1\2023_7_27\sr5e1_l9388_freeosek\modules\platform\board\include\sr5e1\evbe7000p.h ****     gpio_set_pin_mode(SAR1_1_IO, SAR1_1_IO_CFG);
 1009              		.loc 2 1593 5
 1010 009e 42F20301 		movw	r1, #8195
 1011 00a2 1220     		movs	r0, #18
 1012 00a4 FFF7FEFF 		bl	gpio_set_pin_mode
1594:d:\project\9388\e1\2023_7_27\sr5e1_l9388_freeosek\modules\platform\board\include\sr5e1\evbe7000p.h ****     gpio_set_pin_mode(SAR1_2_IO, SAR1_2_IO_CFG);
 1013              		.loc 2 1594 5
 1014 00a8 42F20301 		movw	r1, #8195
 1015 00ac 1320     		movs	r0, #19
 1016 00ae FFF7FEFF 		bl	gpio_set_pin_mode
1595:d:\project\9388\e1\2023_7_27\sr5e1_l9388_freeosek\modules\platform\board\include\sr5e1\evbe7000p.h ****     gpio_set_pin_mode(SAR1_3_IO, SAR1_3_IO_CFG);
 1017              		.loc 2 1595 5
 1018 00b2 42F20301 		movw	r1, #8195
 1019 00b6 1420     		movs	r0, #20
 1020 00b8 FFF7FEFF 		bl	gpio_set_pin_mode
1596:d:\project\9388\e1\2023_7_27\sr5e1_l9388_freeosek\modules\platform\board\include\sr5e1\evbe7000p.h ****     gpio_set_pin_mode(SAR1_4_IO, SAR1_4_IO_CFG);
 1021              		.loc 2 1596 5
 1022 00bc 42F20301 		movw	r1, #8195
 1023 00c0 1520     		movs	r0, #21
 1024 00c2 FFF7FEFF 		bl	gpio_set_pin_mode
1597:d:\project\9388\e1\2023_7_27\sr5e1_l9388_freeosek\modules\platform\board\include\sr5e1\evbe7000p.h ****     gpio_set_pin_mode(SAR1_5_IO, SAR1_5_IO_CFG);
 1025              		.loc 2 1597 5
 1026 00c6 42F20301 		movw	r1, #8195
 1027 00ca 1620     		movs	r0, #22
 1028 00cc FFF7FEFF 		bl	gpio_set_pin_mode
1598:d:\project\9388\e1\2023_7_27\sr5e1_l9388_freeosek\modules\platform\board\include\sr5e1\evbe7000p.h ****     gpio_set_pin_mode(SAR2_1_IO, SAR2_1_IO_CFG);
 1029              		.loc 2 1598 5
 1030 00d0 42F20301 		movw	r1, #8195
 1031 00d4 1720     		movs	r0, #23
 1032 00d6 FFF7FEFF 		bl	gpio_set_pin_mode
1599:d:\project\9388\e1\2023_7_27\sr5e1_l9388_freeosek\modules\platform\board\include\sr5e1\evbe7000p.h ****     gpio_set_pin_mode(SAR2_2_IO, SAR2_2_IO_CFG);
 1033              		.loc 2 1599 5
 1034 00da 42F20301 		movw	r1, #8195
 1035 00de 1820     		movs	r0, #24
 1036 00e0 FFF7FEFF 		bl	gpio_set_pin_mode
1600:d:\project\9388\e1\2023_7_27\sr5e1_l9388_freeosek\modules\platform\board\include\sr5e1\evbe7000p.h ****     gpio_set_pin_mode(SAR2_3_IO, SAR2_3_IO_CFG);
 1037              		.loc 2 1600 5
 1038 00e4 42F20301 		movw	r1, #8195
 1039 00e8 1920     		movs	r0, #25
 1040 00ea FFF7FEFF 		bl	gpio_set_pin_mode
1601:d:\project\9388\e1\2023_7_27\sr5e1_l9388_freeosek\modules\platform\board\include\sr5e1\evbe7000p.h ****     gpio_set_pin_mode(SAR2_4_IO, SAR2_4_IO_CFG);
 1041              		.loc 2 1601 5
 1042 00ee 42F20301 		movw	r1, #8195
 1043 00f2 1A20     		movs	r0, #26
 1044 00f4 FFF7FEFF 		bl	gpio_set_pin_mode
1602:d:\project\9388\e1\2023_7_27\sr5e1_l9388_freeosek\modules\platform\board\include\sr5e1\evbe7000p.h ****     gpio_set_pin_mode(SAR2_5_IO, SAR2_5_IO_CFG);
 1045              		.loc 2 1602 5
 1046 00f8 42F20301 		movw	r1, #8195
 1047 00fc 1B20     		movs	r0, #27
 1048 00fe FFF7FEFF 		bl	gpio_set_pin_mode
1603:d:\project\9388\e1\2023_7_27\sr5e1_l9388_freeosek\modules\platform\board\include\sr5e1\evbe7000p.h ****     gpio_set_pin_mode(SAR3_1_IO, SAR3_1_IO_CFG);
 1049              		.loc 2 1603 5
 1050 0102 42F20301 		movw	r1, #8195
 1051 0106 1C20     		movs	r0, #28
 1052 0108 FFF7FEFF 		bl	gpio_set_pin_mode
1604:d:\project\9388\e1\2023_7_27\sr5e1_l9388_freeosek\modules\platform\board\include\sr5e1\evbe7000p.h ****     gpio_set_pin_mode(SAR3_2_IO, SAR3_2_IO_CFG);
 1053              		.loc 2 1604 5
 1054 010c 42F20301 		movw	r1, #8195
 1055 0110 1D20     		movs	r0, #29
 1056 0112 FFF7FEFF 		bl	gpio_set_pin_mode
1605:d:\project\9388\e1\2023_7_27\sr5e1_l9388_freeosek\modules\platform\board\include\sr5e1\evbe7000p.h ****     gpio_set_pin_mode(SAR3_3_IO, SAR3_3_IO_CFG);
 1057              		.loc 2 1605 5
 1058 0116 42F20301 		movw	r1, #8195
 1059 011a 1E20     		movs	r0, #30
 1060 011c FFF7FEFF 		bl	gpio_set_pin_mode
1606:d:\project\9388\e1\2023_7_27\sr5e1_l9388_freeosek\modules\platform\board\include\sr5e1\evbe7000p.h ****     gpio_set_pin_mode(SAR3_4_IO, SAR3_4_IO_CFG);
 1061              		.loc 2 1606 5
 1062 0120 42F20301 		movw	r1, #8195
 1063 0124 1F20     		movs	r0, #31
 1064 0126 FFF7FEFF 		bl	gpio_set_pin_mode
1607:d:\project\9388\e1\2023_7_27\sr5e1_l9388_freeosek\modules\platform\board\include\sr5e1\evbe7000p.h **** 
1608:d:\project\9388\e1\2023_7_27\sr5e1_l9388_freeosek\modules\platform\board\include\sr5e1\evbe7000p.h ****     /* PortC pin settings.*/
1609:d:\project\9388\e1\2023_7_27\sr5e1_l9388_freeosek\modules\platform\board\include\sr5e1\evbe7000p.h ****     gpio_set_pin_mode(SAR3_5_IO, SAR3_5_IO_CFG);
 1065              		.loc 2 1609 5
 1066 012a 42F20301 		movw	r1, #8195
 1067 012e 2020     		movs	r0, #32
 1068 0130 FFF7FEFF 		bl	gpio_set_pin_mode
1610:d:\project\9388\e1\2023_7_27\sr5e1_l9388_freeosek\modules\platform\board\include\sr5e1\evbe7000p.h ****     gpio_set_pin_mode(SAR_CAL_1, SAR_CAL_1_CFG);
 1069              		.loc 2 1610 5
 1070 0134 42F20301 		movw	r1, #8195
 1071 0138 2120     		movs	r0, #33
 1072 013a FFF7FEFF 		bl	gpio_set_pin_mode
1611:d:\project\9388\e1\2023_7_27\sr5e1_l9388_freeosek\modules\platform\board\include\sr5e1\evbe7000p.h ****     gpio_set_pin_mode(SAR_CAL_2, SAR_CAL_2_CFG);
 1073              		.loc 2 1611 5
 1074 013e 42F20301 		movw	r1, #8195
 1075 0142 2220     		movs	r0, #34
 1076 0144 FFF7FEFF 		bl	gpio_set_pin_mode
1612:d:\project\9388\e1\2023_7_27\sr5e1_l9388_freeosek\modules\platform\board\include\sr5e1\evbe7000p.h ****     gpio_set_pin_mode(SAR4_1_IO, SAR4_1_IO_CFG);
 1077              		.loc 2 1612 5
 1078 0148 42F20301 		movw	r1, #8195
 1079 014c 2320     		movs	r0, #35
 1080 014e FFF7FEFF 		bl	gpio_set_pin_mode
1613:d:\project\9388\e1\2023_7_27\sr5e1_l9388_freeosek\modules\platform\board\include\sr5e1\evbe7000p.h ****     gpio_set_pin_mode(SAR4_2_IO, SAR4_2_IO_CFG);
 1081              		.loc 2 1613 5
 1082 0152 42F20301 		movw	r1, #8195
 1083 0156 2420     		movs	r0, #36
 1084 0158 FFF7FEFF 		bl	gpio_set_pin_mode
1614:d:\project\9388\e1\2023_7_27\sr5e1_l9388_freeosek\modules\platform\board\include\sr5e1\evbe7000p.h ****     gpio_set_pin_mode(DAC_2_IO, DAC_2_IO_CFG);
 1085              		.loc 2 1614 5
 1086 015c 0321     		movs	r1, #3
 1087 015e 2520     		movs	r0, #37
 1088 0160 FFF7FEFF 		bl	gpio_set_pin_mode
1615:d:\project\9388\e1\2023_7_27\sr5e1_l9388_freeosek\modules\platform\board\include\sr5e1\evbe7000p.h ****     gpio_set_pin_mode(SAR4_3_IO, SAR4_3_IO_CFG);
 1089              		.loc 2 1615 5
 1090 0164 42F20301 		movw	r1, #8195
 1091 0168 2620     		movs	r0, #38
 1092 016a FFF7FEFF 		bl	gpio_set_pin_mode
1616:d:\project\9388\e1\2023_7_27\sr5e1_l9388_freeosek\modules\platform\board\include\sr5e1\evbe7000p.h ****     gpio_set_pin_mode(SAR4_4_IO, SAR4_4_IO_CFG);
 1093              		.loc 2 1616 5
 1094 016e 42F20301 		movw	r1, #8195
 1095 0172 2720     		movs	r0, #39
 1096 0174 FFF7FEFF 		bl	gpio_set_pin_mode
1617:d:\project\9388\e1\2023_7_27\sr5e1_l9388_freeosek\modules\platform\board\include\sr5e1\evbe7000p.h ****     gpio_set_pin_mode(SAR4_5_IO, SAR4_5_IO_CFG);
 1097              		.loc 2 1617 5
 1098 0178 42F20301 		movw	r1, #8195
 1099 017c 2820     		movs	r0, #40
 1100 017e FFF7FEFF 		bl	gpio_set_pin_mode
1618:d:\project\9388\e1\2023_7_27\sr5e1_l9388_freeosek\modules\platform\board\include\sr5e1\evbe7000p.h ****     gpio_set_pin_mode(SAR5_1_IO, SAR5_1_IO_CFG);
 1101              		.loc 2 1618 5
 1102 0182 42F20301 		movw	r1, #8195
 1103 0186 2920     		movs	r0, #41
 1104 0188 FFF7FEFF 		bl	gpio_set_pin_mode
1619:d:\project\9388\e1\2023_7_27\sr5e1_l9388_freeosek\modules\platform\board\include\sr5e1\evbe7000p.h ****     gpio_set_pin_mode(SAR5_2_IO, SAR5_2_IO_CFG);
 1105              		.loc 2 1619 5
 1106 018c 42F20301 		movw	r1, #8195
 1107 0190 2A20     		movs	r0, #42
 1108 0192 FFF7FEFF 		bl	gpio_set_pin_mode
1620:d:\project\9388\e1\2023_7_27\sr5e1_l9388_freeosek\modules\platform\board\include\sr5e1\evbe7000p.h ****     gpio_set_pin_mode(SAR5_3_IO, SAR5_3_IO_CFG);
 1109              		.loc 2 1620 5
 1110 0196 42F20301 		movw	r1, #8195
 1111 019a 2B20     		movs	r0, #43
 1112 019c FFF7FEFF 		bl	gpio_set_pin_mode
1621:d:\project\9388\e1\2023_7_27\sr5e1_l9388_freeosek\modules\platform\board\include\sr5e1\evbe7000p.h ****     gpio_set_pin_mode(SAR5_4_IO, SAR5_4_IO_CFG);
 1113              		.loc 2 1621 5
 1114 01a0 42F20301 		movw	r1, #8195
 1115 01a4 2C20     		movs	r0, #44
 1116 01a6 FFF7FEFF 		bl	gpio_set_pin_mode
1622:d:\project\9388\e1\2023_7_27\sr5e1_l9388_freeosek\modules\platform\board\include\sr5e1\evbe7000p.h ****     gpio_set_pin_mode(SAR5_5_IO, SAR5_5_IO_CFG);
 1117              		.loc 2 1622 5
 1118 01aa 4FF40051 		mov	r1, #8192
 1119 01ae 2D20     		movs	r0, #45
 1120 01b0 FFF7FEFF 		bl	gpio_set_pin_mode
1623:d:\project\9388\e1\2023_7_27\sr5e1_l9388_freeosek\modules\platform\board\include\sr5e1\evbe7000p.h ****     gpio_set_pin_mode(TIM1_CH1N, TIM1_CH1N_CFG);
 1121              		.loc 2 1623 5
 1122 01b4 40F20221 		movw	r1, #514
 1123 01b8 2E20     		movs	r0, #46
 1124 01ba FFF7FEFF 		bl	gpio_set_pin_mode
1624:d:\project\9388\e1\2023_7_27\sr5e1_l9388_freeosek\modules\platform\board\include\sr5e1\evbe7000p.h ****     gpio_set_pin_mode(TIM1_CH1, TIM1_CH1_CFG);
 1125              		.loc 2 1624 5
 1126 01be 42F20221 		movw	r1, #8706
 1127 01c2 2F20     		movs	r0, #47
 1128 01c4 FFF7FEFF 		bl	gpio_set_pin_mode
1625:d:\project\9388\e1\2023_7_27\sr5e1_l9388_freeosek\modules\platform\board\include\sr5e1\evbe7000p.h **** 
1626:d:\project\9388\e1\2023_7_27\sr5e1_l9388_freeosek\modules\platform\board\include\sr5e1\evbe7000p.h ****     /* PortD pin settings.*/
1627:d:\project\9388\e1\2023_7_27\sr5e1_l9388_freeosek\modules\platform\board\include\sr5e1\evbe7000p.h ****     gpio_set_pin_mode(TIM1_CH2N, TIM1_CH2N_CFG);
 1129              		.loc 2 1627 5
 1130 01c8 40F20221 		movw	r1, #514
 1131 01cc 3020     		movs	r0, #48
 1132 01ce FFF7FEFF 		bl	gpio_set_pin_mode
1628:d:\project\9388\e1\2023_7_27\sr5e1_l9388_freeosek\modules\platform\board\include\sr5e1\evbe7000p.h ****     gpio_set_pin_mode(TIM1_CH2, TIM1_CH2_CFG);
 1133              		.loc 2 1628 5
 1134 01d2 42F20221 		movw	r1, #8706
 1135 01d6 3120     		movs	r0, #49
 1136 01d8 FFF7FEFF 		bl	gpio_set_pin_mode
1629:d:\project\9388\e1\2023_7_27\sr5e1_l9388_freeosek\modules\platform\board\include\sr5e1\evbe7000p.h ****     gpio_set_pin_mode(TIM1_BKIN, TIM1_BKIN_CFG);
 1137              		.loc 2 1629 5
 1138 01dc 42F20221 		movw	r1, #8706
 1139 01e0 3220     		movs	r0, #50
 1140 01e2 FFF7FEFF 		bl	gpio_set_pin_mode
1630:d:\project\9388\e1\2023_7_27\sr5e1_l9388_freeosek\modules\platform\board\include\sr5e1\evbe7000p.h ****     gpio_set_pin_mode(TIM1_CH3N, TIM1_CH3N_CFG);
 1141              		.loc 2 1630 5
 1142 01e6 40F20221 		movw	r1, #514
 1143 01ea 3320     		movs	r0, #51
 1144 01ec FFF7FEFF 		bl	gpio_set_pin_mode
1631:d:\project\9388\e1\2023_7_27\sr5e1_l9388_freeosek\modules\platform\board\include\sr5e1\evbe7000p.h ****     gpio_set_pin_mode(TIM1_CH3, TIM1_CH3_CFG);
 1145              		.loc 2 1631 5
 1146 01f0 42F20221 		movw	r1, #8706
 1147 01f4 3420     		movs	r0, #52
 1148 01f6 FFF7FEFF 		bl	gpio_set_pin_mode
1632:d:\project\9388\e1\2023_7_27\sr5e1_l9388_freeosek\modules\platform\board\include\sr5e1\evbe7000p.h ****     gpio_set_pin_mode(TIM1_CH4N, TIM1_CH4N_CFG);
 1149              		.loc 2 1632 5
 1150 01fa 40F20221 		movw	r1, #514
 1151 01fe 3520     		movs	r0, #53
 1152 0200 FFF7FEFF 		bl	gpio_set_pin_mode
1633:d:\project\9388\e1\2023_7_27\sr5e1_l9388_freeosek\modules\platform\board\include\sr5e1\evbe7000p.h ****     gpio_set_pin_mode(TIM1_CH4, TIM1_CH4_CFG);
 1153              		.loc 2 1633 5
 1154 0204 42F20221 		movw	r1, #8706
 1155 0208 3620     		movs	r0, #54
 1156 020a FFF7FEFF 		bl	gpio_set_pin_mode
1634:d:\project\9388\e1\2023_7_27\sr5e1_l9388_freeosek\modules\platform\board\include\sr5e1\evbe7000p.h ****     gpio_set_pin_mode(HRTIM1_CHF2, HRTIM1_CHF2_CFG);
 1157              		.loc 2 1634 5
 1158 020e 4FF4C171 		mov	r1, #386
 1159 0212 3720     		movs	r0, #55
 1160 0214 FFF7FEFF 		bl	gpio_set_pin_mode
1635:d:\project\9388\e1\2023_7_27\sr5e1_l9388_freeosek\modules\platform\board\include\sr5e1\evbe7000p.h ****     gpio_set_pin_mode(HRTIM1_CHF1, HRTIM1_CHF1_CFG);
 1161              		.loc 2 1635 5
 1162 0218 4FF4C171 		mov	r1, #386
 1163 021c 3820     		movs	r0, #56
 1164 021e FFF7FEFF 		bl	gpio_set_pin_mode
1636:d:\project\9388\e1\2023_7_27\sr5e1_l9388_freeosek\modules\platform\board\include\sr5e1\evbe7000p.h ****     gpio_set_pin_mode(HRTIM1_EEV2, HRTIM1_EEV2_CFG);
 1165              		.loc 2 1636 5
 1166 0222 42F28211 		movw	r1, #8578
 1167 0226 3920     		movs	r0, #57
 1168 0228 FFF7FEFF 		bl	gpio_set_pin_mode
1637:d:\project\9388\e1\2023_7_27\sr5e1_l9388_freeosek\modules\platform\board\include\sr5e1\evbe7000p.h ****     gpio_set_pin_mode(HRTIM1_CHE2, HRTIM1_CHE2_CFG);
 1169              		.loc 2 1637 5
 1170 022c 4FF4C171 		mov	r1, #386
 1171 0230 3A20     		movs	r0, #58
 1172 0232 FFF7FEFF 		bl	gpio_set_pin_mode
1638:d:\project\9388\e1\2023_7_27\sr5e1_l9388_freeosek\modules\platform\board\include\sr5e1\evbe7000p.h ****     gpio_set_pin_mode(HRTIM1_CHE1, HRTIM1_CHE1_CFG);
 1173              		.loc 2 1638 5
 1174 0236 4FF4C171 		mov	r1, #386
 1175 023a 3B20     		movs	r0, #59
 1176 023c FFF7FEFF 		bl	gpio_set_pin_mode
1639:d:\project\9388\e1\2023_7_27\sr5e1_l9388_freeosek\modules\platform\board\include\sr5e1\evbe7000p.h ****     gpio_set_pin_mode(HRTIM1_CHD2, HRTIM1_CHD2_CFG);
 1177              		.loc 2 1639 5
 1178 0240 4FF4C171 		mov	r1, #386
 1179 0244 3C20     		movs	r0, #60
 1180 0246 FFF7FEFF 		bl	gpio_set_pin_mode
1640:d:\project\9388\e1\2023_7_27\sr5e1_l9388_freeosek\modules\platform\board\include\sr5e1\evbe7000p.h ****     gpio_set_pin_mode(HRTIM1_CHD1, HRTIM1_CHD1_CFG);
 1181              		.loc 2 1640 5
 1182 024a 4FF4C171 		mov	r1, #386
 1183 024e 3D20     		movs	r0, #61
 1184 0250 FFF7FEFF 		bl	gpio_set_pin_mode
1641:d:\project\9388\e1\2023_7_27\sr5e1_l9388_freeosek\modules\platform\board\include\sr5e1\evbe7000p.h ****     gpio_set_pin_mode(HRTIM1_CHC2, HRTIM1_CHC2_CFG);
 1185              		.loc 2 1641 5
 1186 0254 4FF4C171 		mov	r1, #386
 1187 0258 3E20     		movs	r0, #62
 1188 025a FFF7FEFF 		bl	gpio_set_pin_mode
1642:d:\project\9388\e1\2023_7_27\sr5e1_l9388_freeosek\modules\platform\board\include\sr5e1\evbe7000p.h ****     gpio_set_pin_mode(HRTIM1_CHC1, HRTIM1_CHC1_CFG);
 1189              		.loc 2 1642 5
 1190 025e 4FF4C171 		mov	r1, #386
 1191 0262 3F20     		movs	r0, #63
 1192 0264 FFF7FEFF 		bl	gpio_set_pin_mode
1643:d:\project\9388\e1\2023_7_27\sr5e1_l9388_freeosek\modules\platform\board\include\sr5e1\evbe7000p.h **** 
1644:d:\project\9388\e1\2023_7_27\sr5e1_l9388_freeosek\modules\platform\board\include\sr5e1\evbe7000p.h ****     /* PortE pin settings.*/
1645:d:\project\9388\e1\2023_7_27\sr5e1_l9388_freeosek\modules\platform\board\include\sr5e1\evbe7000p.h ****     /* GPIOE[0] is used to drive the USER_LED_1 */
1646:d:\project\9388\e1\2023_7_27\sr5e1_l9388_freeosek\modules\platform\board\include\sr5e1\evbe7000p.h ****     /* gpio_set_pin_mode(HRTIM1_EEV6, HRTIM1_EEV6_CFG); */
1647:d:\project\9388\e1\2023_7_27\sr5e1_l9388_freeosek\modules\platform\board\include\sr5e1\evbe7000p.h ****     gpio_set_pin_mode(USER_LED_1, USER_LED_1_CFG);
 1193              		.loc 2 1647 5
 1194 0268 1121     		movs	r1, #17
 1195 026a 4020     		movs	r0, #64
 1196 026c FFF7FEFF 		bl	gpio_set_pin_mode
1648:d:\project\9388\e1\2023_7_27\sr5e1_l9388_freeosek\modules\platform\board\include\sr5e1\evbe7000p.h ****     gpio_set_pin_mode(HRTIM1_CHB2, HRTIM1_CHB2_CFG); 
 1197              		.loc 2 1648 5
 1198 0270 4FF4C171 		mov	r1, #386
 1199 0274 4120     		movs	r0, #65
 1200 0276 FFF7FEFF 		bl	gpio_set_pin_mode
1649:d:\project\9388\e1\2023_7_27\sr5e1_l9388_freeosek\modules\platform\board\include\sr5e1\evbe7000p.h ****     gpio_set_pin_mode(HRTIM1_CHB1, HRTIM1_CHB1_CFG); 
 1201              		.loc 2 1649 5
 1202 027a 4FF4C171 		mov	r1, #386
 1203 027e 4220     		movs	r0, #66
 1204 0280 FFF7FEFF 		bl	gpio_set_pin_mode
1650:d:\project\9388\e1\2023_7_27\sr5e1_l9388_freeosek\modules\platform\board\include\sr5e1\evbe7000p.h ****     gpio_set_pin_mode(HRTIM1_CHA2, HRTIM1_CHA2_CFG); 
 1205              		.loc 2 1650 5
 1206 0284 4FF4C171 		mov	r1, #386
 1207 0288 4320     		movs	r0, #67
 1208 028a FFF7FEFF 		bl	gpio_set_pin_mode
1651:d:\project\9388\e1\2023_7_27\sr5e1_l9388_freeosek\modules\platform\board\include\sr5e1\evbe7000p.h ****     gpio_set_pin_mode(HRTIM1_CHA1, HRTIM1_CHA1_CFG); 
 1209              		.loc 2 1651 5
 1210 028e 4FF4C171 		mov	r1, #386
 1211 0292 4420     		movs	r0, #68
 1212 0294 FFF7FEFF 		bl	gpio_set_pin_mode
1652:d:\project\9388\e1\2023_7_27\sr5e1_l9388_freeosek\modules\platform\board\include\sr5e1\evbe7000p.h ****     gpio_set_pin_mode(SPI1_MOSI, SPI1_MOSI_CFG);
 1213              		.loc 2 1652 5
 1214 0298 42F29221 		movw	r1, #8850
 1215 029c 4520     		movs	r0, #69
 1216 029e FFF7FEFF 		bl	gpio_set_pin_mode
1653:d:\project\9388\e1\2023_7_27\sr5e1_l9388_freeosek\modules\platform\board\include\sr5e1\evbe7000p.h ****     gpio_set_pin_mode(SPI1_MISO, SPI1_MISO_CFG);
 1217              		.loc 2 1653 5
 1218 02a2 42F29221 		movw	r1, #8850
 1219 02a6 4620     		movs	r0, #70
 1220 02a8 FFF7FEFF 		bl	gpio_set_pin_mode
1654:d:\project\9388\e1\2023_7_27\sr5e1_l9388_freeosek\modules\platform\board\include\sr5e1\evbe7000p.h ****     gpio_set_pin_mode(SPI1_SCK, SPI1_SCK_CFG);
 1221              		.loc 2 1654 5
 1222 02ac 42F29221 		movw	r1, #8850
 1223 02b0 4720     		movs	r0, #71
 1224 02b2 FFF7FEFF 		bl	gpio_set_pin_mode
1655:d:\project\9388\e1\2023_7_27\sr5e1_l9388_freeosek\modules\platform\board\include\sr5e1\evbe7000p.h ****     gpio_set_pin_mode(SPI1_NSS, SPI1_NSS_CFG);
 1225              		.loc 2 1655 5
 1226 02b6 42F29221 		movw	r1, #8850
 1227 02ba 4820     		movs	r0, #72
 1228 02bc FFF7FEFF 		bl	gpio_set_pin_mode
1656:d:\project\9388\e1\2023_7_27\sr5e1_l9388_freeosek\modules\platform\board\include\sr5e1\evbe7000p.h ****     gpio_set_pin_mode(HRTIM2_CHA1, HRTIM2_CHA1_CFG);
 1229              		.loc 2 1656 5
 1230 02c0 4FF4C171 		mov	r1, #386
 1231 02c4 4920     		movs	r0, #73
 1232 02c6 FFF7FEFF 		bl	gpio_set_pin_mode
1657:d:\project\9388\e1\2023_7_27\sr5e1_l9388_freeosek\modules\platform\board\include\sr5e1\evbe7000p.h ****     gpio_set_pin_mode(HRTIM2_CHA2, HRTIM2_CHA2_CFG);
 1233              		.loc 2 1657 5
 1234 02ca 4FF4C171 		mov	r1, #386
 1235 02ce 4A20     		movs	r0, #74
 1236 02d0 FFF7FEFF 		bl	gpio_set_pin_mode
1658:d:\project\9388\e1\2023_7_27\sr5e1_l9388_freeosek\modules\platform\board\include\sr5e1\evbe7000p.h ****     gpio_set_pin_mode(HRTIM2_CHB1, HRTIM2_CHB1_CFG);
 1237              		.loc 2 1658 5
 1238 02d4 4FF4C171 		mov	r1, #386
 1239 02d8 4B20     		movs	r0, #75
 1240 02da FFF7FEFF 		bl	gpio_set_pin_mode
1659:d:\project\9388\e1\2023_7_27\sr5e1_l9388_freeosek\modules\platform\board\include\sr5e1\evbe7000p.h ****     gpio_set_pin_mode(HRTIM2_CHB2, HRTIM2_CHB2_CFG);
 1241              		.loc 2 1659 5
 1242 02de 4FF4C171 		mov	r1, #386
 1243 02e2 4C20     		movs	r0, #76
 1244 02e4 FFF7FEFF 		bl	gpio_set_pin_mode
1660:d:\project\9388\e1\2023_7_27\sr5e1_l9388_freeosek\modules\platform\board\include\sr5e1\evbe7000p.h ****     /* GPIOE[13] is used to drive the USER_LED_0 */
1661:d:\project\9388\e1\2023_7_27\sr5e1_l9388_freeosek\modules\platform\board\include\sr5e1\evbe7000p.h ****     /* gpio_set_pin_mode(HRTIM2_EEV6, HRTIM2_EEV6_CFG); */
1662:d:\project\9388\e1\2023_7_27\sr5e1_l9388_freeosek\modules\platform\board\include\sr5e1\evbe7000p.h ****     gpio_set_pin_mode(USER_LED_0, USER_LED_0_CFG);
 1245              		.loc 2 1662 5
 1246 02e8 1121     		movs	r1, #17
 1247 02ea 4D20     		movs	r0, #77
 1248 02ec FFF7FEFF 		bl	gpio_set_pin_mode
1663:d:\project\9388\e1\2023_7_27\sr5e1_l9388_freeosek\modules\platform\board\include\sr5e1\evbe7000p.h ****     gpio_set_pin_mode(HRTIM2_CHC1, HRTIM2_CHC1_CFG);
 1249              		.loc 2 1663 5
 1250 02f0 4FF4C171 		mov	r1, #386
 1251 02f4 4E20     		movs	r0, #78
 1252 02f6 FFF7FEFF 		bl	gpio_set_pin_mode
1664:d:\project\9388\e1\2023_7_27\sr5e1_l9388_freeosek\modules\platform\board\include\sr5e1\evbe7000p.h ****     gpio_set_pin_mode(HRTIM2_CHC2, HRTIM2_CHC2_CFG);
 1253              		.loc 2 1664 5
 1254 02fa 4FF4C171 		mov	r1, #386
 1255 02fe 4F20     		movs	r0, #79
 1256 0300 FFF7FEFF 		bl	gpio_set_pin_mode
1665:d:\project\9388\e1\2023_7_27\sr5e1_l9388_freeosek\modules\platform\board\include\sr5e1\evbe7000p.h **** 
1666:d:\project\9388\e1\2023_7_27\sr5e1_l9388_freeosek\modules\platform\board\include\sr5e1\evbe7000p.h ****     /* PortF pin settings.*/
1667:d:\project\9388\e1\2023_7_27\sr5e1_l9388_freeosek\modules\platform\board\include\sr5e1\evbe7000p.h ****     gpio_set_pin_mode(HRTIM2_CHD1, HRTIM2_CHD1_CFG);
 1257              		.loc 2 1667 5
 1258 0304 4FF4C171 		mov	r1, #386
 1259 0308 5020     		movs	r0, #80
 1260 030a FFF7FEFF 		bl	gpio_set_pin_mode
1668:d:\project\9388\e1\2023_7_27\sr5e1_l9388_freeosek\modules\platform\board\include\sr5e1\evbe7000p.h ****     gpio_set_pin_mode(HRTIM2_CHD2, HRTIM2_CHD2_CFG);
 1261              		.loc 2 1668 5
 1262 030e 4FF4C171 		mov	r1, #386
 1263 0312 5120     		movs	r0, #81
 1264 0314 FFF7FEFF 		bl	gpio_set_pin_mode
1669:d:\project\9388\e1\2023_7_27\sr5e1_l9388_freeosek\modules\platform\board\include\sr5e1\evbe7000p.h ****     gpio_set_pin_mode(HRTIM2_CHE1, HRTIM2_CHE1_CFG);
 1265              		.loc 2 1669 5
 1266 0318 4FF4C171 		mov	r1, #386
 1267 031c 5220     		movs	r0, #82
 1268 031e FFF7FEFF 		bl	gpio_set_pin_mode
1670:d:\project\9388\e1\2023_7_27\sr5e1_l9388_freeosek\modules\platform\board\include\sr5e1\evbe7000p.h ****     gpio_set_pin_mode(HRTIM2_CHE2, HRTIM2_CHE2_CFG);
 1269              		.loc 2 1670 5
 1270 0322 4FF4C171 		mov	r1, #386
 1271 0326 5320     		movs	r0, #83
 1272 0328 FFF7FEFF 		bl	gpio_set_pin_mode
1671:d:\project\9388\e1\2023_7_27\sr5e1_l9388_freeosek\modules\platform\board\include\sr5e1\evbe7000p.h ****     gpio_set_pin_mode(HRTIM2_CHF1, HRTIM2_CHF1_CFG);
 1273              		.loc 2 1671 5
 1274 032c 4FF4C171 		mov	r1, #386
 1275 0330 5420     		movs	r0, #84
 1276 0332 FFF7FEFF 		bl	gpio_set_pin_mode
1672:d:\project\9388\e1\2023_7_27\sr5e1_l9388_freeosek\modules\platform\board\include\sr5e1\evbe7000p.h ****     gpio_set_pin_mode(HRTIM2_CHF2, HRTIM2_CHF2_CFG);
 1277              		.loc 2 1672 5
 1278 0336 4FF4C171 		mov	r1, #386
 1279 033a 5520     		movs	r0, #85
 1280 033c FFF7FEFF 		bl	gpio_set_pin_mode
1673:d:\project\9388\e1\2023_7_27\sr5e1_l9388_freeosek\modules\platform\board\include\sr5e1\evbe7000p.h ****     gpio_set_pin_mode(HRTIM2_EEV2, HRTIM2_EEV2_CFG);
 1281              		.loc 2 1673 5
 1282 0340 42F28211 		movw	r1, #8578
 1283 0344 5620     		movs	r0, #86
 1284 0346 FFF7FEFF 		bl	gpio_set_pin_mode
1674:d:\project\9388\e1\2023_7_27\sr5e1_l9388_freeosek\modules\platform\board\include\sr5e1\evbe7000p.h **** 
1675:d:\project\9388\e1\2023_7_27\sr5e1_l9388_freeosek\modules\platform\board\include\sr5e1\evbe7000p.h ****     /* PortG pin settings.*/
1676:d:\project\9388\e1\2023_7_27\sr5e1_l9388_freeosek\modules\platform\board\include\sr5e1\evbe7000p.h ****     gpio_set_pin_mode(SPI4_SCK, SPI4_SCK_CFG);
 1285              		.loc 2 1676 5
 1286 034a 42F29221 		movw	r1, #8850
 1287 034e 6520     		movs	r0, #101
 1288 0350 FFF7FEFF 		bl	gpio_set_pin_mode
1677:d:\project\9388\e1\2023_7_27\sr5e1_l9388_freeosek\modules\platform\board\include\sr5e1\evbe7000p.h ****     gpio_set_pin_mode(SPI4_MISO, SPI4_MISO_CFG);
 1289              		.loc 2 1677 5
 1290 0354 42F29221 		movw	r1, #8850
 1291 0358 6620     		movs	r0, #102
 1292 035a FFF7FEFF 		bl	gpio_set_pin_mode
1678:d:\project\9388\e1\2023_7_27\sr5e1_l9388_freeosek\modules\platform\board\include\sr5e1\evbe7000p.h ****     gpio_set_pin_mode(SPI4_MOSI, SPI4_MOSI_CFG);
 1293              		.loc 2 1678 5
 1294 035e 42F29221 		movw	r1, #8850
 1295 0362 6720     		movs	r0, #103
 1296 0364 FFF7FEFF 		bl	gpio_set_pin_mode
1679:d:\project\9388\e1\2023_7_27\sr5e1_l9388_freeosek\modules\platform\board\include\sr5e1\evbe7000p.h ****     gpio_set_pin_mode(SPI4_NSS, SPI4_NSS_CFG);
 1297              		.loc 2 1679 5
 1298 0368 42F29221 		movw	r1, #8850
 1299 036c 6820     		movs	r0, #104
 1300 036e FFF7FEFF 		bl	gpio_set_pin_mode
1680:d:\project\9388\e1\2023_7_27\sr5e1_l9388_freeosek\modules\platform\board\include\sr5e1\evbe7000p.h ****     gpio_set_pin_mode(SPI2_MISO, SPI2_MISO_CFG);
 1301              		.loc 2 1680 5
 1302 0372 42F29221 		movw	r1, #8850
 1303 0376 6920     		movs	r0, #105
 1304 0378 FFF7FEFF 		bl	gpio_set_pin_mode
1681:d:\project\9388\e1\2023_7_27\sr5e1_l9388_freeosek\modules\platform\board\include\sr5e1\evbe7000p.h ****     gpio_set_pin_mode(SPI2_MOSI, SPI2_MOSI_CFG);
 1305              		.loc 2 1681 5
 1306 037c 42F29221 		movw	r1, #8850
 1307 0380 6A20     		movs	r0, #106
 1308 0382 FFF7FEFF 		bl	gpio_set_pin_mode
1682:d:\project\9388\e1\2023_7_27\sr5e1_l9388_freeosek\modules\platform\board\include\sr5e1\evbe7000p.h ****     gpio_set_pin_mode(SPI2_SCK, SPI2_SCK_CFG);
 1309              		.loc 2 1682 5
 1310 0386 42F29221 		movw	r1, #8850
 1311 038a 6B20     		movs	r0, #107
 1312 038c FFF7FEFF 		bl	gpio_set_pin_mode
1683:d:\project\9388\e1\2023_7_27\sr5e1_l9388_freeosek\modules\platform\board\include\sr5e1\evbe7000p.h ****     gpio_set_pin_mode(SPI2_NSS, SPI2_NSS_CFG);
 1313              		.loc 2 1683 5
 1314 0390 42F29221 		movw	r1, #8850
 1315 0394 6C20     		movs	r0, #108
 1316 0396 FFF7FEFF 		bl	gpio_set_pin_mode
1684:d:\project\9388\e1\2023_7_27\sr5e1_l9388_freeosek\modules\platform\board\include\sr5e1\evbe7000p.h ****     gpio_set_pin_mode(TIM3_ETR, TIM3_ETR_CFG);
 1317              		.loc 2 1684 5
 1318 039a 42F20211 		movw	r1, #8450
 1319 039e 6D20     		movs	r0, #109
 1320 03a0 FFF7FEFF 		bl	gpio_set_pin_mode
1685:d:\project\9388\e1\2023_7_27\sr5e1_l9388_freeosek\modules\platform\board\include\sr5e1\evbe7000p.h ****     gpio_set_pin_mode(TIM3_CH1, TIM3_CH1_CFG);
 1321              		.loc 2 1685 5
 1322 03a4 42F20211 		movw	r1, #8450
 1323 03a8 6E20     		movs	r0, #110
 1324 03aa FFF7FEFF 		bl	gpio_set_pin_mode
1686:d:\project\9388\e1\2023_7_27\sr5e1_l9388_freeosek\modules\platform\board\include\sr5e1\evbe7000p.h ****     gpio_set_pin_mode(TIM3_CH2, TIM3_CH2_CFG);
 1325              		.loc 2 1686 5
 1326 03ae 42F20211 		movw	r1, #8450
 1327 03b2 6F20     		movs	r0, #111
 1328 03b4 FFF7FEFF 		bl	gpio_set_pin_mode
1687:d:\project\9388\e1\2023_7_27\sr5e1_l9388_freeosek\modules\platform\board\include\sr5e1\evbe7000p.h **** 
1688:d:\project\9388\e1\2023_7_27\sr5e1_l9388_freeosek\modules\platform\board\include\sr5e1\evbe7000p.h ****     /* PortH pin settings. */
1689:d:\project\9388\e1\2023_7_27\sr5e1_l9388_freeosek\modules\platform\board\include\sr5e1\evbe7000p.h ****     gpio_set_pin_mode(TIM3_CH3, TIM3_CH3_CFG);
 1329              		.loc 2 1689 5
 1330 03b8 42F20211 		movw	r1, #8450
 1331 03bc 7020     		movs	r0, #112
 1332 03be FFF7FEFF 		bl	gpio_set_pin_mode
1690:d:\project\9388\e1\2023_7_27\sr5e1_l9388_freeosek\modules\platform\board\include\sr5e1\evbe7000p.h ****     gpio_set_pin_mode(TIM3_CH4, TIM3_CH4_CFG);
 1333              		.loc 2 1690 5
 1334 03c2 42F20211 		movw	r1, #8450
 1335 03c6 7120     		movs	r0, #113
 1336 03c8 FFF7FEFF 		bl	gpio_set_pin_mode
1691:d:\project\9388\e1\2023_7_27\sr5e1_l9388_freeosek\modules\platform\board\include\sr5e1\evbe7000p.h ****     gpio_set_pin_mode(TIM2_CH1, TIM2_CH1_CFG);
 1337              		.loc 2 1691 5
 1338 03cc 42F28201 		movw	r1, #8322
 1339 03d0 7220     		movs	r0, #114
 1340 03d2 FFF7FEFF 		bl	gpio_set_pin_mode
1692:d:\project\9388\e1\2023_7_27\sr5e1_l9388_freeosek\modules\platform\board\include\sr5e1\evbe7000p.h ****     gpio_set_pin_mode(TIM2_CH2, TIM2_CH2_CFG);
 1341              		.loc 2 1692 5
 1342 03d6 42F28201 		movw	r1, #8322
 1343 03da 7320     		movs	r0, #115
 1344 03dc FFF7FEFF 		bl	gpio_set_pin_mode
1693:d:\project\9388\e1\2023_7_27\sr5e1_l9388_freeosek\modules\platform\board\include\sr5e1\evbe7000p.h ****     gpio_set_pin_mode(TIM2_CH3, TIM2_CH3_CFG);
 1345              		.loc 2 1693 5
 1346 03e0 42F28201 		movw	r1, #8322
 1347 03e4 7420     		movs	r0, #116
 1348 03e6 FFF7FEFF 		bl	gpio_set_pin_mode
1694:d:\project\9388\e1\2023_7_27\sr5e1_l9388_freeosek\modules\platform\board\include\sr5e1\evbe7000p.h ****     gpio_set_pin_mode(TIM2_CH4, TIM2_CH4_CFG);
 1349              		.loc 2 1694 5
 1350 03ea 42F28201 		movw	r1, #8322
 1351 03ee 7520     		movs	r0, #117
 1352 03f0 FFF7FEFF 		bl	gpio_set_pin_mode
1695:d:\project\9388\e1\2023_7_27\sr5e1_l9388_freeosek\modules\platform\board\include\sr5e1\evbe7000p.h ****     gpio_set_pin_mode(TIM15_CH1, TIM15_CH1_CFG);
 1353              		.loc 2 1695 5
 1354 03f4 42F28201 		movw	r1, #8322
 1355 03f8 7620     		movs	r0, #118
 1356 03fa FFF7FEFF 		bl	gpio_set_pin_mode
1696:d:\project\9388\e1\2023_7_27\sr5e1_l9388_freeosek\modules\platform\board\include\sr5e1\evbe7000p.h ****     gpio_set_pin_mode(TIM15_CH1N, TIM15_CH1N_CFG);
 1357              		.loc 2 1696 5
 1358 03fe 8221     		movs	r1, #130
 1359 0400 7720     		movs	r0, #119
 1360 0402 FFF7FEFF 		bl	gpio_set_pin_mode
1697:d:\project\9388\e1\2023_7_27\sr5e1_l9388_freeosek\modules\platform\board\include\sr5e1\evbe7000p.h ****     gpio_set_pin_mode(TIM15_CH2, TIM15_CH2_CFG);
 1361              		.loc 2 1697 5
 1362 0406 42F28201 		movw	r1, #8322
 1363 040a 7820     		movs	r0, #120
 1364 040c FFF7FEFF 		bl	gpio_set_pin_mode
1698:d:\project\9388\e1\2023_7_27\sr5e1_l9388_freeosek\modules\platform\board\include\sr5e1\evbe7000p.h ****     gpio_set_pin_mode(TIM15_BKIN, TIM15_BKIN_CFG);
 1365              		.loc 2 1698 5
 1366 0410 42F28201 		movw	r1, #8322
 1367 0414 7920     		movs	r0, #121
 1368 0416 FFF7FEFF 		bl	gpio_set_pin_mode
1699:d:\project\9388\e1\2023_7_27\sr5e1_l9388_freeosek\modules\platform\board\include\sr5e1\evbe7000p.h ****     gpio_set_pin_mode(CAN3_TX, CAN3_TX_CFG);
 1369              		.loc 2 1699 5
 1370 041a 40F21231 		movw	r1, #786
 1371 041e 7A20     		movs	r0, #122
 1372 0420 FFF7FEFF 		bl	gpio_set_pin_mode
1700:d:\project\9388\e1\2023_7_27\sr5e1_l9388_freeosek\modules\platform\board\include\sr5e1\evbe7000p.h ****     gpio_set_pin_mode(CAN3_RX, CAN3_RX_CFG);
 1373              		.loc 2 1700 5
 1374 0424 42F21231 		movw	r1, #8978
 1375 0428 7B20     		movs	r0, #123
 1376 042a FFF7FEFF 		bl	gpio_set_pin_mode
1701:d:\project\9388\e1\2023_7_27\sr5e1_l9388_freeosek\modules\platform\board\include\sr5e1\evbe7000p.h ****     gpio_set_pin_mode(CAN4_TX, CAN4_TX_CFG);
 1377              		.loc 2 1701 5
 1378 042e 40F21231 		movw	r1, #786
 1379 0432 7C20     		movs	r0, #124
 1380 0434 FFF7FEFF 		bl	gpio_set_pin_mode
1702:d:\project\9388\e1\2023_7_27\sr5e1_l9388_freeosek\modules\platform\board\include\sr5e1\evbe7000p.h ****     gpio_set_pin_mode(CAN4_RX, CAN4_RX_CFG);
 1381              		.loc 2 1702 5
 1382 0438 42F21231 		movw	r1, #8978
 1383 043c 7D20     		movs	r0, #125
 1384 043e FFF7FEFF 		bl	gpio_set_pin_mode
1703:d:\project\9388\e1\2023_7_27\sr5e1_l9388_freeosek\modules\platform\board\include\sr5e1\evbe7000p.h ****     gpio_set_pin_mode(UART3_RX, UART3_RX_CFG);
 1385              		.loc 2 1703 5
 1386 0442 42F28231 		movw	r1, #9090
 1387 0446 7E20     		movs	r0, #126
 1388 0448 FFF7FEFF 		bl	gpio_set_pin_mode
1704:d:\project\9388\e1\2023_7_27\sr5e1_l9388_freeosek\modules\platform\board\include\sr5e1\evbe7000p.h ****     gpio_set_pin_mode(UART3_TX, UART3_TX_CFG);
 1389              		.loc 2 1704 5
 1390 044c 40F28231 		movw	r1, #898
 1391 0450 7F20     		movs	r0, #127
 1392 0452 FFF7FEFF 		bl	gpio_set_pin_mode
1705:d:\project\9388\e1\2023_7_27\sr5e1_l9388_freeosek\modules\platform\board\include\sr5e1\evbe7000p.h **** 
1706:d:\project\9388\e1\2023_7_27\sr5e1_l9388_freeosek\modules\platform\board\include\sr5e1\evbe7000p.h ****     /* PortI pin settings.*/
1707:d:\project\9388\e1\2023_7_27\sr5e1_l9388_freeosek\modules\platform\board\include\sr5e1\evbe7000p.h ****     gpio_set_pin_mode(TIM8_CH1, TIM8_CH1_CFG);
 1393              		.loc 2 1707 5
 1394 0456 42F20221 		movw	r1, #8706
 1395 045a 8020     		movs	r0, #128
 1396 045c FFF7FEFF 		bl	gpio_set_pin_mode
1708:d:\project\9388\e1\2023_7_27\sr5e1_l9388_freeosek\modules\platform\board\include\sr5e1\evbe7000p.h ****     gpio_set_pin_mode(TIM8_CH1N, TIM8_CH1N_CFG);
 1397              		.loc 2 1708 5
 1398 0460 40F20221 		movw	r1, #514
 1399 0464 8120     		movs	r0, #129
 1400 0466 FFF7FEFF 		bl	gpio_set_pin_mode
1709:d:\project\9388\e1\2023_7_27\sr5e1_l9388_freeosek\modules\platform\board\include\sr5e1\evbe7000p.h ****     gpio_set_pin_mode(TIM8_CH2, TIM8_CH2_CFG);
 1401              		.loc 2 1709 5
 1402 046a 42F20221 		movw	r1, #8706
 1403 046e 8220     		movs	r0, #130
 1404 0470 FFF7FEFF 		bl	gpio_set_pin_mode
1710:d:\project\9388\e1\2023_7_27\sr5e1_l9388_freeosek\modules\platform\board\include\sr5e1\evbe7000p.h ****     gpio_set_pin_mode(TIM8_CH2N, TIM8_CH2N_CFG);
 1405              		.loc 2 1710 5
 1406 0474 40F20221 		movw	r1, #514
 1407 0478 8320     		movs	r0, #131
 1408 047a FFF7FEFF 		bl	gpio_set_pin_mode
1711:d:\project\9388\e1\2023_7_27\sr5e1_l9388_freeosek\modules\platform\board\include\sr5e1\evbe7000p.h ****     gpio_set_pin_mode(TIM8_CH3, TIM8_CH3_CFG);
 1409              		.loc 2 1711 5
 1410 047e 42F20221 		movw	r1, #8706
 1411 0482 8420     		movs	r0, #132
 1412 0484 FFF7FEFF 		bl	gpio_set_pin_mode
1712:d:\project\9388\e1\2023_7_27\sr5e1_l9388_freeosek\modules\platform\board\include\sr5e1\evbe7000p.h ****     gpio_set_pin_mode(TIM8_CH3N, TIM8_CH3N_CFG);
 1413              		.loc 2 1712 5
 1414 0488 40F20221 		movw	r1, #514
 1415 048c 8520     		movs	r0, #133
 1416 048e FFF7FEFF 		bl	gpio_set_pin_mode
1713:d:\project\9388\e1\2023_7_27\sr5e1_l9388_freeosek\modules\platform\board\include\sr5e1\evbe7000p.h ****     gpio_set_pin_mode(TIM8_CH4, TIM8_CH4_CFG);
 1417              		.loc 2 1713 5
 1418 0492 42F20221 		movw	r1, #8706
 1419 0496 8620     		movs	r0, #134
 1420 0498 FFF7FEFF 		bl	gpio_set_pin_mode
1714:d:\project\9388\e1\2023_7_27\sr5e1_l9388_freeosek\modules\platform\board\include\sr5e1\evbe7000p.h ****     gpio_set_pin_mode(TIM8_CH4N, TIM8_CH4N_CFG);
 1421              		.loc 2 1714 5
 1422 049c 40F20221 		movw	r1, #514
 1423 04a0 8720     		movs	r0, #135
 1424 04a2 FFF7FEFF 		bl	gpio_set_pin_mode
1715:d:\project\9388\e1\2023_7_27\sr5e1_l9388_freeosek\modules\platform\board\include\sr5e1\evbe7000p.h ****     gpio_set_pin_mode(TIM8_BKIN, TIM8_BKIN_CFG);
 1425              		.loc 2 1715 5
 1426 04a6 42F20221 		movw	r1, #8706
 1427 04aa 8820     		movs	r0, #136
 1428 04ac FFF7FEFF 		bl	gpio_set_pin_mode
1716:d:\project\9388\e1\2023_7_27\sr5e1_l9388_freeosek\modules\platform\board\include\sr5e1\evbe7000p.h ****     gpio_set_pin_mode(TIM8_BKIN2, TIM8_BKIN2_CFG);
 1429              		.loc 2 1716 5
 1430 04b0 42F20221 		movw	r1, #8706
 1431 04b4 8920     		movs	r0, #137
 1432 04b6 FFF7FEFF 		bl	gpio_set_pin_mode
1717:d:\project\9388\e1\2023_7_27\sr5e1_l9388_freeosek\modules\platform\board\include\sr5e1\evbe7000p.h **** }
 1433              		.loc 2 1717 1
 1434 04ba 00BF     		nop
 1435 04bc 08BD     		pop	{r3, pc}
 1436              		.cfi_endproc
 1437              	.LFE432:
 1439 04be 00BF     		.section	.text.test_env_init,"ax",%progbits
 1440              		.align	1
 1441              		.p2align 4,,15
 1442              		.global	test_env_init
 1443              		.syntax unified
 1444              		.thumb
 1445              		.thumb_func
 1447              	test_env_init:
 1448              	.LFB433:
 1449              		.file 3 "common/src/test_env.c"
   1:common/src/test_env.c **** /****************************************************************************
   2:common/src/test_env.c ****  *
   3:common/src/test_env.c ****  * Copyright (c) 2022 STMicroelectronics - All Rights Reserved
   4:common/src/test_env.c ****  *
   5:common/src/test_env.c ****  * License terms: STMicroelectronics Proprietary in accordance with licensing
   6:common/src/test_env.c ****  * terms SLA0098 at www.st.com.
   7:common/src/test_env.c ****  *
   8:common/src/test_env.c ****  * THIS SOFTWARE IS DISTRIBUTED "AS IS," AND ALL WARRANTIES ARE DISCLAIMED,
   9:common/src/test_env.c ****  * INCLUDING MERCHANTABILITY AND FITNESS FOR A PARTICULAR PURPOSE.
  10:common/src/test_env.c ****  *
  11:common/src/test_env.c ****  *****************************************************************************/
  12:common/src/test_env.c **** /**
  13:common/src/test_env.c ****  * @file    test_env.c
  14:common/src/test_env.c ****  * @brief   Common test environment code.
  15:common/src/test_env.c ****  *
  16:common/src/test_env.c ****  * @addtogroup PROJECTS
  17:common/src/test_env.c ****  * @addtogroup SDKTESTS
  18:common/src/test_env.c ****  * @ingroup PROJECTS
  19:common/src/test_env.c ****  * @addtogroup COMMON
  20:common/src/test_env.c ****  * @ingroup SDKTESTS
  21:common/src/test_env.c ****  * @{
  22:common/src/test_env.c ****  */
  23:common/src/test_env.c **** 
  24:common/src/test_env.c **** #include <test_env.h>
  25:common/src/test_env.c **** 
  26:common/src/test_env.c **** /*===========================================================================*/
  27:common/src/test_env.c **** /* Driver configuration.                                                     */
  28:common/src/test_env.c **** /*===========================================================================*/
  29:common/src/test_env.c **** 
  30:common/src/test_env.c **** /*===========================================================================*/
  31:common/src/test_env.c **** /* Driver forward declarations.                                              */
  32:common/src/test_env.c **** /*===========================================================================*/
  33:common/src/test_env.c **** 
  34:common/src/test_env.c **** /*===========================================================================*/
  35:common/src/test_env.c **** /* Driver defines.                                                           */
  36:common/src/test_env.c **** /*===========================================================================*/
  37:common/src/test_env.c **** 
  38:common/src/test_env.c **** /*===========================================================================*/
  39:common/src/test_env.c **** /* Driver local variables and types.                                         */
  40:common/src/test_env.c **** /*===========================================================================*/
  41:common/src/test_env.c **** 
  42:common/src/test_env.c **** /*===========================================================================*/
  43:common/src/test_env.c **** /* Driver exported variables.                                                */
  44:common/src/test_env.c **** /*===========================================================================*/
  45:common/src/test_env.c **** 
  46:common/src/test_env.c **** /*===========================================================================*/
  47:common/src/test_env.c **** /* Driver local functions.                                                   */
  48:common/src/test_env.c **** /*===========================================================================*/
  49:common/src/test_env.c **** 
  50:common/src/test_env.c **** /*===========================================================================*/
  51:common/src/test_env.c **** /* Driver interrupt handlers.                                                */
  52:common/src/test_env.c **** /*===========================================================================*/
  53:common/src/test_env.c **** 
  54:common/src/test_env.c **** /*===========================================================================*/
  55:common/src/test_env.c **** /* Driver exported functions.                                                */
  56:common/src/test_env.c **** /*===========================================================================*/
  57:common/src/test_env.c **** 
  58:common/src/test_env.c **** /**
  59:common/src/test_env.c ****  * @brief   Initializes test environment
  60:common/src/test_env.c ****  *
  61:common/src/test_env.c ****  * @init
  62:common/src/test_env.c ****  * @par Description
  63:common/src/test_env.c ****  * @details Initializes the test environment.
  64:common/src/test_env.c ****  * @param   test_init   Bit-mask of modules to be initialized
  65:common/src/test_env.c ****  * @sa gst_start
  66:common/src/test_env.c ****  * @sa gst_stop
  67:common/src/test_env.c ****  */
  68:common/src/test_env.c **** void test_env_init(TestInit_t test_init)
  69:common/src/test_env.c **** {
 1450              		.loc 3 69 1
 1451              		.cfi_startproc
 1452              		@ args = 0, pretend = 0, frame = 8
 1453              		@ frame_needed = 0, uses_anonymous_args = 0
 1454 0000 00B5     		push	{lr}
 1455              		.cfi_def_cfa_offset 4
 1456              		.cfi_offset 14, -4
 1457 0002 83B0     		sub	sp, sp, #12
 1458              		.cfi_def_cfa_offset 16
 1459 0004 0346     		mov	r3, r0
 1460 0006 ADF80630 		strh	r3, [sp, #6]	@ movhi
  70:common/src/test_env.c **** #if defined(BUILD_PLATFORM_CLOCK)
  71:common/src/test_env.c ****     if ((test_init & TEST_INIT_CLOCK) != 0u) {
 1461              		.loc 3 71 20
 1462 000a BDF80630 		ldrh	r3, [sp, #6]
 1463 000e 03F00103 		and	r3, r3, #1
 1464              		.loc 3 71 8
 1465 0012 002B     		cmp	r3, #0
 1466 0014 01D0     		beq	.L32
  72:common/src/test_env.c ****         clock_init();
 1467              		.loc 3 72 9
 1468 0016 FFF7FEFF 		bl	clock_init
 1469              	.L32:
  73:common/src/test_env.c ****     }
  74:common/src/test_env.c **** #endif
  75:common/src/test_env.c **** 
  76:common/src/test_env.c **** /* Since board initialization uses the GPIO driver, the GPIO initialization
  77:common/src/test_env.c ****    must be done before the board initialization.*/
  78:common/src/test_env.c **** #if defined(BUILD_DRIVERS_GPIO)
  79:common/src/test_env.c ****     if ((test_init & TEST_INIT_GPIO) != 0u) {
 1470              		.loc 3 79 20
 1471 001a BDF80630 		ldrh	r3, [sp, #6]
 1472 001e 03F00203 		and	r3, r3, #2
 1473              		.loc 3 79 8
 1474 0022 002B     		cmp	r3, #0
 1475 0024 01D0     		beq	.L33
  80:common/src/test_env.c ****         gpio_init();
 1476              		.loc 3 80 9
 1477 0026 FFF7FEFF 		bl	gpio_init
 1478              	.L33:
  81:common/src/test_env.c ****     }
  82:common/src/test_env.c **** #endif
  83:common/src/test_env.c **** 
  84:common/src/test_env.c **** #if defined(BUILD_PLATFORM_BOARD)
  85:common/src/test_env.c ****     if ((test_init & TEST_INIT_BOARD) != 0u) {
 1479              		.loc 3 85 20
 1480 002a BDF80630 		ldrh	r3, [sp, #6]
 1481 002e 03F00403 		and	r3, r3, #4
 1482              		.loc 3 85 8
 1483 0032 002B     		cmp	r3, #0
 1484 0034 01D0     		beq	.L34
  86:common/src/test_env.c ****         BOARD_INIT_FUNC(BOARD_NAME);
 1485              		.loc 3 86 9
 1486 0036 FFF7FEFF 		bl	evbe7000p_init
 1487              	.L34:
  87:common/src/test_env.c ****     }
  88:common/src/test_env.c **** #endif
  89:common/src/test_env.c **** 
  90:common/src/test_env.c **** #if defined(BUILD_PLATFORM_IRQ)
  91:common/src/test_env.c ****     if ((test_init & TEST_INIT_IRQ) != 0u) {
  92:common/src/test_env.c ****         //irq_init();
  93:common/src/test_env.c ****     }
  94:common/src/test_env.c **** #endif
  95:common/src/test_env.c **** 
  96:common/src/test_env.c **** #if defined(BUILD_OS_OSAL)
  97:common/src/test_env.c ****     if ((test_init & TEST_INIT_OSAL) != 0u) {
 1488              		.loc 3 97 20
 1489 003a BDF80630 		ldrh	r3, [sp, #6]
 1490 003e 03F01003 		and	r3, r3, #16
 1491              		.loc 3 97 8
 1492 0042 002B     		cmp	r3, #0
 1493 0044 01D0     		beq	.L36
  98:common/src/test_env.c ****         osal_init();
 1494              		.loc 3 98 9
 1495 0046 FFF7FEFF 		bl	osal_init
 1496              	.L36:
  99:common/src/test_env.c ****     }
 100:common/src/test_env.c **** #endif
 101:common/src/test_env.c **** 
 102:common/src/test_env.c **** #if defined(BUILD_DRIVERS_DMA)
 103:common/src/test_env.c ****     if ((test_init & TEST_INIT_DMA) != 0u) {
 104:common/src/test_env.c ****         //dma_init();
 105:common/src/test_env.c ****     }
 106:common/src/test_env.c **** #endif
 107:common/src/test_env.c **** 
 108:common/src/test_env.c **** #if defined(BUILD_DRIVERS_SARADC)
 109:common/src/test_env.c ****     if ((test_init & TEST_INIT_SARADC) != 0u) {
 110:common/src/test_env.c ****         //saradc_init();
 111:common/src/test_env.c ****     }
 112:common/src/test_env.c **** #endif
 113:common/src/test_env.c **** 
 114:common/src/test_env.c **** #if defined(BUILD_DRIVERS_SPI)
 115:common/src/test_env.c ****     if ((test_init & TEST_INIT_SPI) != 0u) {
 116:common/src/test_env.c ****         //spi_init();
 117:common/src/test_env.c ****     }
 118:common/src/test_env.c **** #endif
 119:common/src/test_env.c **** 
 120:common/src/test_env.c **** #if defined(BUILD_DRIVERS_UART)
 121:common/src/test_env.c ****     if ((test_init & TEST_INIT_UART) != 0u) {
 122:common/src/test_env.c ****         //uart_init();
 123:common/src/test_env.c ****     }
 124:common/src/test_env.c **** #endif
 125:common/src/test_env.c **** }
 1497              		.loc 3 125 1
 1498 004a 00BF     		nop
 1499 004c 03B0     		add	sp, sp, #12
 1500              		.cfi_def_cfa_offset 4
 1501              		@ sp needed
 1502 004e 5DF804FB 		ldr	pc, [sp], #4
 1503              		.cfi_endproc
 1504              	.LFE433:
 1506              		.text
 1507              	.Letext0:
 1508              		.file 4 "d:\\project\\9388\\e1\\2023_7_27\\sr5e1_l9388_freeosek\\tools\\toolchain\\arm\\mingw64_nt
 1509              		.file 5 "d:\\project\\9388\\e1\\2023_7_27\\sr5e1_l9388_freeosek\\tools\\toolchain\\arm\\mingw64_nt
 1510              		.file 6 "d:\\project\\9388\\e1\\2023_7_27\\sr5e1_l9388_freeosek\\modules\\platform\\mcu\\include\\
 1511              		.file 7 "./common/include/test_env.h"
DEFINED SYMBOLS
                            *ABS*:00000000 test_env.c
C:\Users\AAA\AppData\Local\Temp\cczKUThF.s:19     .text.gpio_set_pin_moder:00000000 $t
C:\Users\AAA\AppData\Local\Temp\cczKUThF.s:25     .text.gpio_set_pin_moder:00000000 gpio_set_pin_moder
C:\Users\AAA\AppData\Local\Temp\cczKUThF.s:104    .text.gpio_set_pin_otyper:00000000 $t
C:\Users\AAA\AppData\Local\Temp\cczKUThF.s:110    .text.gpio_set_pin_otyper:00000000 gpio_set_pin_otyper
C:\Users\AAA\AppData\Local\Temp\cczKUThF.s:185    .text.gpio_set_pin_ospeedr:00000000 $t
C:\Users\AAA\AppData\Local\Temp\cczKUThF.s:191    .text.gpio_set_pin_ospeedr:00000000 gpio_set_pin_ospeedr
C:\Users\AAA\AppData\Local\Temp\cczKUThF.s:269    .text.gpio_set_pin_pupdr:00000000 $t
C:\Users\AAA\AppData\Local\Temp\cczKUThF.s:275    .text.gpio_set_pin_pupdr:00000000 gpio_set_pin_pupdr
C:\Users\AAA\AppData\Local\Temp\cczKUThF.s:353    .text.gpio_set_pin_afr:00000000 $t
C:\Users\AAA\AppData\Local\Temp\cczKUThF.s:359    .text.gpio_set_pin_afr:00000000 gpio_set_pin_afr
C:\Users\AAA\AppData\Local\Temp\cczKUThF.s:478    .text.gpio_set_pin_ihystr:00000000 $t
C:\Users\AAA\AppData\Local\Temp\cczKUThF.s:484    .text.gpio_set_pin_ihystr:00000000 gpio_set_pin_ihystr
C:\Users\AAA\AppData\Local\Temp\cczKUThF.s:562    .text.gpio_set_pin_trigenr:00000000 $t
C:\Users\AAA\AppData\Local\Temp\cczKUThF.s:568    .text.gpio_set_pin_trigenr:00000000 gpio_set_pin_trigenr
C:\Users\AAA\AppData\Local\Temp\cczKUThF.s:643    .text.gpio_set_pin_safeselr:00000000 $t
C:\Users\AAA\AppData\Local\Temp\cczKUThF.s:649    .text.gpio_set_pin_safeselr:00000000 gpio_set_pin_safeselr
C:\Users\AAA\AppData\Local\Temp\cczKUThF.s:724    .text.gpio_set_pin_safevalr:00000000 $t
C:\Users\AAA\AppData\Local\Temp\cczKUThF.s:730    .text.gpio_set_pin_safevalr:00000000 gpio_set_pin_safevalr
C:\Users\AAA\AppData\Local\Temp\cczKUThF.s:805    .text.gpio_set_pin_mode:00000000 $t
C:\Users\AAA\AppData\Local\Temp\cczKUThF.s:811    .text.gpio_set_pin_mode:00000000 gpio_set_pin_mode
C:\Users\AAA\AppData\Local\Temp\cczKUThF.s:928    .text.evbe7000p_init:00000000 $t
C:\Users\AAA\AppData\Local\Temp\cczKUThF.s:934    .text.evbe7000p_init:00000000 evbe7000p_init
C:\Users\AAA\AppData\Local\Temp\cczKUThF.s:1440   .text.test_env_init:00000000 $t
C:\Users\AAA\AppData\Local\Temp\cczKUThF.s:1447   .text.test_env_init:00000000 test_env_init
                           .group:00000000 wm4.0.a614e68b47a8f647caa7e8088949ad9c
                           .group:00000000 wm4.stdbool.h.29.07dce69c3b78884144b7f7bd19483461
                           .group:00000000 wm4.stddef.h.39.27677723d43e5b5a7afdf8d798429f1d
                           .group:00000000 wm4._newlib_version.h.4.bfdf54b0af045d4a71376ae00f63a22c
                           .group:00000000 wm4.features.h.33.5bd1eea2d80518b50f7af0b5ce6750e0
                           .group:00000000 wm4._default_types.h.15.247e5cd201eca3442cbf5404108c4935
                           .group:00000000 wm4._intsup.h.10.48bafbb683905c4daa4565a85aeeb264
                           .group:00000000 wm4._stdint.h.10.c24fa3af3bc1706662bb5593a907e841
                           .group:00000000 wm4.stdint.h.23.d53047a68f4a85177f80b422d52785ed
                           .group:00000000 wm4.typedefs.h.36.07fe3956b4e751037cfee70edcd0b397
                           .group:00000000 wm4.clock_cfg.h.23.3c8ba5c0347398a4587362787f86fe62
                           .group:00000000 wm4.sr5e1xx.h.22.568547583bf3c00ded67adadc0110f08
                           .group:00000000 wm4.cmsis_version.h.32.0f826810625204eca22a19868bdc7586
                           .group:00000000 wm4.core_cm7.h.66.a4062db891274e2143912fc0bd7e55e3
                           .group:00000000 wm4.cmsis_gcc.h.26.498d0ad17a45fc9ef20fdc01caf02259
                           .group:00000000 wm4.core_cm7.h.305.f28cb27b64654b9b703ea60dbab0003d
                           .group:00000000 wm4.mpu_armv7.h.32.83326921a797fa9d6f70449916b4b839
                           .group:00000000 wm4.cachel1_armv7.h.32.abd77761a989e008b0c60891114a33c7
                           .group:00000000 wm4.core_cm7.h.2376.07b7b0525701732543280b71e0cd2400
                           .group:00000000 wm4.SR5E1_ADC.h.14.21608e6aff125ba995dd767d6d8dc311
                           .group:00000000 wm4.SR5E1_CEM.h.14.01fe5742c8f1ae35b1f3af05932f702e
                           .group:00000000 wm4.SR5E1_CMU.h.14.2617b38b159abe38028862394531e06d
                           .group:00000000 wm4.SR5E1_COMP.h.14.4b6fdfe4f5f7fd9bedf3a99b98bdf4cd
                           .group:00000000 wm4.SR5E1_CORDIC.h.14.354fbf7c9eaf6963d38eaa25cf28ffe8
                           .group:00000000 wm4.SR5E1_CRC.h.14.270685b4f0bb89cdb48054af5fe3c4ef
                           .group:00000000 wm4.SR5E1_DAC.h.14.8c26a0ff04b0cfeb55306cc3f22187b8
                           .group:00000000 wm4.SR5E1_DBGMCU.h.14.427df893d53a8044654f017ba01c25ed
                           .group:00000000 wm4.SR5E1_DMA.h.14.a7f9a92f844b40a86965798c2e64240b
                           .group:00000000 wm4.SR5E1_DMAMUX.h.14.471b3b4dfd4d41515f1df49493698866
                           .group:00000000 wm4.SR5E1_EXTI.h.14.a325ea3fe89cd84894660551c33241ea
                           .group:00000000 wm4.SR5E1_FCCU.h.14.0ebf0f0f36e079d28613ad2c80e17e23
                           .group:00000000 wm4.SR5E1_FDCAN.h.14.ac57101fad5dbc798bfb93f34c899de7
                           .group:00000000 wm4.SR5E1_FLASH_REG_ITF.h.14.d23d1d44923f9b20b8c8fdb51d66aefd
                           .group:00000000 wm4.SR5E1_GPIO.h.14.1c84071e130d7c64b62470ab0e18a1f1
                           .group:00000000 wm4.SR5E1_HRTIM.h.24.03932387d2522e6bd5c772a4edaf2f5d
                           .group:00000000 wm4.SR5E1_HSEM.h.14.cbe70eee519f01b16452c3f8c99d8df1
                           .group:00000000 wm4.SR5E1_I2C.h.14.350ba3e0f4fd57828457efa80135c36c
                           .group:00000000 wm4.SR5E1_IWDG.h.14.20b7c5f05cf7ae94464c360d7af3660d
                           .group:00000000 wm4.SR5E1_NVM_CTRL.h.14.5f442617f0628d4f16258f211c614ef9
                           .group:00000000 wm4.SR5E1_PLLDIG.h.14.bd87a8e6917eee17dae2f312c8e5fa53
                           .group:00000000 wm4.SR5E1_PMC_DIG.h.14.6b7406ff48d7bcd1e53033a370604200
                           .group:00000000 wm4.SR5E1_RCC.h.14.56734803c71534de286e793a53649740
                           .group:00000000 wm4.SR5E1_RTC.h.14.47037cbc7d8175dbf2be1dc0bb955e3f
                           .group:00000000 wm4.SR5E1_SD_ADC.h.14.552b97d0b8f3c1fd4df6d8964b2f1a80
                           .group:00000000 wm4.SR5E1_SPI.h.14.42d52112e540f85ade4d9135f8b87d72
                           .group:00000000 wm4.SR5E1_SSCM.h.14.8e6a2ad0ce5fca422fc3d69939b6125b
                           .group:00000000 wm4.SR5E1_SYSCFG.h.14.02b969490118ce4069914b5e94f7ca65
                           .group:00000000 wm4.SR5E1_TDM.h.14.a40ed7928cad243a57fd233fccf01ad2
                           .group:00000000 wm4.SR5E1_TIM.h.14.05b8efc5395873619642d61a4b0b5a54
                           .group:00000000 wm4.SR5E1_UART.h.14.eec3ab82b02b3bdb3de500483675b83f
                           .group:00000000 wm4.SR5E1_WWDG.h.14.59b45efc70e442cc6ef03702aad4ad88
                           .group:00000000 wm4.irq_numbers.h.38.b76ee9208c5ae3feb2392b512990cf71
                           .group:00000000 wm4.regs.h.23.38915225b13378a72a9bf21e632c378b
                           .group:00000000 wm4.clock.h.37.c942461032b5a15e2a4133c6666f70ce
                           .group:00000000 wm4.gpio.h.25.d41a0c19fda8c2de42e666afb48ec15a
                           .group:00000000 wm4.irq.h.37.78714f25754c8b09d1428599101f6cc7
                           .group:00000000 wm4.osal_cfg.h.23.b97ea04faf646103324df3ecc2655260
                           .group:00000000 wm4.osal.h.38.40390df6c87bbed5f1c054e622a926ee
                           .group:00000000 wm4.test_env.h.57.690797a2e7b6aa0f01d5a7ba687211c6
                           .group:00000000 wm4.evbe7000p.h.25.2f49fb17c3dd8379489c2784aa8b2c97
                           .group:00000000 wm4.test_env.h.92.68c13ade9b3e38ad2c77de7ebbfe3e53

UNDEFINED SYMBOLS
gpio_dev_get_port_reg_ptr
clock_init
gpio_init
osal_init
